nd:_glClearStencil
ZXk:_UInt16_System_IConvertible_ToChar_m2096055221_AdjustorThunk
Ooj:__ZN23InterfaceActionInvoker1IP18Camera_t4157153871E6InvokeEjP11Il2CppClassP12Il2CppObjectS1_
Vti:_Array_TrueForAll_TisRuntimeObject_m1084992726_gshared
g1c:__ZN5physx2Gu19gjkLocalPenetrationINS0_8CapsuleVENS0_17ShrunkConvexHullVEEEjRKT_RKT0_RKNS_6shdfnd3aos6FloatVERNSB_5Vec3VESG_SG_RSC_PhSI_Rhb
Zuk:__ZL95CanvasRenderer_t2598313366_CustomAttributesCacheGenerator_CanvasRenderer_SetMaterial_m824577244P21CustomAttributesCache
EZi:__ZN28GenericInterfaceFuncInvoker2I27DictionaryEntry_t312397563828NetworkInstanceId_t786350175P12Il2CppObjectE6InvokeEPK10MethodInfoS3_S1_S3_
I9n:__ZN6il2cpp2vm5Array13GetByteLengthEP11Il2CppArray
Aom:_ReadOnlyCollection_1_get_Item_m267437766_gshared
Ebn:_KeyBuilder_get_Rng_m3373220441
a_e:__ZN15DownloadHandler7OnAbortEv
Vwm:_Comparison_1_EndInvoke_m97244153_gshared
xVa:__Z30GetIntermediateRendererManagerv
tym:_U3CCreateWhereIteratorU3Ec__Iterator1D_1_System_Collections_Generic_IEnumeratorU3CTSourceU3E_get_Current_m1909387290_gshared
VAa:__Z21SourceMipLevelForBlitiiii
a_a:__ZN31CanvasBatchIntermediateRenderer15AddAsRenderNodeER15RenderNodeQueueRK20DeprecatedSourceData
W2k:_Dictionary_2_Do_ICollectionCopyTo_TisInt32_t2950945753_m2590022749_gshared
lVk:_TimeSpan_get_Hours_m550761902
jsk:__ZL72GUISkin_t1244372282_CustomAttributesCacheGenerator_m_verticalSliderThumbP21CustomAttributesCache
Wxf:_ObjectSpawnSceneMessage_Deserialize_m3847944495
mUf:_ChannelBuffer_set_lastBufferedPerSecond_m2001196701
Ijk:__ZL63PlayableOutputHandle_t4208053793_CustomAttributesCacheGeneratorP21CustomAttributesCache
Sff:_CanvasScaler_get_defaultSpriteDPI_m871626936
XVe:__ZN11UnityEngine7Connect14AppUpdateEventD0Ev
SXj:__ZL66RuntimeArray_CustomAttributesCacheGenerator_Array_Sort_m3287581440P21CustomAttributesCache
PIi:_Enumerator_get_Current_m1152007899_AdjustorThunk
PTd:__ZNK5physx2Sc5Scene24getContactModifyCallbackEv
WZ:__ZdlPv
wt:__ZN11UnityEngine9Animation28GenericAnimationBindingCacheD2Ev
WWd:__ZN5physx2Sq10AABBPruner10addObjectsEPjPKNS_9PxBounds3EPKNS0_13PrunerPayloadEj
hFm:_X509Store_LoadCrl_m1881903843
Htf:_NetworkProximityChecker_Update_m3269073311
u1k:_Array_Sort_TisUICharInfo_t75501106_TisUICharInfo_t75501106_m722747892_gshared
GXn:_il2cpp_runtime_unhandled_exception_policy_set
HMf:_CaseInsensitiveComparer__ctor_m2101975011
G7f:__Z67RuntimeInvoker_Byte_t1134296376_Int32_t2950945753_Int32_t2950945753PFvvEPK10MethodInfoPvPS4_
j6f:__Z53RuntimeInvoker_UInt32_t2560061978_Decimal_t2948259380PFvvEPK10MethodInfoPvPS4_
mc:invoke_viiiifiiiiif
m2b:__Z18RestoreRenderStateR20CameraRenderOldStateR17ShaderPassContext
GEb:__Z18Transfer_BlittableI18StreamedBinaryReadILb1EELb1E5RectTIfEEvRK29SerializationCommandArgumentsR31RuntimeSerializationCommandInfo
fll:_Dictionary_2_System_Collections_Generic_ICollectionU3CSystem_Collections_Generic_KeyValuePairU3CTKeyU2CTValueU3EU3E_Contains_m2644565652_gshared
yAb:__Z18Transfer_BlittableI24GenerateTypeTreeTransferLb0E11ColorRGBA32EvRK29SerializationCommandArgumentsR31RuntimeSerializationCommandInfo
rJb:__Z25scripting_class_from_name17ScriptingImagePtrPKcS1_
eyi:_Array_InternalArray__IndexOf_TisKeyValuePair_2_t3699644050_m1021241249_gshared
kUn:__ZN14dense_hash_mapI10KeyWrapperINSt3__24pairIPK12PropertyInfoP11Il2CppClassEEEj17ReflectionMapHashIS8_ENS9_14EqualsComparerINS1_8equal_toIS8_EEEENS1_9allocatorINS2_IKS9_jEEEEE15set_deleted_keyERSH_
VKb:__Z29scripting_class_enum_basetype17ScriptingClassPtr
mad:__ZN5physx6shdfnd8PoolBaseINS_2Sc10NPhaseCore16ClothListElementENS0_19ReflectionAllocatorIS4_EEE17releaseEmptySlabsEv
y4k:_Dictionary_2_Do_CopyTo_TisTextEditOp_t1927482598_TisRuntimeObject_m2764429702_gshared
K_:__ZNK12BaseRenderer18GetRenderNodeCountEv
lNc:__ZN16PhysicsManager2D7RaycastERK3RayfiR12RaycastHit2D
krn:__ZN30GenericInterfaceActionInvoker1IP24SingleU5BU5D_t1444911251E6InvokeEPK10MethodInfoP12Il2CppObjectS1_
Ude:__ZN5physx2Sc14ConstraintCore10breakApartEv
j5f:__Z64RuntimeInvoker_RuntimeObject_Int32_t2950945753_Int16_t2552820387PFvvEPK10MethodInfoPvPS4_
E9n:__ZNSt3__26__treeINS_12basic_stringIcNS_11char_traitsIcEENS_9allocatorIcEEEENS_4lessIS6_EENS4_IS6_EEE16__construct_nodeIJRKS6_EEENS_10unique_ptrINS_11__tree_nodeIS6_PvEENS_22__tree_node_destructorINS4_ISH_EEEEEEDpOT_
eje:__ZN5physx2Gu15EdgeListBuilderC2Ev
z7m:_NetworkTransformChild_GetNetworkChannel_m4234887186
llh:_InternalEnumerator_1_get_Current_m1477715453_gshared
Cki:_Enumerator__ctor_m2827156589_AdjustorThunk
Vrb:__ZNK20LocalFileSystemPosix6ParentERK13FileEntryDataRN4core12basic_stringIcNS3_20StringStorageDefaultIcEEEE
BBj:_RectTransform_GetWorldCorners_m3553547973
Dke:__ZN5physx7Cooking20loadTriangleMeshDescERKNS_18PxTriangleMeshDescERNS_19TriangleMeshBuilderE
E6l:_Collection_1_System_Collections_IList_Remove_m1476284619_gshared
LDh:_ContractionComparer__ctor_m3439667810
Ebj:_MonoType_IsPrimitiveImpl_m2401722705
Bdj:_SHA1CryptoServiceProvider__ctor_m4195188793
dUn:__ZN15dense_hashtableINSt3__24pairIK10KeyWrapperINS1_IPK9EventInfoP11Il2CppClassEEEjEES9_17ReflectionMapHashIS8_EN14dense_hash_mapIS9_jSD_NS9_14EqualsComparerINS0_8equal_toIS8_EEEENS0_9allocatorISB_EEE9SelectKeyESI_SK_E15set_deleted_keyERKSB_
qdd:__ZN5physx9NpFactory21releaseConnectorArrayEPNS_16NpConnectorArrayE
Zpj:_CSSMeasureFunc_BeginInvoke_m3802154595
bpd:__ZNK5physx14NpShapeManager9getShapesEPPNS_7PxShapeEjj
YZd:__ZNK5physx2Gu29EPASupportMapPairRelativeImplINS0_9TriangleVENS0_4BoxVEE6getDirEv
iAm:_SslStreamBase_InternalReadCallback_m3350299308
U8b:__Z13RegisterClassI12InputManagerEvv
HOa:__ZN17PersistentManager22CheckInstanceIDsLoadedEPii
krh:_NumberFormatter_NumberToString_m264078176
cXf:_ConnectionArray_get_LocalIndex_m2729286566
lGj:_Vector2_get_up_m2647420593
zya:__ZN7ApiGLES17CopyBufferSubDataEjjlll
xzl:_Array_InternalArray__ICollection_CopyTo_TisUInt64_t4134040092_m691431926_gshared
i6l:__ZN23InterfaceActionInvoker2Ii22OrderBlock_t1585977831E6InvokeEjP11Il2CppClassP12Il2CppObjectiS0_
rYg:_IPAddress_ToString_m1181734207
RQk:_StringBuilder_Append_m1965104174
SBc:__ZN5Unity9rapidjson15GenericDocumentINS0_4UTF8IcEE13JSONAllocatorS4_E11ParseStreamILj1ES3_NS0_25GenericInsituStringStreamIS3_EEEERS5_RT1_
tDn:__ZNSt3__26vectorIPK10Il2CppTypeNS_9allocatorIS3_EEE7reserveEj
kxl:_EqualityComparer_1__cctor_m3766928733_gshared
tWb:__ZN25CameraStackRenderingState20GetOrCreateBuiltinRTE24BuiltinRenderTextureTypeii17DepthBufferFormat19RenderTextureFormatj22RenderTextureReadWrite14VRTextureUsagei
UQm:_UnityAction_1_Invoke_m610765085_gshared
kom:_ReadOnlyCollection_1_System_Collections_IList_Contains_m1839452290_gshared
uR:__ZN11AudioModule26SetDefaultMicrophoneDriverEPv
BCd:__ZNK5physx15NpActorTemplateINS_15PxParticleFluidEE22getClientBehaviorFlagsEv
QZh:_Kernel_modInverse_m652700340
cdb:__ZNK14Texture2DArray26CanReuploadDataToGfxDeviceEv
I_b:__ZN17PrePassRenderLoop14RenderBasePassEP13RenderTextureRK14LightingLayersR13dynamic_arrayI16RenderObjectDataLj4EERbR10MinMaxAABB
vTa:__ZN17GlobalGameManager23VirtualRedirectTransferER17RemapPPtrTransfer
iFe:_sfnt_stream_close
ZEi:_Enumerator_Reset_m2650542630_AdjustorThunk
oyc:__ZN5IMGUI18RepaintModalWindowER8GUIState
ZCg:__Z60RuntimeInvoker_RuntimeObject_Int16_t2552820387_RuntimeObjectPFvvEPK10MethodInfoPvPS4_
UUg:_HybridDictionary_get_IsSynchronized_m2987560362
Sll:_Dictionary_2__ctor_m3638779579_gshared
jwk:__ZL103CreateMatchResponse_t1328247360_CustomAttributesCacheGenerator_CreateMatchResponse_get_port_m4033119080P21CustomAttributesCache
g7:__ZNK15dense_hashtableINSt3__24pairIKN9ShaderLab7Program23ShaderKeywordSetAndHashEPKNS2_10SubProgramEEES4_NS3_24ShaderKeywordHashFunctorEN14dense_hash_mapIS4_S8_SA_NS0_8equal_toIS4_EE13stl_allocatorIS9_L18MemLabelIdentifier67ELi16EEE9SelectKeyESD_SG_E23find_position_with_hashERS5_j
wsg:__Z59RuntimeInvoker_Boolean_t97287965_ArraySegment_1_t2229370775PFvvEPK10MethodInfoPvPS4_
CSj:_CompareInfo_Finalize_m404687489
Nbb:__Z23SetSpriteMeshIndexCountP14SharedMeshDataj
NSk:_UTF8Decoder_GetChars_m1236346907
dEj:_TouchScreenKeyboard_Open_m231964201
O3a:__ZN7Texture13SetFilterModeEi
ezj:_Quaternion_GetHashCode_m2636680144_AdjustorThunk
NOb:__ZNSt3__26vectorINS_4pairIiN17InstancingBatcher12PropertyTypeEEE13stl_allocatorIS4_L18MemLabelIdentifier1ELi16EEE21__push_back_slow_pathIKS4_EEvRT_
$Dg:__Z86RuntimeInvoker_NetworkInstanceId_t786350175_NetworkInstanceId_t786350175_RuntimeObjectPFvvEPK10MethodInfoPvPS4_
hbo:__ZN6il2cpp8metadata13GenericMethod9GetMethodEPK19Il2CppGenericMethod
js:__ZNSt3__26vectorIN4core12basic_stringIcNS1_20StringStorageDefaultIcEEEENS_9allocatorIS5_EEE7reserveEj
aBi:_Enumerator_Dispose_m1028655316_AdjustorThunk
Eth:_Default_SelectProperty_m1220817815
XLg:_RemotingConfiguration_IsRemotelyActivatedClientType_m4117048589
DBj:_Transform_TransformPoint_m226827784
CWm:_ListPool_1_Get_m738675669_gshared
c5n:__ZNSt3__26__treeINS_12__value_typeIjN6il2cpp2os17SocketHandleEntryEEENS_19__map_value_compareIjS5_NS_4lessIjEELb1EEENS_9allocatorIS5_EEE25__emplace_unique_key_argsIjJNS_4pairIKjS4_EEEEENSE_INS_15__tree_iteratorIS5_PNS_11__tree_nodeIS5_PvEEiEEbEERKT_DpOT0_
ssa:__ZN13GfxDeviceGLES11SetViewportERK5RectTIiE
D9k:_Enumerator_get_Current_m2861280338_AdjustorThunk
ftc:__Z24Time_Get_Custom_PropTimev
bc:invoke_vifiiii
JIi:_Enumerator_System_Collections_IEnumerator_Reset_m2453762887_AdjustorThunk
Ge:_emscripten_glDepthRange
Hzm:_SslStreamBase_BeginNegotiateHandshake_m4180435790
Ojk:__ZL104SceneManager_t2787271929_CustomAttributesCacheGenerator_SceneManager_INTERNAL_CALL_GetSceneAt_m121986796P21CustomAttributesCache
myf:_RemovePlayerMessage_Deserialize_m2265548774
dYc:__ZN5physx2Gu24contactConvexHeightfieldERKNS0_13GeometryUnionES3_RKNS_11PxTransformES6_RKfRNS0_5CacheERNS0_13ContactBufferE
Ted:__ZN5physx6shdfnd5ArrayIPvNS0_19ReflectionAllocatorINS_2Cm5BlockIS2_Lj8EEEEEE15growAndPushBackERKS2_
C4b:__ZNSt3__26vectorINS_4pairIN4core12basic_stringIcNS2_20StringStorageDefaultIcEEEES6_EE13stl_allocatorIS7_L18MemLabelIdentifier38ELi16EEE12__move_rangeEPS7_SC_SC_
Cla:__Z14resize_trimmedINSt3__26vectorIN9ShaderLab20SerializedSubProgram12UAVParameterENS0_9allocatorIS4_EEEEEvRT_j
kCc:__ZN5Unity9rapidjson13GenericReaderINS0_4UTF8IcEES3_13JSONAllocatorE11ParseObjectILj1ENS0_25GenericInsituStringStreamIS3_EENS0_15GenericDocumentIS3_S4_S4_EEEEvRT0_RT1_
iic:__Z10DestripifyPKjjRNSt3__26vectorIj13stl_allocatorIjL18MemLabelIdentifier1ELi16EEEE
eef:_StandaloneInputModule_GetRawMoveVector_m2737091079
Wjc:__ZN13BuildSettings34ConvertScenePathToDisplayScenePathERKN4core12basic_stringIcNS0_20StringStorageDefaultIcEEEE
sLk:__ZL62Selectable_t3250028441_CustomAttributesCacheGenerator_m_ColorsP21CustomAttributesCache
pAm:_SslStreamBase_EndWrite_m4073224031
G4:__ZNSt3__218__insertion_sort_3IRNS_6__lessI14ObjectLoadDataS2_EEPS2_EEvT0_S6_T_
kqk:__ZL92Event_t2956885303_CustomAttributesCacheGenerator_Event_Internal_GetMousePosition_m1101229675P21CustomAttributesCache
DKl:_List_1_System_Collections_ICollection_get_SyncRoot_m1244917400_gshared
ERm:__ZN23InterfaceActionInvoker4IP12Il2CppObjectS1_S1_S1_E6InvokeEjP11Il2CppClassS1_S1_S1_S1_S1_
JSl:_List_1_CheckIndex_m3911872851_gshared
pAa:__ZN4crndL20crnd_default_reallocEPvjPjbS0_
mBg:__Z54RuntimeInvoker_CustomAttributeNamedArgument_t287865710PFvvEPK10MethodInfoPvPS4_
jpo:__ZNSt3__212basic_stringIcNS_11char_traitsIcEENS_9allocatorIcEEEC2ERKS5_
_2d:__ZN5physx24PxsComputeAABBLocalSpaceERKNS_18PxcAABBDataDynamicERNS_9PxBounds3E
Dcb:__ZN18SpriteAtlasManager19AddRequestingSpriteE4PPtrI6SpriteE
bki:_Enumerator__ctor_m247851533_gshared
hvl:_DefaultComparer__ctor_m1582452374_gshared
Ssc:__Z33Texture_CUSTOM_Internal_GetHeightP12Il2CppObject
Sqk:__ZL102GUIStyle_t3956901511_CustomAttributesCacheGenerator_GUIStyle_INTERNAL_CALL_GetRectOffsetPtr_m152975056P21CustomAttributesCache
cKj:_DateTime__ParseDateSeparator_m1803046501
bP:__ZNK4PPtrI9AudioClipEptEv
scl:_ValueCollection_System_Collections_ICollection_get_SyncRoot_m3381653267_gshared
D9i:_UnmanagedMemoryStream_Write_m930787521
r1b:__ZN23ScriptableRenderContextC2Ev
kmf:_GridLayoutGroup_get_spacing_m2409263614
JVa:__ZN4PPtrI13RenderTextureE8TransferI18StreamedBinaryReadILb0EEEEvRT_
jVm:_SyncList_1_get_Callback_m2136845354_gshared
Hsl:__ZN21InterfaceFuncInvoker1Ii25NetworkSceneId_t717048590E6InvokeEjP11Il2CppClassP12Il2CppObjectS0_
G8k:_Enumerator_MoveNext_m3051926902_gshared
lFl:_List_1_CheckIndex_m581273900_gshared
cHe:_UNITY_FT_Stream_GetChar
fHj:_WaitForSeconds_t1699091251_marshal_pinvoke
SWm:_ObjectPool_1_get_countAll_m819305395_gshared
fFb:__Z18Transfer_BlittableI18StreamedBinaryReadILb1EELb1EdEvRK29SerializationCommandArgumentsR31RuntimeSerializationCommandInfo
cNl:_List_1_ToArray_m190175978_gshared
CDk:__ZL66NetworkMigrationManager_t2405847916_CustomAttributesCacheGeneratorP21CustomAttributesCache
yXd:__ZN5physx6shdfnd8internal8HashBaseINS0_4PairIKNS_2Sq13PrunerPayloadEjEES5_NS0_4HashIS5_EENS1_11HashMapBaseIS5_jS9_NS0_9AllocatorEE6GetKeyESB_Lb1EE5eraseERS6_
bLb:__Z26BuildSerializationCacheFor17ScriptingClassPtrRb
kaf:_EventSystem_get_firstSelectedGameObject_m1576206896
Sxm:_Func_2__ctor_m3104565095_gshared
zGa:__ZN7ApiGLES15BlitFramebufferEN2gl6HandleILNS0_10ObjectTypeE9EEENS0_15FramebufferReadES3_S3_iiiiiiiiNS0_15FramebufferTypeE
qfe:__ZN5physx13GuMeshFactory16createConvexMeshERNS_13PxInputStreamE
Uqe:__ZN5physx6shdfnd8internal8HashBaseINS0_4PairIKPKcjEES5_NS0_4HashIS5_EENS1_11HashMapBaseIS5_jS9_NS_7profile26WrapperReflectionAllocatorIjEEE6GetKeyESD_Lb1EE6createERS6_Rb
phg:__Z112RuntimeInvoker_RuntimeObject_RuntimeObject_RuntimeObject_RuntimeObject_RuntimeObject_RuntimeObject_RuntimeObjectPFvvEPK10MethodInfoPvPS4_
Mcm:_Collection_1_RemoveItem_m561118740_gshared
Akh:_InternalEnumerator_1_System_Collections_IEnumerator_get_Current_m3553395619_AdjustorThunk
mXi:__ZN23GenericVirtFuncInvoker2IP12Il2CppObjectS1_xE6InvokeEPK10MethodInfoS1_S1_x
oEf:_Array_SetValue_m3998268557
XOg:_ServerContextTerminatorSink__ctor_m2519287841
Lgf:_ColorBlock_set_highlightedColor_m2089444414_AdjustorThunk
Jug:__Z59RuntimeInvoker_Boolean_t97287965_X509ChainStatus_t133602714PFvvEPK10MethodInfoPvPS4_
Mjg:__Z52RuntimeInvoker_Boolean_t97287965_Vector3_t3722313464PFvvEPK10MethodInfoPvPS4_
E5h:_Context_EndSwitchingSecurityParameters_m4148956166
gCe:_otv_PairPos_validate
C8j:__ZL63ThreadStateException_t3003788475_CustomAttributesCacheGeneratorP21CustomAttributesCache
_x:__ZN7mecanim9animation14CopyHumanPosesEPKNS0_18AnimationNodeStateEPS1_RKNS_6bitsetILj83EEE
SLn:__ZN6il2cpp6icalls8mscorlib6SystemL8IsStaticEPK12PropertyInfo
sMb:__Z9InitInputv
wTn:__ZN30dense_hashtable_const_iteratorINSt3__24pairIK10KeyWrapperIPK22Il2CppGenericParameterEPK24MonoGenericParameterInfoEES6_N6il2cpp5utils11PointerHashIS4_EEN14dense_hash_mapIS6_SA_SF_NS6_14EqualsComparerINS0_8equal_toIS5_EEEENS0_9allocatorISB_EEE9SelectKeyESK_SM_E30advance_past_empty_and_deletedEv
wBb:__Z29Transfer_Blittable_ArrayFieldI24GenerateTypeTreeTransfer11ColorRGBA32EvRT_R9ArrayInfoRK23StaticTransferFieldInfo
ofe:__ZNK5physx13GuMeshFactory15getConvexMeshesEPPNS_12PxConvexMeshEjj
HPn:__ZN6il2cpp2gc19AppendOnlyGCHashMapINSt3__24pairIPK10MethodInfoP11Il2CppClassEEP22Il2CppReflectionMethod17ReflectionMapHashIS9_ENS2_8equal_toIS9_EEE3AddERKS9_SB_
_sb:__ZN16MemoryFileSystem6DeleteER13FileEntryDatab
Bag:__Z81RuntimeInvoker_Void_t1185182177_RuntimeObject_Int64_t3736567304_Int32_t2950945753PFvvEPK10MethodInfoPvPS4_
mal:_Enumerator__ctor_m3439895961_gshared
Uzi:_Array_InternalArray__ICollection_Add_TisLink_t3209266973_m77922316_gshared
lBa:__ZL21BlitScaleStbImageImplRK14ImageReferenceRS_NS_10ColorSpaceE
Vtd:__ZN5physx10NpMaterial17setStaticFrictionEf
$Gf:_Boolean_System_IConvertible_ToUInt16_m3465173538_AdjustorThunk
ROd:__ZNK5physx7NpScene18getStaticStructureEv
fQc:__ZNSt3__26__sortIR31RayHitsByInverseDepthComparitorP12RaycastHit2DEEvT0_S5_T_
nOd:__ZNK5physx7NpScene19getFilterShaderDataEv
UMh:_InputField_get_keyboardType_m1248105267
pwb:__Z29Transfer_Blittable_ArrayFieldI14SafeBinaryReadyEvRT_R9ArrayInfoRK23StaticTransferFieldInfo
jP:__ZN20SoundChannelInstance15setChannelGroupEPN4FMOD12ChannelGroupE
OGm:_Match__ctor_m2425511580
lJh:_KeyPairPersistence_Remove_m1876145547
u$j:__ZL63FileNotFoundException_t225391025_CustomAttributesCacheGeneratorP21CustomAttributesCache
Yod:__ZN5physx2Sc19ShapeInstancePairLL26onPoseChangedWhileSleepingEv
Lfk:__ZL84Behaviour_t1437897464_CustomAttributesCacheGenerator_Behaviour_set_enabled_m20417929P21CustomAttributesCache
fZd:__ZN5physx22PxcSweepCapsuleCapsuleERKNS_11PxsCCDShapeES2_PKNS_12PxsRigidBodyES5_RKNS_11PxTransformES8_S8_S8_fRNS_6PxVec3ESA_RNS_10PxcNpCacheERNS_18PxcNpThreadContextEf
$c:invoke_vifffii
RHb:__Z35Transfer_Blittable_FixedBufferFieldI18StreamedBinaryReadILb0EEaEvRK29SerializationCommandArgumentsR31RuntimeSerializationCommandInfo
D$n:__ZN6il2cpp2vm9Exception27RaiseNullReferenceExceptionEv
h6c:__ZNK5physx3Cct17CapsuleController21getHalfHeightInternalEv
yRa:__ZNK25MultiBlocksMemoryFileData5CloneEv
jbh:_InternalEnumerator_1_System_Collections_IEnumerator_Reset_m3873091784_AdjustorThunk
Tgo:_GC_add_ext_descriptor
YNn:__ZNK15dense_hashtableINSt3__24pairIK10KeyWrapperINS1_IPK14Il2CppAssemblyP11Il2CppClassEEEjEES9_17ReflectionMapHashIS8_EN14dense_hash_mapIS9_jSD_NS9_14EqualsComparerINS0_8equal_toIS8_EEEENS0_9allocatorISB_EEE9SelectKeyESI_SK_E23find_position_with_hashERSA_j
s5c:__ZN5physx21PxQueryFilterCallbackD2Ev
Q5k:_LayoutGroup_SetProperty_TisSingle_t1397266774_m793506911_gshared
Who:__ZN6il2cpp2os14WindowsRuntime22GetRestrictedErrorInfoEv
q5e:_CryptoConfig_CreateFromName_m1538277313
O$l:_Queue_1__ctor_m263978079_gshared
J5g:_InternalEnumerator_1_get_Current_m3073360606_gshared
DQa:__ZN17ArchiveFileSystem11CreateAsDirER13FileEntryData
xcd:__ZL30GeomOverlapCallback_CapsuleBoxRKN5physx10PxGeometryERKNS_11PxTransformES2_S5_PNS_2Gu12TriggerCacheE
qro:dynCall_iiiiiiiiiiii
Ywe:__Z38Rigidbody_CUSTOM_INTERNAL_get_velocityP12Il2CppObjectP8Vector3f
dNh:_InputField_set_caretPositionInternal_m3823580651
BXe:__ZN18UnityConnectClient16IsServiceEnabledEv
hXj:__ZL74RuntimeArray_CustomAttributesCacheGenerator_Array_GetLongLength_m561139708P21CustomAttributesCache
HMa:__ZN22VertexDeclarationCacheD0Ev
TWh:_Selectable_set_interactable_m3105888815
m_a:__ZL26KeywordSetToStringDontSortRKNSt3__26vectorIN4core12basic_stringIcNS1_20StringStorageDefaultIcEEEENS_9allocatorIS5_EEEERS5_
NUe:__Z54Register_UnityEngine_Analytics_CustomEventData_AddCharv
dDa:__ZN6prcoreL17RemapGenericFloatI16TexFormatRGFloat17TexFormatRGBAHalfEEvPKNS_9InnerInfoE
qJ:__ZN12AudioManager22CreateFMODSoundFromWWWEP10IWWWStream15FMOD_SOUND_TYPE17FMOD_SOUND_FORMATjjbbP10SampleClip
ycc:__ZNK32RendererMaterialAnimationBinding15GenerateBindingERKN4core12basic_stringIcNS0_20StringStorageDefaultIcEEEEbRN11UnityEngine9Animation14GenericBindingE
Ekn:__ZL25UnresolvedVirtualCall_135P12Il2CppObjectsS0_PK10MethodInfo
Pik:__ZL48Sprite_t280657092_CustomAttributesCacheGeneratorP21CustomAttributesCache
QIg:_TargetException__ctor_m4172127019
Ghh:_InternalEnumerator_1_get_Current_m1616546323_AdjustorThunk
ZLl:_List_1_CheckCollection_m274117203_gshared
VFk:__ZL70EventSystem_t1003666588_CustomAttributesCacheGenerator_m_FirstSelectedP21CustomAttributesCache
b1:__ZN8Remapper23GetOrGenerateInstanceIDERK26SerializedObjectIdentifier
uhf:_ColorTween_get_startColor_m3792586410_AdjustorThunk
KQa:__ZN17FileSystemHandler10AtomicMoveER13FileEntryDataS1_
lb:invoke_iiiiiifffiiifii
ntk:__ZL106Physics_t2310948930_CustomAttributesCacheGenerator_Physics_Raycast_m3101461809____queryTriggerInteraction5P21CustomAttributesCache
y7f:__Z85RuntimeInvoker_Void_t1185182177_Int32_t2950945753_Int32_t2950945753_Int32_t2950945753PFvvEPK10MethodInfoPvPS4_
M0e:_BinaryFormatter_get_SurrogateSelector_m2111882017
YDk:__ZL63NetworkStartPosition_t3934012644_CustomAttributesCacheGeneratorP21CustomAttributesCache
f1g:_X509Chain__ctor_m2878811474
OAf:_X509CertificateCollection__ctor_m3365535796
Erh:_CustomInfo__ctor_m426096741
Caf:_EventSystem_ToString_m3779610692
hsf:_ErrorMessage__ctor_m3831077308
Ybb:__ZN6Sprite8TransferI24GenerateTypeTreeTransferEEvRT_
kTg:_SoapTypeAttribute_get_IsInteropXmlType_m629667929
euc:__Z48Register_UnityEngine_Transform_SetAsFirstSiblingv
cdh:_InternalEnumerator_1_System_Collections_IEnumerator_get_Current_m694606607_gshared
$bb:__ZN7SubMesh8TransferI24GenerateTypeTreeTransferEEvRT_
$Xm:_GUI_Box_m2000953926
Zt:__ZNK4PPtrI10MonoScriptEptEv
KRm:_UnityEvent_1_FindMethod_Impl_m2511430237_gshared
iom:_ReadOnlyCollection_1_System_Collections_IList_Add_m2262774863_gshared
ZKm:_Literal_IsComplex_m4067122560
esf:_NetworkManager__cctor_m2176134161
Xgi:_KeyValuePair_2_set_Key_m2347351918_AdjustorThunk
wnc:__Z48Register_UnityEngine_Application_get_absoluteURLv
dXc:__ZN5physx3Cct10Controller6setPosERKNS_14PxExtendedVec3E
RPb:__ZN19GfxThreadableDevice20SetShadersThreadableEPP10GpuProgramPPK20GpuProgramParametersPKPKh
Del:_ValueCollection_System_Collections_Generic_ICollectionU3CTValueU3E_Contains_m740031315_gshared
kZc:__ZN5physx2GuL14testFaceNormalERKNS0_13PolygonalDataES3_PNS0_12SupportLocalES5_RKNS_6shdfnd3aos15PsMatTransformVESA_RKNS7_6FloatVERSB_RjRNS7_5Vec3VENS0_13FeatureStatusERSI_
rzk:__ZL133MatchInfoDirectConnectSnapshot_t618021185_CustomAttributesCacheGenerator_MatchInfoDirectConnectSnapshot_set_publicAddress_m3627602076P21CustomAttributesCache
B3i:_DirectoryInfo__ctor_m126519516
qBh:_MethodBase_GetMethodFromIntPtr_m3014201362
K6l:__ZN21InterfaceFuncInvoker1I19Color32_t2600501292iE6InvokeEjP11Il2CppClassP12Il2CppObjecti
Yfh:_InternalEnumerator_1_get_Current_m2315302778_AdjustorThunk
bKm:_Reference_get_CapturingGroup_m3861468528
f7f:__Z40RuntimeInvoker_TypeAttributes_t113483779PFvvEPK10MethodInfoPvPS4_
YYm:_GUIStyle_INTERNAL_set_Internal_clipOffset_m136489018
Ukc:__ZN9Transform23SetSiblingIndexInternalEib
MMl:_List_1_Clear_m1143167521_gshared
WNm:_Predicate_1__ctor_m2968720340_gshared
LAh:_AddEventAdapter__ctor_m2428277574
Dcd:__ZL32GeomOverlapCallback_ConvexConvexRKN5physx10PxGeometryERKNS_11PxTransformES2_S5_PNS_2Gu12TriggerCacheE
ahm:_Collection_1_SetItem_m794903769_gshared
bQf:_Enumerator_MoveNext_m635366482
bBf:_X509Extension_Equals_m1222951829
sw:__ZN7mecanim5human12HumanPoseSubERNS0_9HumanPoseERKS1_S4_
KFg:__Z37RuntimeInvoker_Enumerator_t1789501480PFvvEPK10MethodInfoPvPS4_
E4n:__ZN6il2cpp8metadata15GenericMetadata15GetGenericClassEiPK17Il2CppGenericInst
AUm:_SyncList_1_Contains_m1504440337_gshared
pom:_ReadOnlyCollection_1_System_Collections_ICollection_get_IsSynchronized_m2312410506_gshared
PJf:_Char_GetTypeCode_m2433327340_AdjustorThunk
Qub:__Z18Transfer_BlittableI14SafeBinaryReadLb0E10Matrix4x4fEvRK29SerializationCommandArgumentsR31RuntimeSerializationCommandInfo
sKb:__Z24GetFixedBehaviourManagerv
DWj:__ZL69IntPtr_t_CustomAttributesCacheGenerator_IntPtr_op_Equality_m408849716P21CustomAttributesCache
KWi:__ZN23GenericVirtFuncInvoker2I27DictionaryEntry_t3123975638P12Il2CppObjectxE6InvokeEPK10MethodInfoS2_S2_x
Tsk:__ZL90Physics2D_t1528932956_CustomAttributesCacheGenerator_Physics2D_OverlapCircleAll_m841024216P21CustomAttributesCache
_Yh:_Text_UpdateGeometry_m3634850647
lpf:_NetworkManager_set_matchHost_m1475900461
vCf:_Activator_CreateInstance_m94526014
xmo:_vfprintf
Nyc:__ZN10GUIManager12AddGUIScriptER8ListNodeI13MonoBehaviourE
WPj:_NumberFormatInfo_get_PositiveInfinitySymbol_m1141345134
Fkn:__ZL25UnresolvedVirtualCall_136P12Il2CppObjectS0_iiS0_PK10MethodInfo
qQf:_Stack_Clear_m2010200235
E5a:__ZL13SortTexByNameRKNSt3__24pairIN9ShaderLab16FastPropertyNameEN18UnityPropertySheet11UnityTexEnvEEES7_
Mye:_cf2_getVStore
rcf:_PointerEventData_set_pointerPressRaycast_m1363193059
pUb:__ZN20DynamicPropertySheetD0Ev
Z0m:_TextEditor_OnLostFocus_m3728191196
zLg:_SafeHandle_Dispose_m4229010569
G4b:__ZN14SafeBinaryRead17RegisterConverterEPKcS1_PFbPvRS_E
dlk:__ZL77RuntimePlatform_t4159857903_CustomAttributesCacheGenerator_OSXDashboardPlayerP21CustomAttributesCache
kba:__ZN35RegisterRuntimeInitializeAndCleanup8RegisterEPFvPvES2_iS0_
SHd:__ZNK5physx19NpRigidBodyTemplateINS_14PxRigidDynamicEE17getRigidBodyFlagsEv
mxh:_FieldBuilder_SetValue_m828035213
$Al:_Array_InternalArray__Insert_TisSingle_t1397266774_m3161726127_gshared
Psm:_ReadOnlyCollection_1_System_Collections_IList_get_IsFixedSize_m733459177_gshared
jTc:__ZN4PPtrI17PhysicsMaterial2DE8TransferI18StreamedBinaryReadILb0EEEEvRT_
eym:__ZN28GenericInterfaceFuncInvoker0IfE6InvokeEPK10MethodInfoP12Il2CppObject
t1a:__ZN20SphericalHarmonicsL215AddAmbientLightERK10ColorRGBAf
_Wj:__ZL72Enum_t4135868527_CustomAttributesCacheGenerator_Enum_ToObject_m121962870P21CustomAttributesCache
Xnf:_NetworkLobbyPlayer_OnEnable_m2930450288
XFl:__ZN23InterfaceActionInvoker2IP24ObjectU5BU5D_t2843939325iE6InvokeEjP11Il2CppClassP12Il2CppObjectS1_i
jZd:__ZN5physx25PxcSweepConvexHeightfieldERKNS_11PxsCCDShapeES2_PKNS_12PxsRigidBodyES5_RKNS_11PxTransformES8_S8_S8_fRNS_6PxVec3ESA_RNS_10PxcNpCacheERNS_18PxcNpThreadContextEf
juc:__Z21Object_CUSTOM_DestroyP12Il2CppObjectf
tlk:__ZL99SetupCoroutine_t2062820429_CustomAttributesCacheGenerator_SetupCoroutine_InvokeMoveNext_m3199342729P21CustomAttributesCache
fra:__ZN8Material26ResetAllCachedMaterialDataEP6Shader
ueg:__Z63RuntimeInvoker_Void_t1185182177_RuntimeObject_Int16_t2552820387PFvvEPK10MethodInfoPvPS4_
oHe:_UNITY_TT_Get_MM_Var
z2e:_ObjectManager_AddFixup_m2154325362
Inh:_Comparer_1__cctor_m3761458313_gshared
WKj:_DateTimeOffset_CompareTo_m1350732322_AdjustorThunk
ba:invoke_diddi
qPe:__ZNK2UI6Canvas13GetRenderModeEv
Vrj:_PersistentCall__ctor_m1217622171
Cwi:_Array_compare_TisCustomAttributeTypedArgument_t2723150157_m1384644047_gshared
foo:_unlink
XKh:_StrongName_get_TokenAlgorithm_m1794722022
uel:_ValueCollection_System_Collections_Generic_ICollectionU3CTValueU3E_get_IsReadOnly_m1399387270_gshared
q3i:_BinaryReader_ReadInt32_m2994982418
$tb:__Z18Transfer_BlittableI14SafeBinaryReadLb0EiEvRK29SerializationCommandArgumentsR31RuntimeSerializationCommandInfo
iJn:__ZN6il2cpp2vm13MetadataCache30GetPropertyDefinitionFromIndexEi
Mbn:_SymmetricTransform_Transform_m1683494363
WGd:__ZN5physx14NpRigidDynamic7releaseEv
bYe:__ZN22BaseUnityConnectClient17InitializeSessionERKN4core12basic_stringIcNS0_20StringStorageDefaultIcEEEES6_N19CloudServiceHandler13InitModeFlagsE
IZj:__ZL56KeyCollection_t4251528776_CustomAttributesCacheGeneratorP21CustomAttributesCache
clg:__Z74RuntimeInvoker_RuntimeObject_Int32_t2950945753_RuntimeObject_RuntimeObjectPFvvEPK10MethodInfoPvPS4_
yVd:__ZN5physx6shdfnd8PoolBaseINS_21PxsBodyTransformVault13PxsBody2WorldENS0_19ReflectionAllocatorIS3_EEE15disposeElementsEv
IZl:_List_1_get_Item_m200663048_gshared
LSg:_ReturnMessage_get_Exception_m3375728265
nyo:_emscripten_glDeleteBuffers__wrapper
N6k:__ZN21InterfaceFuncInvoker2I25KeyValuePair_2_t44296099725NetworkSceneId_t717048590P12Il2CppObjectE6InvokeEjP11Il2CppClassS3_S1_S3_
jug:__Z59RuntimeInvoker_Boolean_t97287965_KeyValuePair_2_t2164477162PFvvEPK10MethodInfoPvPS4_
Pmc:__ZN13MonoBehaviour34StopCoroutineFromEnumeratorManagedE18ScriptingObjectPtr
pKl:_List_1__ctor_m1345008423_gshared
mFe:_gray_raster_reset
com:_ReadOnlyCollection_1_System_Collections_Generic_IListU3CTU3E_RemoveAt_m1839875766_gshared
Kml:_Dictionary_2__ctor_m2754141298_gshared
EWf:__ZN30GenericInterfaceActionInvoker1IP25NetworkReader_t1574750186E6InvokeEPK10MethodInfoP12Il2CppObjectS1_
YSl:_List_1_set_Item_m1378137918_gshared
n3c:__ZN5physx2Gu30computeCapsule_TriangleMeshMTDERKNS_22PxTriangleMeshGeometryERKNS_11PxTransformERNS0_8CapsuleVEffbRNS_10PxSweepHitE
FJc:__ZN11UnityEngine9Analytics18SceneLoadTimeEvent12SetSceneLoadERKN4core12basic_stringIcNS2_20StringStorageDefaultIcEEEEiyyyy
omb:__ZN30RuntimeInitializeOnLoadManager8TransferI18StreamedBinaryReadILb0EEEEvRT_
gKj:_DateTimeOffset__ctor_m2084804982
Euf:_NetworkScene_RemoveLocalObjectAndDestroy_m2906213919
DDe:_UNITY_tt_face_load_pclt
Ntb:__ZN9profiling17ScriptingProfiler31UpdateRegisteredScriptingEventsEv
fmc:__ZL34GetComponentsImplementationRecurseILb1ELi0ELi2EEbR10GameObjectbRK17CompareParametersRK39GetComponentsImplementation_ReturnValue
lCl:_Array_InternalArray__set_Item_TisSlot_t3975888750_m3701794315_gshared
Afn:_UnityWebRequest_set_downloadHandler_m970510352
rSc:__ZN10ClipperLib7Clipper24InsertLocalMinimaIntoAELEx
QIa:__ZN20ComputeShaderVariantD2Ev
Buj:_Material_GetTexture_m3545614349
LMd:__ZThn8_N5physx2Sc19ShapeInstancePairLL10onActivateEj
MYm:_TextEditor_SelectCurrentParagraph_m1964167510
Jzh:_PropertyBuilder_get_CanWrite_m2657562188
eBk:__ZL105ChannelBuffer_t2335345901_CustomAttributesCacheGenerator_ChannelBuffer_set_numBufferedMsgsOut_m2439330621P21CustomAttributesCache
CHh:_ASN1_get_Length_m1923878580
F9h:_EqualityComparer_1__cctor_m4244842342_gshared
MTb:__ZNK6Camera18WorldToScreenPointERK8Vector3fPb
Oro:dynCall_viiiififii
q3d:__ZN5physx2Cm12DelegateTaskINS_10PxsContextEXadL_ZNS2_28mergeCMDiscreteUpdateResultsEPNS_10PxBaseTaskEEEE11runInternalEv
ARi:_ShimEnumerator__ctor_m3540476040_gshared
MCj:_SendMouseEvents_DoSendMouseEvents_m2140870850
oTe:__ZN14UnityAnalyticsD0Ev
_je:__ZN5physx19TriangleMeshBuilder10importMeshERKNS_18PxTriangleMeshDescERKNS_15PxCookingParamsEb
OHm:_PatternCompiler_EmitJump_m3915926156
IFa:__Z18IsCompressedFormat14GraphicsFormat
gPh:_U3CMouseDragOutsideRectU3Ec__Iterator1_System_Collections_IEnumerator_get_Current_m2275835089
Nw:__ZN7mecanim9animation19AdjustPoseForMotionERKNS0_14AvatarConstantERKNS0_14SkeletonTQSMapERKN4math4trsXERNS_10ValueArrayERNS_8skeleton13SkeletonPoseTIS8_EESG_
X2e:_SerializationEntry_get_Name_m1530029541_AdjustorThunk
byl:_Array_InternalArray__ICollection_Add_TisNetworkInstanceId_t786350175_m2717308469_gshared
PIa:__ZN13dynamic_arrayI20ComputeShaderVariantLj4EE9push_backERKS0_
AVk:__Z33il2cpp_codegen_check_add_overflowxx
d0:__ZNSt3__227__insertion_sort_incompleteIRPFbRKN18AwakeFromLoadQueue4ItemES4_EPS2_EEbT0_S9_T_
Xkg:__Z71RuntimeInvoker_Boolean_t97287965_AnimatorControllerPlayable_t1015767841PFvvEPK10MethodInfoPvPS4_
llk:__ZL73RuntimePlatform_t4159857903_CustomAttributesCacheGenerator_MetroPlayerARMP21CustomAttributesCache
U2i:_InvalidOperationException__ctor_m1685032583
hHn:__ZN14dense_hash_mapI10KeyWrapperIN6il2cpp5utils13dynamic_arrayIPK10Il2CppTypeLj4EEEEPFvvENS1_8metadata19Il2CppSignatureHashENS8_14EqualsComparerINSB_22Il2CppSignatureCompareEEENSt3__29allocatorINSG_4pairIKS8_SA_EEEEE15set_deleted_keyERSJ_
gWk:_TimeSpan_op_Subtraction_m3592306516
bdi:_EqualityComparer_1_System_Collections_IEqualityComparer_GetHashCode_m1517903420_gshared
Xzd:__ZN5physx6shdfnd5ArrayINS_18PxClothFabricPhaseENS0_19ReflectionAllocatorIS2_EEE8recreateEj
y9a:__ZN26EnlightenSystemInformation8TransferI14SafeBinaryReadEEvRT_
tlb:__ZN24GenerateTypeTreeTransfer8TransferINSt3__26vectorIN15ResourceManager10DependencyE13stl_allocatorIS4_L18MemLabelIdentifier52ELi16EEEEEEvRT_PKc17TransferMetaFlags
svn:_CanvasRenderer_SplitUIVertexStreams_m2753637362
Pqg:__Z119RuntimeInvoker_Void_t1185182177_RuntimeObject_Single_t1397266774_Single_t1397266774_SByte_t1669577662_Int32_t2950945753PFvvEPK10MethodInfoPvPS4_
uZe:__ZN11UnityEngine15PlatformWrapper20SetPlayerPrefsUInt64ERKN4core12basic_stringIcNS1_20StringStorageDefaultIcEEEEy
ngb:__ZN12MeshRendererD0Ev
HS:__ZN12AudioManager35GetCurrentSpatializerDefinitionNameEv
r1c:__ZN5physx2Gu16sweepBoxTriangleERKNS_10PxTriangleERKNS_9PxBounds3ERKNS_6PxVec3ES9_RS7_SA_Rf
iEj:_TouchScreenKeyboard_get_active_m4267591905
RAn:_CustomEventData_InternalDestroy_m2184675245
Ssi:_Array_InternalArray__ICollection_Remove_TisInt32_t2950945753_m1299950055_gshared
USn:__ZNK15dense_hashtableINSt3__24pairIK10KeyWrapperIPK14Il2CppAssemblyEPK22Il2CppMonoAssemblyNameEES6_N6il2cpp5utils11PointerHashIS4_EEN14dense_hash_mapIS6_SA_SF_NS6_14EqualsComparerINS0_8equal_toIS5_EEEENS0_9allocatorISB_EEE9SelectKeyESK_SM_E8min_sizeEjj
xi:_utime
Kke:__ZN5physx10writeChunkEaaaaRNS_14PxOutputStreamE
fKm:_BalancingGroup_Compile_m2575117193
FD:__Z28SetExposedSkeletonTransformsRKN7mecanim9animation14AvatarConstantERKN11UnityEngine9Animation30AnimatorGenericBindingConstantERKNS_8skeleton13SkeletonPoseTIN4math4trsXEEERKNSA_INSB_7affineXEEERNS5_21AvatarBindingConstantEy
TKn:__ZN6il2cpp6icalls8mscorlib6System8MonoType18IsGenericParameterEPK10Il2CppType
zVn:__ZNSt3__26vectorIN6il2cpp2vm17TypeNameParseInfoENS_9allocatorIS3_EEE8allocateEj
NOg:_Context_NotifyDynamicSinks_m1841702879
JGm:_Mark_get_Index_m3048692661_AdjustorThunk
YFg:__Z53RuntimeInvoker_PendingPlayer_t306375494_RuntimeObjectPFvvEPK10MethodInfoPvPS4_
pBm:_TlsServerSettings_get_CertificateRequest_m842655670
KDi:_Enumerator_Reset_m3834740865_gshared
lFn:__ZN15dense_hashtableI10KeyWrapperIPK17Il2CppGenericInstES4_N6il2cpp8metadata21Il2CppGenericInstHashEN14dense_hash_setIS4_S7_NS4_14EqualsComparerINS6_24Il2CppGenericInstCompareEEENSt3__29allocatorIS4_EEE8IdentityESB_SE_ED2Ev
eo:FUNCTION_TABLE_viiiiif
inh:_DefaultComparer_Compare_m3931992727_gshared
Xii:_KeyValuePair_2_get_Key_m2065642340_gshared
So:FUNCTION_TABLE_viiiiii
clh:_InternalEnumerator_1_System_Collections_IEnumerator_get_Current_m1847780851_AdjustorThunk
U3m:_MatchDirectConnectInfo_set_nodeId_m3830557121
Q$m:_GUILayoutUtility_get_spaceStyle_m3392862907
L0i:_Int32_System_IConvertible_ToType_m3009233912_AdjustorThunk
hKj:_DateTimeOffset__ctor_m74032857
Pqd:__ZN5physx2Sc9RigidCore13onShapeChangeERNS0_9ShapeCoreENS_7PxFlagsINS0_21ShapeChangeNotifyFlag4EnumEjEENS4_INS_11PxShapeFlag4EnumEhEE
fF:__ZN7mecanim9animation22DestroyAvatarWorkspaceEPNS0_15AvatarWorkspaceERNS_6memory9AllocatorE
i9l:_Collection_1_set_Item_m189224725_gshared
sNg:_ConfigHandler_ParseElement_m3124222564
$Wk:_Type_type_is_assignable_from_m76737532
ctn:_PlayerController_CmdLayManyBlocks_m2430807183
$Rh:_MaskableGraphic_ParentMaskStateChanged_m1092090553
uEd:__ZN5physx6shdfnd5ArrayIPvNS0_15InlineAllocatorILj256ENS0_19ReflectionAllocatorINS_2Sc19ParticlePacketShapeEEEEEE15growAndPushBackERKS2_
P$d:__ZN5physx17solveContactBlockEPKNS_23PxcSolverConstraintDescEjRNS_16PxcSolverContextE
Tke:__ZN5physx6shdfnd10FoundationD2Ev
M_b:__ZN15LightmapSTCacheC2ER13BatchRendererR15RenderLoopStats
Twf:_ServerSimpleWrapper_OnConnected_m3563339729
b6a:__ZN14PlayableOutput17SetSourcePlayableEP8Playable
gmb:__ZNSt3__26vectorIN4core12basic_stringIcNS1_20StringStorageDefaultIcEEEE13stl_allocatorIS5_L18MemLabelIdentifier13ELi16EEE8__appendEj
Avj:_Mesh_Internal_Create_m2853543051
vE:__ZN7mecanim9animation29MotionOutputGetDeltaTransformEPKNS0_12MotionOutputE
zbk:__ZL64MissingFieldException_t1989070983_CustomAttributesCacheGeneratorP21CustomAttributesCache
EJc:__ZN27PerformanceReportingManager21OnSceneTimingCallbackERK15SceneLoadTimingRKN4core12basic_stringIcNS3_20StringStorageDefaultIcEEEE
SBm:_ValidationResult_get_ErrorCode_m1533688152
KDl:_Array_qsort_TisColor32_t2600501292_TisColor32_t2600501292_m123239180_gshared
xtc:__Z43Transform_CUSTOM_INTERNAL_get_localRotationP12Il2CppObjectP11Quaternionf
WVd:__ZN5physx2Sc10NPhaseCoreD2Ev
Bed:__ZN5physx2Sc7BodySim18onConstraintDetachEv
mho:__ZN6il2cpp6icalls8mscorlib6System10Reflection4Emit13ModuleBuilder13RegisterTokenEP29Il2CppReflectionModuleBuilderP12Il2CppObjecti
_cg:__Z50RuntimeInvoker_Int64_t3736567304_SByte_t1669577662PFvvEPK10MethodInfoPvPS4_
A$g:_X509Certificate2_GetValueAsString_m1348462142
frk:__ZL87GUIStyle_t3956901511_CustomAttributesCacheGenerator_GUIStyle_SetDefaultFont_m1581452579P21CustomAttributesCache
GNn:__ZN6il2cpp2os4File9SetLengthEPNS0_10FileHandleExPi
vdc:__ZZL23RegisterLightPropertiesR22GenericPropertyBindingEN20Wrapper_LightColorr013SetFloatValueEPvf
a2e:_ObjectReader_ReadObjectGraph_m340866276
ZUi:_Transform_1_EndInvoke_m2716226219_gshared
$7m:_NetworkWriter_Write_m2410084080
X4h:_Context_get_LastHandshakeMsg_m2730646725
bj:_emscripten_glGetTexParameteriv
tOd:__ZN5physx7NpScene8simulateEfPNS_10PxBaseTaskEPvjb
Qxo:_glGenTextures__wrapper
_Md:__ZThn8_N5physx2Sc24ElementInteractionMarker10onActivateEj
zRk:_UnicodeEncoding_GetHashCode_m354003420
Zla:__ZN9ShaderLab20SerializedSubProgram14ConstantBufferaSERKS1_
hzk:__ZL106MatchInfoSnapshot_t3166422189_CustomAttributesCacheGenerator_MatchInfoSnapshot_set_currentSize_m3677953324P21CustomAttributesCache
_8b:__Z13RegisterClassI4MeshEvv
ppk:__ZL74SharedBetweenAnimatorsAttribute_t2857104338_CustomAttributesCacheGeneratorP21CustomAttributesCache
aRj:_Enum_Equals_m3617313991
_ig:__Z98RuntimeInvoker_Boolean_t97287965_PlayableOutputHandle_t4208053793_PlayableOutputHandle_t4208053793PFvvEPK10MethodInfoPvPS4_
Itg:__Z74RuntimeInvoker_Boolean_t97287965_LineTypeU26_t2430394419_Int32_t2950945753PFvvEPK10MethodInfoPvPS4_
z3a:__ZN8PlayableD0Ev
rh:emscriptenWebGLGetBufferBinding
J3g:_ThreadSafeDictionaryValueFactory_2__ctor_m3167580739_gshared
VK:__ZN12AudioManager8TransferI19StreamedBinaryWriteILb0EEEEvRT_
xjf:_Dropdown_Hide_m504034854
$un:_CanvasGroup_IsRaycastLocationValid_m2128397950
uXh:_Slider_UpdateCachedReferences_m3259451627
vll:_Dictionary_2_CopyTo_m2239083910_gshared
ndk:__ZL63X509ChainStatusFlags_t1026973125_CustomAttributesCacheGeneratorP21CustomAttributesCache
Pcg:__Z50RuntimeInvoker_Double_t594665363_Double_t594665363PFvvEPK10MethodInfoPvPS4_
wbg:__Z60RuntimeInvoker_Void_t1185182177_StreamingContext_t3711869237PFvvEPK10MethodInfoPvPS4_
XFb:__ZN18StreamedBinaryReadILb1EE21TransferSTLStyleArrayI13dynamic_arrayI11ColorRGBA32Lj4EEEEvRT_17TransferMetaFlags
lDk:__ZL71NetworkManager_t468665779_CustomAttributesCacheGenerator_m_GlobalConfigP21CustomAttributesCache
eCg:__Z40RuntimeInvoker_PeerInfoPlayer_t607460057PFvvEPK10MethodInfoPvPS4_
Ujf:_U3CShowU3Ec__AnonStorey1_U3CU3Em__0_m2340880019
HWh:_Selectable_OnSetProperty_m1693943217
hFl:_List_1_GetIndex_m2300811709_gshared
xcc:__ZNK32RendererMaterialAnimationBinding12GetPPtrValueERKN11UnityEngine9Animation10BoundCurveE
aHb:__Z18Transfer_BlittableI18StreamedBinaryReadILb0EELb0E8Vector2fEvRK29SerializationCommandArgumentsR31RuntimeSerializationCommandInfo
Dnd:__ZN5physx18NpArticulationLink10clearForceENS_11PxForceMode4EnumE
mmj:_ASCIIEncoding_GetString_m58523364
a_c:__ZN5physx2Gu30distanceSegmentTriangleSquaredERKNS_6PxVec3ES3_S3_S3_S3_PfS4_S4_
FQe:__ZN2UI11CanvasGroup12CleanupClassEv
jel:_ValueCollection_CopyTo_m731455634_gshared
BRl:_List_1_AsReadOnly_m736922286_gshared
eGl:_List_1_GetIndex_m2832472557_gshared
Drb:__ZN22LocalFileSystemHandler9MakeLocalER13FileEntryDatab
Hco:__ZN6il2cpp2vm8Profiler10AllocationEP12Il2CppObjectP11Il2CppClass
GLm:_Uri_IsHexEncoding_m3290929897
lJk:__ZL61Graphic_t1660335611_CustomAttributesCacheGenerator_m_MaterialP21CustomAttributesCache
LLe:__ZNSt3__23mapIN20TextRenderingPrivate7FontRefENS1_6OSFontENS_4lessIS2_EENS_9allocatorINS_4pairIKS2_S3_EEEEEixERS8_
cRi:_ShimEnumerator_get_Value_m153531060_gshared
mja:__Z13FormatOrderedPKcz
CMn:__ZN6il2cpp2vm8basepathEPKc
Zxd:__ZNK5physx15NpActorTemplateINS_7PxClothEE12getAggregateEv
fXh:_Selectable_IsPressed_m907486548
jJe:__ZN14SafeBinaryRead21TransferSTLStyleArrayI10vector_mapINSt3__24pairIttEEfN20TextRenderingPrivate8FontImpl14KerningCompareENS2_9allocatorINS3_IS4_fEEEEEEEvRT_17TransferMetaFlags
r4h:_TlsServerFinished__ctor_m1445633918
RUa:__ZN13dynamic_arrayI17SortingLayerEntryLj4EE6insertEPS0_jRKS0_
mlk:__ZL68RuntimePlatform_t4159857903_CustomAttributesCacheGenerator_WP8PlayerP21CustomAttributesCache
AJh:_PKCS1_RSASP1_m3912327535
x_b:__ZN25DeferredRenderLoopScratchD0Ev
Qy:__ZN27AnimationLayerMixerPlayable14SetInputWeightEif
Wbf:_PhysicsRaycaster_Raycast_m776323695
IFj:_UnityException__ctor_m1456865679
ow:__ZN7mecanim9animation17EvaluateHumanPoseERKNS0_18ClipMuscleConstantERKNS0_15ClipMuscleInputEPKfRKNS0_12MotionOutputERNS_5human9HumanPoseE
CJh:_PKCS1_Encrypt_v15_m1016948107
oYd:__ZNK5physx2Cm12DelegateTaskINS_13PxsCCDContextEXadL_ZNS2_14postCCDAdvanceEPNS_10PxBaseTaskEEEE7getNameEv
B$e:__ZN21DownloadHandlerBufferD0Ev
OGk:__ZL92PointerEventData_t3807901092_CustomAttributesCacheGenerator_U3CscrollDeltaU3Ek__BackingFieldP21CustomAttributesCache
hla:__ZN15dense_hashtableINSt3__24pairIKiN4core17string_with_labelILi1EEEEEi18SInt32HashFunctionN14dense_hash_mapIiS5_S7_NS0_8equal_toIiEE13stl_allocatorIS6_L18MemLabelIdentifier1ELi16EEE9SelectKeyESA_SD_E9copy_fromERKSG_j
cuh:_CustomAttributeNamedArgument_GetHashCode_m2317130892
Qkb:__ZN15ResourceManagerD0Ev
D9h:_EqualityComparer_1_get_Default_m990790318_gshared
eyl:_Array_InternalArray__ICollection_Add_TisPendingPlayerInfo_t2391300657_m3395921479_gshared
lTh:_GetRayIntersectionAllCallback__ctor_m391992746
t7:__ZN22CreateGpuProgramOutputD2Ev
jyg:__Z76RuntimeInvoker_Void_t1185182177_Int32_t2950945753_KeyValuePair_2_t4237331251PFvvEPK10MethodInfoPvPS4_
ZAi:_Enumerator_VerifyState_m1270468077_AdjustorThunk
jrk:__ZL91GUIStyle_t3956901511_CustomAttributesCacheGenerator_GUIStyle_Internal_CalcHeight_m446125850P21CustomAttributesCache
h7c:__ZNK5physx3Cct15ObstacleContext14getNbObstaclesEv
ayn:_ControllerColliderHit_t240592346_marshal_pinvoke_cleanup
tCb:__Z18Transfer_BlittableI19StreamedBinaryWriteILb0EELb1EsEvRK29SerializationCommandArgumentsR31RuntimeSerializationCommandInfo
W5j:__ZL67RSACryptoServiceProvider_t2683512874_CustomAttributesCacheGeneratorP21CustomAttributesCache
Jhk:__ZL80Input_t1431474628_CustomAttributesCacheGenerator_Input_GetKeyDownInt_m3509480073P21CustomAttributesCache
I5j:__ZL52HMACSHA512_t923916539_CustomAttributesCacheGeneratorP21CustomAttributesCache
Lhe:__ZN5physx6shdfnd8PoolBaseINS_11NpAggregateENS0_19ReflectionAllocatorIS2_EEE12allocateSlabEv
FGd:__ZN5physx16NpParticleSystem23setParticleReadDataFlagENS_22PxParticleReadDataFlag4EnumEb
zBj:__ZN23InterfaceActionInvoker1IP25RectTransform_t3704657025E6InvokeEjP11Il2CppClassP12Il2CppObjectS1_
Ddj:_SHA1CryptoServiceProvider_Finalize_m1793183797
Lak:__ZL78Convert_t2465617642_CustomAttributesCacheGenerator_Convert_ToUInt64_m409548990P21CustomAttributesCache
agi:_HashSet_1_System_Collections_Generic_ICollectionU3CTU3E_CopyTo_m408073502_gshared
oFd:__ZN5physx7NpScene26removeFromParticleBaseListERNS_14PxParticleBaseE
cFd:__ZN5physx23NpParticleFluidReadData18getDataAccessFlagsEv
Oqb:__ZN12HandlerChain4OpenER13FileEntryData14FilePermission16FileAutoBehavior
hqm:_ReadOnlyCollection_1_get_Count_m2508031278_gshared
kzg:__Z72RuntimeInvoker_Void_t1185182177_Int32_t2950945753_RaycastHit_t1056001966PFvvEPK10MethodInfoPvPS4_
kak:__ZL79Convert_t2465617642_CustomAttributesCacheGenerator_Convert_ToUInt16_m1147931813P21CustomAttributesCache
LPn:__ZN15dense_hashtableINSt3__24pairIK10KeyWrapperINS1_IPK10MethodInfoP11Il2CppClassEEEjEES9_17ReflectionMapHashIS8_EN14dense_hash_mapIS9_jSD_NS9_14EqualsComparerINS0_8equal_toIS8_EEEENS0_9allocatorISB_EEE9SelectKeyESI_SK_E6insertERKSB_
QJc:__ZN27PerformanceReportingManager29OnSceneLoadedAfterAwakeStaticEPS_iR18AwakeFromLoadQueueN19RuntimeSceneManager11LoadingModeE
ASk:_UTF8Encoding_GetCharCount_m2272165989
mEf:_Array_SetValue_m394135409
_3:__ZN14FileCacherReadD2Ev
Pnb:__ZN13RendererScene23UpdatePreviousFrameDataEii
hlj:_String_Remove_m562998446
Poc:__Z50Register_UnityEngine_CullingGroup_FinalizerFailurev
J7j:__ZL94UTF32Encoding_t312252005_CustomAttributesCacheGenerator_UTF32Encoding_GetByteCount_m3787179419P21CustomAttributesCache
_dn:_Mesh_GetAllocArrayFromChannel_TisVector2_t2156229523_m1057679375_gshared
qgj:_SecurityPermission_IsSubsetOf_m545000671
xob:__ZN27UnloadUnusedAssetsOperationD0Ev
nXg:_IPHostEntry_get_AddressList_m1351062776
Hz:__ZN26AnimatorControllerPlayable6MemoryD2Ev
Gbl:_ValueCollection_GetEnumerator_m2285915342_gshared
ipo:__ZNKSt3__221__basic_string_commonILb1EE20__throw_out_of_rangeEv
OYd:__ZN5physx10PxsCCDPair12updateShapesEv
R7f:__Z78RuntimeInvoker_Boolean_t97287965_RuntimeObject_RuntimeObject_Int32_t2950945753PFvvEPK10MethodInfoPvPS4_
jfl:_ValueCollection_System_Collections_ICollection_get_IsSynchronized_m4110646650_gshared
wMn:_UpdatedEventHandler_Invoke_m1320302085
J2n:__ZNK15dense_hashtableINSt3__24pairIK10KeyWrapperIP14Il2CppIUnknownEjEES5_N6il2cpp5utils11PointerHashIS3_EEN14dense_hash_mapIS5_jSB_NS5_14EqualsComparerINS0_8equal_toIS4_EEEENS0_9allocatorIS7_EEE9SelectKeyESG_SI_E12test_deletedERK24dense_hashtable_iteratorIS7_S5_SB_SK_SG_SI_E
ISi:_Transform_1_EndInvoke_m4049882828_gshared
II:__ZN9AudioClip23VirtualRedirectTransferER18StreamedBinaryReadILb0EE
hZl:_List_1_AddEnumerable_m2724989594_gshared
lpa:__ZNSt3__26vectorIPN9ShaderLab9SubShaderENS_9allocatorIS3_EEE21__push_back_slow_pathIKS3_EEvRT_
k_l:_List_1_Contains_m2043463915_gshared
Qlh:_ArraySegment_1_get_Array_m2601536033_AdjustorThunk
dBd:__ZN5physx2Sc9ClothCore22removeCollisionCapsuleEj
jng:__Z82RuntimeInvoker_Vector2_t2156229523_Vector2_t2156229523_RuntimeObject_RuntimeObjectPFvvEPK10MethodInfoPvPS4_
qKa:__ZN18GlslGpuProgramGLESC2ERK13dynamic_arrayIhLj1EER22CreateGpuProgramOutput
Avc:__Z70Register_UnityEngine_Playables_PlayableHandle_GetPlayableType_Injectedv
zOb:__ZNK4PPtrI23ShaderVariantCollectionEcvPS0_Ev
Jfd:__ZN5physx16PxsIslandManager25setArticulationLinkHandleEjPvRKNS_20PxsIslandManagerHookIjLj4294967295EEE
Fk:_glCopyTexSubImage2D
Fcc:__ZNK24RendererAnimationBinding13GetFloatValueERKN11UnityEngine9Animation10BoundCurveE
fxf:_NetworkServerSimple_OnDisconnectError_m2106971590
NW:__ZNK15DownloadHandler14HasPendingDataEv
_Xg:_HttpWebRequest_get_Address_m1609525404
OFj:_UnitySynchronizationContext_ExecuteTasks_m1310741010
jcj:_RIPEMD160Managed_CompressFinal_m497690796
W3b:__ZN18ScreenManagerWebGL13SetShowCursorEb
A8g:_InternalEnumerator_1_MoveNext_m1773160976_gshared
SPb:__ZN13DrawImmediateC2ER9GfxDevice
Imo:_frexp
vHi:_Enumerator_MoveNext_m3999169126_AdjustorThunk
IQe:__ZN2UI13CanvasManager14GetRenderOrderEPKNS_6CanvasE
ypd:__ZN5physx6shdfnd5ArrayIPNS_3Scb5ShapeENS0_15InlineAllocatorILj16ENS0_19ReflectionAllocatorIS4_EEEEE15growAndPushBackERKS4_
Mub:__Z18Transfer_BlittableI14SafeBinaryReadLb0E5RectTIfEEvRK29SerializationCommandArgumentsR31RuntimeSerializationCommandInfo
Arh:_NumberFormatter_NumberToString_m2562899600
GEd:__ZNK5physx2Sc18ParticleSystemCore15getParticleMassEv
Tej:_SymmetricAlgorithm_get_FeedbackSize_m3666584308
oCe:_otv_u_C_x_Ox
nCk:__ZL102NetworkBehaviour_t204670959_CustomAttributesCacheGenerator_NetworkBehaviour_PreStartClient_m1890526580P21CustomAttributesCache
fxa:__ZN14GfxContextGLES14GetFramebufferEv
s1f:_NetworkIdentity_HandleCommand_m2700597151
w$k:_Version_Clone_m1749041863
pRi:_ShimEnumerator_get_Key_m4155849607_gshared
QBa:__ZN6prcoreL21CreateRemapAnyBlitterE13TextureFormatS0_
f1h:_RSAManaged_ExportParameters_m1754454264
Fjc:__ZN17AnimationCurveTplIfE16StripInvalidKeysEv
nHf:_Boolean_Equals_m535526264_AdjustorThunk
cDg:__Z71RuntimeInvoker_KeyValuePair_2_t71524366_Int32_t2950945753_RuntimeObjectPFvvEPK10MethodInfoPvPS4_
_Eg:__Z37RuntimeInvoker_Enumerator_t4294438901PFvvEPK10MethodInfoPvPS4_
IXl:_List_1_TrimExcess_m3801445587_gshared
xPe:__ZNK2UI6Canvas17GetSortingLayerIDEv
_Gf:_Convert_ToUInt16_m3116648921
KWj:__ZL40UIntPtr_t_CustomAttributesCacheGeneratorP21CustomAttributesCache
sQc:__ZN14Raycast2DQuery8RunQueryEb
Q8b:__Z13RegisterClassI17GlobalGameManagerEvv
jzk:__ZL110MatchInfoSnapshot_t3166422189_CustomAttributesCacheGenerator_MatchInfoSnapshot_set_matchAttributes_m1462812445P21CustomAttributesCache
l9:__ZN8Renderer24SetupNewRendererForSceneEv
WWk:_Type_internal_from_name_m1721940673
PXn:_il2cpp_type_get_class_or_element_class
U1k:_Array_swap_TisCustomAttributeTypedArgument_t2723150157_TisCustomAttributeTypedArgument_t2723150157_m365781156_gshared
aI:__Z42Register_UnityEngine_Animator_GetIntegerIDv
nRg:_RemotingServices_GetMethodBaseFromName_m3194612939
MGc:__Z35Transfer_Blittable_FixedBufferFieldI8JSONReadtEvRK29SerializationCommandArgumentsR31RuntimeSerializationCommandInfo
VWa:__ZN4PPtrI7TextureE8TransferI14SafeBinaryReadEEvRT_
k8d:__ZN5physx2Sc8ClothSim16addCollisionMeshEPKNS0_8ShapeSimE
cgc:__ZN14PlayableOutput6HandleEv
vbb:__ZNK6Sprite22GetTypeVirtualInternalEv
rii:_KeyValuePair_2__ctor_m1349300138_gshared
m0e:__ZN13RuntimeStaticINSt3__26vectorI23UnityVRDeviceDefinition13stl_allocatorIS2_L18MemLabelIdentifier90ELi16EEEELb0EE13StaticDestroyEPv
Mo:FUNCTION_TABLE_iiiiiiiiiiiiii
mde:__ZN5physx6shdfnd5ArrayIPKNS_10PxsCCDBodyENS0_19ReflectionAllocatorIS4_EEE8recreateEj
TXf:_NetBuffer_WriteByte_m3822302387
spd:__ZN5physx6shdfnd4sortINS_2Cm19PreallocatingRegionENS0_4LessIS3_EENS0_19ReflectionAllocatorIS3_EEEEvPT_jRKT0_RKT1_j
TZe:__ZN19UnityConnectService18OnPlayerQuitStaticEPS_
rTk:_SynchronizationLockException__ctor_m3407855920
U$a:__ZN11Tetrahedron8TransferI24GenerateTypeTreeTransferEEvRT_
fDe:_UNITY_tt_get_cmap_info
PJl:__ZN21InterfaceFuncInvoker0IjE6InvokeEjP11Il2CppClassP12Il2CppObject
A8h:_SslClientStream_RaiseServerCertificateValidation_m3477149273
yBb:__Z29Transfer_Blittable_ArrayFieldI24GenerateTypeTreeTransfer5RectTIiEEvRT_R9ArrayInfoRK23StaticTransferFieldInfo
C0a:__ZN16ReflectionProbes8ScheduleEN18ReflectionProbeJob7JobTypeEP15ReflectionProbei
o0l:_Enumerator_System_Collections_IEnumerator_get_Current_m3791311628_gshared
v4h:_ClientSessionInfo_KeepAlive_m1020179566
HPe:__ZN13dynamic_arrayIN2UI13UIInstructionELj4EE12emplace_backEv
B_l:_List_1_ToArray_m4056539300_gshared
G_j:__ZL51Calendar_t1661121569_CustomAttributesCacheGeneratorP21CustomAttributesCache
nPa:__Z18IsDirectoryCreatedRKN4core12basic_stringIcNS_20StringStorageDefaultIcEEEE
Owf:_NetworkServer_SendNetworkInfo_m4211955766
dgj:_String_FormatHelper_m3913915042
dEk:__ZL84NetworkTransformChild_t2600331682_CustomAttributesCacheGenerator_m_MovementThresholdP21CustomAttributesCache
iPi:_KeyCollection_System_Collections_IEnumerable_GetEnumerator_m3420333055_gshared
OHd:__ZN5physx19NpRigidBodyTemplateINS_14PxRigidDynamicEE20setRigidDynamicFlagsENS_7PxFlagsINS_15PxRigidBodyFlag4EnumEhEE
zti:_Array_InternalArray__ICollection_Remove_TisNetworkInstanceId_t786350175_m3185165076_gshared
wOe:__ZN2UI13CanvasManagerD2Ev
Jth:_ConstructorInfo__cctor_m1016079270
sEn:__ZN15dense_hashtableINSt3__24pairIK10KeyWrapperIPKcEP11Il2CppClassEES5_N6il2cpp5utils11StringUtils12StringHasherIS4_EEN14dense_hash_mapIS5_S8_SE_NS5_14EqualsComparerINSB_13VmStringUtils21CaseSensitiveComparerEEENS0_9allocatorIS9_EEE9SelectKeyESJ_SL_E15set_deleted_keyERKS9_
Rqg:__Z38RuntimeInvoker_ContentType_t1787303396PFvvEPK10MethodInfoPvPS4_
pim:_ReadOnlyCollection_1_Contains_m1700717617_gshared
hCf:_AttrListImpl_get_Names_m977594476
M4j:__ZL53IFormatter_t3549834567_CustomAttributesCacheGeneratorP21CustomAttributesCache
mLe:_UNITY_FT_GlyphLoader_Done
I8l:_Collection_1_System_Collections_IList_Add_m76237976_gshared
Yqk:__ZL89GUIStyle_t3956901511_CustomAttributesCacheGenerator_GUIStyle_get_stretchWidth_m3556443132P21CustomAttributesCache
zne:__ZN19CharacterController12SetIsTriggerEb
xGd:__ZN5physx22NpParticleBaseTemplateINS_16PxParticleSystemENS_16NpParticleSystemEE20setMaxMotionDistanceEf
MQc:__ZN19OverlapPointQuery2D14InitializeAABBER6b2AABB
WOj:_StackTrace_get_FrameCount_m344690939
elm:_ReadOnlyCollection_1_CopyTo_m2330334359_gshared
j5i:_FileStream_BeginRead_m2419864669
q9i:_UnexceptionalStreamWriter_Write_m363195622
w0d:__ZN5physx18ComputeSortedListsEPNS_2Cm10BitMapBaseINS_6shdfnd9AllocatorEEEjjPKjPPNS_8SapBox1DES7_PjSB_jRKNS_2Gu4AxesESB_RjSB_SG_RbSH_
k0b:__ZNK21IntermediateRenderers16GetBoundingBoxesEv
JLe:__ZN20TextRenderingPrivate25ReadFontFileAndAddToCacheERKN4core12basic_stringIcNS0_20StringStorageDefaultIcEEEE
gEe:_tt_cmap14_char_var_index
jIi:_Enumerator_System_Collections_IEnumerator_Reset_m2948583205_gshared
_Hb:__Z35Transfer_Blittable_FixedBufferFieldI18StreamedBinaryReadILb0EEdEvRK29SerializationCommandArgumentsR31RuntimeSerializationCommandInfo
Gzn:_Physics2D_Raycast_m1700114981
SNh:_Selectable_OnPointerDown_m1086067264
rIe:_psh_globals_new
mjf:_Dropdown_SetupTemplate_m628218778
TSk:_Thread_GetCompressedStack_m2923422412
wCj:_SceneManager_add_sceneLoaded_m3678832055
U1h:__ZN28GenericInterfaceFuncInvoker2IbP26X509Certificate_t713131622P22Int32U5BU5D_t385246372E6InvokeEPK10MethodInfoP12Il2CppObjectS1_S3_
Zpk:__ZL99AudioSource_t3935305588_CustomAttributesCacheGenerator_AudioSource_t3935305588____clip_PropertyInfoP21CustomAttributesCache
dMf:_SynchronizedArrayListWrapper_CopyTo_m4207791406
z_g:_X509BasicConstraintsExtension_ToString_m1809935297
Era:__ZN9GfxDevice20SetMaxBufferedFramesEi
nWm:_TweenRunner_1_StartTween_m1055628540_gshared
BKc:__ZN10Collider2D19WakeAllBodyContactsEv
w5k:_GameObject_GetComponents_TisRuntimeObject_m1246177135_gshared
HN:__ZN24AudioScriptBufferManagerD2Ev
LBn:__ZNSt3__218uninitialized_fillIPNS_4pairIK10KeyWrapperIPK22Il2CppGenericParameterEP11Il2CppClassEESA_EEvT_SC_RKT0_
w7g:_InternalEnumerator_1_get_Current_m3491102831_AdjustorThunk
baj:_MethodAccessException__ctor_m3542088436
$5b:__Z23ConvertIntegerToTypePtrIsEbPvR14SafeBinaryRead
xYl:_List_1_Insert_m2958195960_gshared
LMc:__ZN12b2MouseJoint11ShiftOriginERK6b2Vec2
Hkd:__ZNK5physx14NpArticulation17releaseDriveCacheERNS_24PxArticulationDriveCacheE
vDn:__ZN6il2cpp2vm5Class12HasAttributeEP11Il2CppClassS3_
QKf:_ArrayListWrapper_get_Capacity_m51087796
xPh:_LayoutElement_get_minHeight_m4160507569
K8h:_EqualityComparer_1_System_Collections_IEqualityComparer_GetHashCode_m2230215241_gshared
sMk:__ZL60ContentSizeFitter_t3850442145_CustomAttributesCacheGeneratorP21CustomAttributesCache
lOf:_Hashtable_Contains_m2145146412
cfk:__ZL64UnmarshalledAttribute_t1517743549_CustomAttributesCacheGeneratorP21CustomAttributesCache
tic:__ZN4Mesh24UpdateSubMeshVertexRangeEi
GAd:__ZNK5physx2Sc9ClothCore25getSelfCollisionStiffnessEv
Fsj:_MaterialEffectPlayable_Equals_m3750885802
VNn:__ZNK15dense_hashtableINSt3__24pairIK10KeyWrapperINS1_IPK14Il2CppAssemblyP11Il2CppClassEEEjEES9_17ReflectionMapHashIS8_EN14dense_hash_mapIS9_jSD_NS9_14EqualsComparerINS0_8equal_toIS8_EEEENS0_9allocatorISB_EEE9SelectKeyESI_SK_E12test_deletedEj
Sjo:__ZN6il2cpp2os9FastMutex4LockEv
a0i:_Int32_FindCurrency_m3541026887
dGm:_Interval_CompareTo_m3282557545
Jzo:_pthread_cond_wait__wrapper
KZb:__ZNK14RenderSettings19GetFlatAmbientColorEv
qBa:__ZN6prcoreL10inner_flipILj4EEEvPhS1_j
yjb:__ZN18StreamedBinaryReadILb0EE21TransferSTLStyleArrayI10vector_mapIPKN5Unity4TypeE7Hash128NSt3__24lessIS6_EENS8_9allocatorINS8_4pairIS6_S7_EEEEEEEvRT_17TransferMetaFlags
NA:__ZNK27StateMachineBehaviourPlayer15IsSenderEnabledEv
VLk:__ZL58Text_t1901882714_CustomAttributesCacheGenerator_m_FontDataP21CustomAttributesCache
Jxh:_GenericTypeParameterBuilder_IsPrimitiveImpl_m1952010459
_jm:_ReadOnlyCollection_1_CopyTo_m3474153465_gshared
sen:_DownloadHandler_get_text_m2427232382
F8e:_RijndaelManagedTransform_TransformBlock_m1610137419
kBi:_Enumerator_System_Collections_IDictionaryEnumerator_get_Entry_m1355283127_gshared
Ztc:__Z40Register_UnityEngine_Transform_SetParentv
T6j:__ZL94WindowsIdentity_t2948242406_CustomAttributesCacheGenerator_WindowsIdentity_Dispose_m3466258450P21CustomAttributesCache
VBk:__ZL106DotNetCompatibility_t842745520_CustomAttributesCacheGenerator_DotNetCompatibility_GetErrorCode_m3544253606P21CustomAttributesCache
kdb:__ZN14Texture2DArray17UploadToGfxDeviceEv
n1m:_ConnectionConfig_get_PingTimeout_m2393238105
qXm:_Event_set_displayIndex_m1342258734
CM:__Z14FMODMemoryFreePvjPKc
Akk:__ZL100RectTransform_t3704657025_CustomAttributesCacheGenerator_RectTransform_INTERNAL_get_rect_m3130887130P21CustomAttributesCache
poi:_Enumerator__ctor_m2029608698_gshared
Orj:_NetFxCoreExtensions_GetMethodInfo_m444570327
NWk:_Type_get_IsSystemType_m624798880
PXb:__Z14SetSHConstantsR13BatchRendererR17ShaderPassContextRK20SphericalHarmonicsL2b
eFe:_tt_cmap0_validate
OIf:_Char_System_IConvertible_ToDecimal_m3534906463
rze:_cf2_glyphpath_moveTo
_7m:_NetworkWriter_Write_m3035096652
pSd:__ZN5physx3Scb4Body9syncStateEv
EGj:_Vector3_get_magnitude_m27958459_AdjustorThunk
grk:__ZL117GUIStyle_t3956901511_CustomAttributesCacheGenerator_GUIStyle_INTERNAL_CALL_Internal_GetCursorPixelPosition_m878150067P21CustomAttributesCache
aBk:__ZL99ChannelBuffer_t2335345901_CustomAttributesCacheGenerator_U3ClastBufferedPerSecondU3Ek__BackingFieldP21CustomAttributesCache
d3d:__ZN5physx20SingleAABBUpdateTaskD0Ev
vDj:_StackTraceUtility_SetProjectFolder_m830524047
Rod:__ZN5physx12PxsRigidBody23updatePoseDependenciesVERNS_10PxsContextE
ox:__ZN7mecanim23TransformValueArrayLoopEiiiRKN4math4trsXES3_RNS_10ValueArrayEf
K4h:_ClientSessionInfo_Finalize_m2165787049
Iyc:__ZN5IMGUI14GUIWindowStateD2Ev
H3h:_ClientContext_Clear_m1774063253
Jic:__ZN4Mesh17SetIndicesComplexEPKvjj16GfxPrimitiveTypeij
lhb:__Z32TransferEnumWithNameForceIntSizeI14SafeBinaryRead25ProceduralLoadingBehaviorEvRT_RT0_PKc17TransferMetaFlags
yJj:_DateTime_AddSeconds_m332574389_AdjustorThunk
vFj:_RequestAtlasCallback_Invoke_m378128467
xnm:_ReadOnlyCollection_1_System_Collections_Generic_ICollectionU3CTU3E_Clear_m2041187722_gshared
WHf:_Byte_System_IConvertible_ToSByte_m1869482168
Pjf:_U3CDelayedDestroyDropdownListU3Ec__Iterator0_MoveNext_m213723240
Scm:_Collection_1_ConvertItem_m2646988085_gshared
LNb:__Z21PlayerStartFirstSceneb
pql:_Dictionary_2__ctor_m3276778303_gshared
HD:__ZN7mecanim5human10RetargetToEPKNS0_5HumanEPKNS0_9HumanPoseES6_RKN4math4trsXEPS4_PNS_8skeleton13SkeletonPoseTIS8_EESF_
gx:__ZN7mecanim9animation8SeekClipERKNS0_12StreamedClipERNS0_18StreamedClipMemoryEf
bRm:__ZN25GenericVirtActionInvoker2IP12Il2CppObjectS1_E6InvokeEPK10MethodInfoS1_S1_S1_
Ysj:_GameObject_Internal_AddComponentWithType_m3797731663
rn:_emscripten_glIsTexture
aMi:_KeyCollection_System_Collections_Generic_IEnumerableU3CTKeyU3E_GetEnumerator_m2776449695_gshared
Vl:_emscripten_glHint
ecn:_Check_SourceAndPredicate_m2332465641
BUc:__ZZN10Collider2D15InitializeClassEvEN30FunctorImpl_98kDidAddComponent4CallEPviR11MessageData
Gkg:__Z67RuntimeInvoker_Boolean_t97287965_TextGenerationSettings_t1351628751PFvvEPK10MethodInfoPvPS4_
aHe:_ft_var_readpackeddeltas
q4i:_MonoIO_DeleteFile_m3839141322
lol:_Dictionary_2_Clear_m1938428402_gshared
Ssk:__ZL110Physics2D_t1528932956_CustomAttributesCacheGenerator_Physics2D_INTERNAL_CALL_GetRayIntersectionAll_m1016589977P21CustomAttributesCache
CEb:__Z35Transfer_Blittable_FixedBufferFieldI18StreamedBinaryReadILb1EEtEvRK29SerializationCommandArgumentsR31RuntimeSerializationCommandInfo
Gpn:__ZL25UnresolvedVirtualCall_407P12Il2CppObjecti20UIVertex_t4057497605PK10MethodInfo
tUm:_SyncList_1_InitializeBehaviour_m2467228305_gshared
fZk:_UInt32_System_IConvertible_ToInt64_m2261037378
un:_SDL_UpperBlit
Wce:__ZN5physx2Cm12DelegateTaskINS_2Sc5SceneEXadL_ZNS3_13ccdBroadPhaseEPNS_10PxBaseTaskEEEED0Ev
qpi:_List_1_System_Collections_IList_Add_m49923158_gshared
y0a:__Z35GetTextureDecodeValuesWithIntensity16TextureUsageMode17TextureColorSpace10ColorSpacef
k7k:_Transform_1_Invoke_m100259974_gshared
qsi:_Array_InternalArray__ICollection_Remove_TisChar_t3634460470_m4143749387_gshared
eQb:__ZN15dense_hashtableINSt3__24pairIK9TextureIDiEES2_14GfxGenericHashIS2_EN14GfxDoubleCacheIS2_iS6_NS0_8equal_toIS2_EEN31GfxDoubleCacheConcurrencyPolicy11LocklessGetE42GfxDoubleCacheDefaultEmptyDeletedGeneratorIS2_EE9SelectKeyES9_13stl_allocatorIS4_L18MemLabelIdentifier24ELi16EEE14squash_deletedEv
vwd:__ZNK5physx7NpShape16getContactOffsetEv
vQn:__ZNK15dense_hashtableINSt3__24pairIK10KeyWrapperINS1_IPK11Il2CppImageP11Il2CppClassEEEjEES9_17ReflectionMapHashIS8_EN14dense_hash_mapIS9_jSD_NS9_14EqualsComparerINS0_8equal_toIS8_EEEENS0_9allocatorISB_EEE9SelectKeyESI_SK_E12test_deletedEj
kRn:__ZN15dense_hashtableINSt3__24pairIK10KeyWrapperINS1_IPK12PropertyInfoP11Il2CppClassEEEjEES9_17ReflectionMapHashIS8_EN14dense_hash_mapIS9_jSD_NS9_14EqualsComparerINS0_8equal_toIS8_EEEENS0_9allocatorISB_EEE9SelectKeyESI_SK_ED2Ev
r2d:__ZN5physx14PxsAABBManager21processAggregatePairsEPKNS_19AggregateSortedDataE
GMc:__ZNK12b2MouseJoint10GetAnchorAEv
sEb:__Z18Transfer_BlittableI18StreamedBinaryReadILb1EELb0E9BoundsIntEvRK29SerializationCommandArgumentsR31RuntimeSerializationCommandInfo
SIj:_GregorianCalendar__ctor_m979779718
$7h:_SslClientStream__ctor_m2402546929
AKb:__ZN14SafeBinaryRead20OverrideRootTypeNameEPKc
vVg:_DictionaryNodeEnumerator_get_Entry_m2309234501
uBn:__ZNK10KeyWrapperIPK22Il2CppGenericParameterE14EqualsComparerINSt3__28equal_toIS2_EEEclERKS3_SA_
c4:__ZN14FileCacherRead16UnlockCacheBlockEj
gdj:_RSAPKCS1KeyExchangeFormatter__ctor_m1170240343
Oli:_Enumerator_Dispose_m951715887_AdjustorThunk
$sk:__ZL57ContactPoint2D_t3390240644_CustomAttributesCacheGeneratorP21CustomAttributesCache
J7n:__ZN6il2cpp2os10SocketImpl13GetHostByNameERKNSt3__212basic_stringIcNS2_11char_traitsIcEENS2_9allocatorIcEEEERS8_RNS2_6vectorIS8_NS6_IS8_EEEESF_
Rah:_InternalEnumerator_1_System_Collections_IEnumerator_Reset_m521819017_AdjustorThunk
lXm:_Event_set_character_m1015181207
Wgh:_InternalEnumerator_1__ctor_m1067015823_AdjustorThunk
u4i:_IsolatedStorageException__ctor_m1022659452
Nrd:__ZNK5physx12NpBatchQuery23getFilterShaderDataSizeEv
pca:__ZN10InstancingL21OnGraphicsCapsChangedEv
gyb:__Z18Transfer_BlittableI17RemapPPtrTransferLb1E8Vector3fEvRK29SerializationCommandArgumentsR31RuntimeSerializationCommandInfo
c2j:__ZL61ClassInterfaceType_t4029497327_CustomAttributesCacheGeneratorP21CustomAttributesCache
VUk:_WaitHandle_get_Handle_m3260446580
xoi:_Enumerator_VerifyState_m1745883925_AdjustorThunk
Ve:_emscripten_glUniform1f
wPf:_SortedList__ctor_m1261191695
cse:__ZN5physx7profile11EventBufferINS_24PxDefaultContextProviderENS_6shdfnd6MutexTINS0_26WrapperReflectionAllocatorIhEEEENS0_14ScopedLockImplIS7_EENS_24PxProfileNullEventFilterEE10doAddEventINS0_17RelativeStopEventEEEvhtRKT_
_5f:__Z75RuntimeInvoker_Int32_t2950945753_DecimalU26_t3714369516_Int64U26_t200113976PFvvEPK10MethodInfoPvPS4_
RLe:__Z20ParseImageParametersR11UTF16StringRiRN20TextRenderingPrivate16TextFormatChangeE
hMk:__ZL55CanvasScaler_t2767979955_CustomAttributesCacheGeneratorP21CustomAttributesCache
lgm:_Collection_1_RemoveItem_m2942561924_gshared
ZEg:__Z80RuntimeInvoker_Boolean_t97287965_NetworkSceneId_t717048590_ObjectU26_t2146539884PFvvEPK10MethodInfoPvPS4_
Ed:_emscripten_glUniform1i
Wzb:__Z18Transfer_BlittableI24GenerateTypeTreeTransferLb1EN4math12int3_storageEEvRK29SerializationCommandArgumentsR31RuntimeSerializationCommandInfo
$ba:__Z33UnregisterDeviceEventCallbackImplPFv23UnityGfxDeviceEventTypeE
Xbe:__ZN5physx2Sc19ShapeInstancePairLL23postIslandGenSecondPassEv
T5m:_NetworkTransport_get_IsStarted_m3614742619
Loe:__ZN14PhysicsManager23VirtualRedirectTransferER19StreamedBinaryWriteILb0EE
Wml:_Dictionary_2_System_Collections_Generic_ICollectionU3CSystem_Collections_Generic_KeyValuePairU3CTKeyU2CTValueU3EU3E_get_IsReadOnly_m3687097132_gshared
bna:__ZN9ShaderLab16SerializedTagMapaSERKS0_
Ayk:__ZL77MatchInfo_t221301733_CustomAttributesCacheGenerator_U3CportU3Ek__BackingFieldP21CustomAttributesCache
hV:__ZN11UnityEngine15CloudWebService16SessionContainer20RestoreSessionHeaderERKN4core12basic_stringIcNS2_20StringStorageDefaultIcEEEES8_RNS0_13SessionHeaderE
ite:__ZN5physx26PxPhysicsInsertionCallbackD2Ev
s$e:__ZN22UnityWebRequestManager13BackendRetainEv
Nkc:__ZN8Material28ApplyMaterialPropertyDrawersEv
FXd:__ZN5physx2Sq16BucketPrunerCore12updateObjectERKNS_9PxBounds3ERKNS0_13PrunerPayloadE
ibe:__ZN5physx18PxsDynamicsContext23atomIntegrationParallelEfPKPNS_11PxsBodyCoreEPKPNS_12PxsRigidBodyEjPKNS_2Cm13SpatialVectorEPNS_13PxcSolverBodyEPNS_17PxcSolverBodyDataEPSA_RjSI_RNS_10PxBaseTaskE
CEi:_Enumerator_Dispose_m1360775770_AdjustorThunk
$Bn:__ZN24dense_hashtable_iteratorINSt3__24pairIK10KeyWrapperIPK22Il2CppGenericParameterEP11Il2CppClassEES6_N6il2cpp5utils11PointerHashIS4_EEN14dense_hash_mapIS6_S9_SE_NS6_14EqualsComparerINS0_8equal_toIS5_EEEENS0_9allocatorISA_EEE9SelectKeyESJ_SL_E30advance_past_empty_and_deletedEv
VE:__ZN11UnityEngine9Animation27CreateAvatarBindingConstantER9TransformPKN7mecanim9animation14AvatarConstantERNS3_6memory9AllocatorE
BWg:_MonoTODOAttribute__ctor_m1298576268
z2l:_Collection_1_ClearItems_m1096166028_gshared
HRh:_MaskableGraphic_get_onCullStateChanged_m3331479633
eag:__Z151RuntimeInvoker_RuntimeObject_Int32_t2950945753_RuntimeObject_ObjectU5BU5DU26_t712384779_RuntimeObject_RuntimeObject_RuntimeObject_ObjectU26_t2146539884PFvvEPK10MethodInfoPvPS4_
bnc:__ZN9BlobWriteC2ER13dynamic_arrayIhLj16EE24TransferInstructionFlags19BuildTargetPlatform
egf:_CanvasUpdateRegistry__ctor_m2005397069
Lhk:__ZL77Input_t1431474628_CustomAttributesCacheGenerator_Input_GetAxisRaw_m2316819917P21CustomAttributesCache
s7k:__ZN28GenericInterfaceFuncInvoker2IP12Il2CppObjectyS1_E6InvokeEPK10MethodInfoS1_yS1_
q2:__ZN14MessageHandler3GetEv
wHg:_MonoMethodInfo_GetCallingConvention_m3156036493
Bza:__ZN10DynamicVBO9DrawChunkERK21DynamicVBOChunkHandle17ShaderChannelMaskS3_P17VertexDeclarationPKNS_10DrawParamsEi
FHm:_PatternCompiler_EmitBalanceStart_m3310909460
c5g:_InternalEnumerator_1__ctor_m1359891754_AdjustorThunk
lQh:_LayoutGroup_SetLayoutInputForAxis_m2458344630
Sd:_emscripten_glAttachShader
Dra:__ZN9GfxDevice13SetActiveTierE12GraphicsTier
Nnf:_Image__cctor_m1927508576
CTk:_SendOrPostCallback_EndInvoke_m2485163446
tna:__ZNSt3__26vectorIN4core12basic_stringIcNS1_20StringStorageDefaultIcEEEENS_9allocatorIS5_EEE6assignIPS5_EENS_9enable_ifIXaasr21__is_forward_iteratorIT_EE5valuesr16is_constructibleIS5_NS_15iterator_traitsISC_E9referenceEEE5valueEvE4typeESC_SC_
O4c:__ZN5physx2Gu19GetRaycastFuncTableEv
jfn:_UploadHandler_Dispose_m3057340132
LHj:_CurrentSystemTimeZone_GetDaylightChanges_m2394763749
sAk:__ZL90NetworkTransport_t1089479308_CustomAttributesCacheGenerator_U3CIsStartedU3Ek__BackingFieldP21CustomAttributesCache
BYg:_IPEndPoint_Equals_m306328693
glh:_InternalEnumerator_1_get_Current_m3331252162_AdjustorThunk
_Vj:__ZL76String_t_CustomAttributesCacheGenerator_String_Concat_m1809518182____values0P21CustomAttributesCache
tub:__Z18Transfer_BlittableI14SafeBinaryReadLb0E11QuaternionfEvRK29SerializationCommandArgumentsR31RuntimeSerializationCommandInfo
Pbe:__ZN5physx17EdgeChangeManager23cleanupBrokenEdgeEventsEPKNS_4EdgeE
IHb:__Z18Transfer_BlittableI18StreamedBinaryReadILb0EELb1E12PropertyNameEvRK29SerializationCommandArgumentsR31RuntimeSerializationCommandInfo
IZ:_tlsf_walk_heap
V9f:__Z49RuntimeInvoker_Void_t1185182177_OpCode_t123070264PFvvEPK10MethodInfoPvPS4_
whl:_Dictionary_2_System_Collections_Generic_ICollectionU3CSystem_Collections_Generic_KeyValuePairU3CTKeyU2CTValueU3EU3E_Add_m3401902714_gshared
zZn:__ZNK15dense_hashtableINSt3__24pairIK10KeyWrapperIP11Il2CppClassES4_EES5_N6il2cpp8metadata16SZArrayClassHashEN14dense_hash_mapIS5_S4_SA_NS5_14EqualsComparerINS9_19SZArrayClassCompareEEENS0_9allocatorIS7_EEE9SelectKeyESE_SG_E10test_emptyERK24dense_hashtable_iteratorIS7_S5_SA_SI_SE_SG_E
SMn:__ZN6il2cpp2vm7Runtime6InvokeEPK10MethodInfoPvPS5_PP15Il2CppException
Ajg:__Z69RuntimeInvoker_Void_t1185182177_Int32_t2950945753_HitInfo_t3229609740PFvvEPK10MethodInfoPvPS4_
Qok:__ZL59AnimatorClipInfo_t3156717155_CustomAttributesCacheGeneratorP21CustomAttributesCache
FTf:_Convert_ToUInt32_m3592050311
Gb:invoke_vif
eeg:__Z41RuntimeInvoker_DateTimeOffset_t3229287507PFvvEPK10MethodInfoPvPS4_
Hb:invoke_vid
Keh:_InternalEnumerator_1__ctor_m2202456613_AdjustorThunk
Apo:__ZNSt3__212basic_stringIcNS_11char_traitsIcEENS_9allocatorIcEEE6insertEjPKc
btn:_PlayerController_CallCmdLayManyBlocks_m3022511817
Jb:invoke_vii
lTb:__ZNK12ImageFilters8DoRenderER17ShaderPassContextP13RenderTextureS3_RKNSt3__26vectorI11ImageFilterNS4_9allocatorIS6_EEEE
IQd:__ZN5physx13NpVolumeCacheD2Ev
ZNa:__ZN12TLSAllocatorI14StackAllocatorE16ThreadInitializeEP13BaseAllocator
tbg:__Z82RuntimeInvoker_Boolean_t97287965_SByte_t1669577662_RuntimeObject_SByte_t1669577662PFvvEPK10MethodInfoPvPS4_
wkn:__ZL25UnresolvedVirtualCall_127P12Il2CppObjectPK10MethodInfo
$rl:_Dictionary_2_TryGetValue_m4065427106_gshared
csa:__ZN9GfxDevice32UpdateStereoViewProjectionMatrixE21MonoOrStereoscopicEye
SJl:_List_1_Clear_m1353968331_gshared
K8d:__ZThn8_N5physx2Sc35ParticleElementRbElementInteraction12onDeactivateEj
xjo:__Z27s_Il2CppCodegenRegistrationv
xRe:__Z41CanvasRenderer_CUSTOM_DisableRectClippingP12Il2CppObject
Vjl:_Dictionary_2__ctor_m1324730059_gshared
kbj:_MonoType_GetConstructorImpl_m441167626
B_d:__ZN5physx16PxsThreadContextC2EPNS_10PxsContextE
vif:_DefaultControls_CreateRawImage_m4219873755
B3l:_Collection_1_IsFixedSize_m3709118201_gshared
jSa:__ZN25SingleBlockMemoryFileDataD0Ev
eOa:__ZNSt3__26vectorI14ConstantStringNS_9allocatorIS1_EEE6assignINS_11__wrap_iterIPS1_EEEENS_9enable_ifIXaasr21__is_forward_iteratorIT_EE5valuesr16is_constructibleIS1_NS_15iterator_traitsISA_E9referenceEEE5valueEvE4typeESA_SA_
bFk:__ZL68TrackableField_t1772682203_CustomAttributesCacheGenerator_m_EnumTypeP21CustomAttributesCache
eXc:__ZN5physx3Cct10Controller4moveERNS0_11SweptVolumeERKNS_6PxVec3EffRKNS_19PxControllerFiltersEPKNS_17PxObstacleContextEb
cV:__ZN11UnityEngine15CloudWebService16SessionContainer21ConvertFromFolderTimeERKN4core12basic_stringIcNS2_20StringStorageDefaultIcEEEEPjPt
Y4e:_CodeAccessPermission_Equals_m1555575992
ewb:__ZNSt3__26vectorI8GUIStyle13stl_allocatorIS1_L18MemLabelIdentifier1ELi16EEE7reserveEj
Bkm:_ReadOnlyCollection_1_Contains_m3869904379_gshared
t$n:__ZN6il2cpp6icalls8mscorlib6System9Threading6Thread27GetSerializedCurrentCultureEP12Il2CppThread
xwi:__ZN21InterfaceFuncInvoker2IibbE6InvokeEjP11Il2CppClassP12Il2CppObjectbb
f5h:_Context_set_ReadSequenceNumber_m2154909392
A8e:_RijndaelTransform_SubByte_m3037693507
s7b:__Z31CalculateHierarchyTransformType23TransformAccessReadOnly
m9b:__Z13RegisterClassI11TimeManagerEvv
NIm:_ExpressionCollection_Add_m41125344
tM:__ZN4FMOD8ChannelI11setPositionEjj
wrh:_NumberFormatter_FastIntegerToString_m390846811
Ltj:_Input_INTERNAL_CALL_GetTouch_m3481893561
hHd:__ZN5physx15NpActorTemplateINS_14PxRigidDynamicEE17setDominanceGroupEh
Weo:_GC_set_fl_marks
phd:__ZN5physx6shdfnd8PoolBaseINS_2Sc12SimStateDataENS0_19ReflectionAllocatorIS3_EEE17releaseEmptySlabsEv
Vlb:__ZNSt3__26vectorIN30RuntimeInitializeOnLoadManager15ClassMethodInfoE13stl_allocatorIS2_L18MemLabelIdentifier13ELi16EEE7reserveEj
fsa:__ZN9GfxDevice17SetStereoViewportE15StereoscopicEyeRK5RectTIiE
Jia:__ZN17BaseObjectManager13StaticDestroyEPv
hdm:_Collection_1_System_Collections_IList_get_Item_m1975788979_gshared
Aul:_DefaultComparer_GetHashCode_m1018059730_gshared
dvn:_CanvasRenderer_INTERNAL_CALL_GetColor_m597074473
FKg:_ClassInterfaceAttribute__ctor_m637338123
lSk:_UTF7Decoder_GetChars_m3413809261
V_c:__ZN5physx2Gu22closestPtPointTriangleEPNS_6shdfnd3aos5Vec3VES4_S4_Rj
byi:_Array_InternalArray__IndexOf_TisKeyValuePair_2_t4237331251_m1795282647_gshared
Cik:__ZL81Shader_t4151988712_CustomAttributesCacheGenerator_Shader_PropertyToID_m1030499873P21CustomAttributesCache
gXj:__ZL70RuntimeArray_CustomAttributesCacheGenerator_Array_get_Rank_m3448755881P21CustomAttributesCache
krd:__ZN5physx2Cm8PtrTableC2Ev
a6i:_FileSystemInfo_get_FullName_m3468398407
JEj:_Vector3_get_forward_m3100859705
lL:__ZN4FMOD6Reverb13setPropertiesEPK22FMOD_REVERB_PROPERTIES
UCd:__ZNK5physx22NpParticleBaseTemplateINS_15PxParticleFluidENS_15NpParticleFluidEE14getRestitutionEv
YUb:__ZN9DepthPass13PrepareSubsetEjRK10RenderNodeifRK17ShaderReplaceData
L1d:__ZN5physx16PxsBroadPhaseMBP6updateEjjRKNS_23PxcBroadPhaseUpdateDataEPNS_10PxBaseTaskE
_ud:__ZN5physx9NpPhysics18createRigidDynamicERKNS_11PxTransformE
n6g:_InternalEnumerator_1_Dispose_m2598743888_AdjustorThunk
dcd:__ZN5physx6shdfnd5ArrayIPvNS0_19ReflectionAllocatorINS_2Sc18TriggerInteractionEEEE15growAndPushBackERKS2_
gma:__ZN9ShaderLab20SerializedSubProgram16TextureParameter8TransferI14SafeBinaryReadEEvRT_
f5f:__Z82RuntimeInvoker_Int32_t2950945753_RuntimeObject_Int32_t2950945753_Int32_t2950945753PFvvEPK10MethodInfoPvPS4_
Dtl:_Dictionary_2_get_Item_m1950799612_gshared
Slh:_ArraySegment_1_get_Count_m130702878_AdjustorThunk
v7g:_InternalEnumerator_1_MoveNext_m3068102084_AdjustorThunk
exk:__ZL111DropConnectionRequest_t2647317937_CustomAttributesCacheGenerator_DropConnectionRequest_set_networkId_m399344964P21CustomAttributesCache
AZm:_TextEditor_MoveGraphicalLineStart_m3220976677
w8m:_PlayerController_get_IsValid_m3565267537
Vic:__Z35SetMeshComponentFromArrayFromScriptR4Mesh30InternalScriptingShaderChannel34InternalScriptingVertexChannelTypei17ScriptingArrayPtri
xoa:__ZN4PPtrI6ShaderE8TransferI19StreamedBinaryWriteILb0EEEEvRT_
yxl:_Array_InternalArray__ICollection_Add_TisCustomAttributeNamedArgument_t287865710_m4157175270_gshared
o2c:__ZN5physx2Gu17intersectRayAABB2ERKNS_6shdfnd3aos5Vec3VES5_S5_S5_RKNS2_6FloatVERS6_S9_
cs:__ZN4core20StringStorageDefaultIcE6assignEPKcj
nMi:_KeyCollection_System_Collections_Generic_ICollectionU3CTKeyU3E_Remove_m1071033400_gshared
D1l:_Collection_1_System_Collections_IEnumerable_GetEnumerator_m1376351129_gshared
cwd:__ZNK5physx7NpShape17getSphereGeometryERNS_16PxSphereGeometryE
h_h:_BigInteger_ModPow_m3776562770
q4c:__ZL18intersectAnyVsMeshILi1EEbPKN5physx2Gu6SphereEPKNS1_7CapsuleEPKNS1_3BoxERKNS1_13RTreeMidphaseERKNS0_11PxTransformERKNS0_11PxMeshScaleEP14LimitedResults
e6n:__ZN15dense_hashtableINSt3__24pairIK10KeyWrapperIP12Il2CppObjectEN6il2cpp2gc9CachedCCWEEES5_NS7_5utils11PointerHashIS3_EEN14dense_hash_mapIS5_S9_SD_NS5_14EqualsComparerINS0_8equal_toIS4_EEEENS0_9allocatorISA_EEE9SelectKeyESI_SK_E3endEv
woi:_Enumerator_Dispose_m2498245804_AdjustorThunk
srj:_ArgumentCache_get_unityObjectArgumentAssemblyTypeName_m3450114170
Zdc:__ZN15SharedLightDataC2E10MemLabelId
qKf:_ArrayList_IndexOf_m305368842
Wym:_Predicate_1_EndInvoke_m3675319632_gshared
b_l:_List_1_Add_m2996644200_gshared
xfd:__ZN5physx6shdfnd5ArrayIPvNS0_15InlineAllocatorILj256ENS0_19ReflectionAllocatorINS_2Cm5BlockIhLj128EEEEEEEE15growAndPushBackERKS2_
Z1b:__ZN6Camera6SetFarEf
BUg:_FormatterConverter_ToBoolean_m1680758923
GCa:__ZN6prcoreL12RemapGenericI17TexFormatABGR888817TexFormatARGB8888EEvPKNS_9InnerInfoE
fTa:__ZN11GameManager17MainThreadCleanupEv
nQf:_Stack_get_Count_m2258661097
vim:_ReadOnlyCollection_1__ctor_m1345363288_gshared
dTe:__Z50Register_UnityEngine_UISystemProfilerApi_EndSamplev
uhl:_Dictionary_2_System_Collections_ICollection_get_SyncRoot_m2020472285_gshared
wgi:_HashSet_1__ctor_m3454820139_gshared
KXm:_GUI_INTERNAL_CALL_DoLabel_m2007226197
arf:_NetworkReader__ctor_m2287963699
Wqf:_NetworkServer_get_listenPort_m1138490414
kc:invoke_vffff
ruf:_NetworkReader_ReadTransform_m533564875
uxe:__Z52Register_UnityEngine_Rigidbody_INTERNAL_get_rotationv
hfk:__ZL91Application_t1852185770_CustomAttributesCacheGenerator_Application_get_isPlaying_m100394690P21CustomAttributesCache
pNg:_ConfigHandler_OnProcessingInstruction_m4212209262
IVl:_List_1_Reverse_m3290386475_gshared
N1e:_SerializationCallbacks_GetSerializationCallbacks_m2939476649
Fyd:__ZNK5physx7NpCloth24getParticleAccelerationsEPNS_6PxVec4E
TNf:_Hashtable__cctor_m4112166779
LFe:_UNITY_tt_slot_init
fRb:__ZZ23InitPlayerLoopCallbacksvEN41PostLateUpdateUpdateResolutionRegistrator7ForwardEv
zAn:_CustomEventData_AddChar_m2745147926
tJb:__Z25scripting_array_class_get17ScriptingClassPtrj
OEc:__ZL22Transfer_ManagedObjectI9JSONWriteLb1EEvRK29SerializationCommandArgumentsR31RuntimeSerializationCommandInfo
qI:__ZNK10SampleClip22GetTypeVirtualInternalEv
ota:__ZN9GfxDevice20DestroyRenderSurfaceER12ObjectHandleI17RenderSurface_TagP17RenderSurfaceBaseE
kQf:_Stack__ctor_m2602729586
t4f:__Z77RuntimeInvoker_Byte_t1134296376_RuntimeObject_Int32_t2950945753_RuntimeObjectPFvvEPK10MethodInfoPvPS4_
p9j:__ZL81Convert_t2465617642_CustomAttributesCacheGenerator_Convert_ToDateTime_m1031474510P21CustomAttributesCache
D0i:_Int32_System_IConvertible_ToInt32_m265310525_AdjustorThunk
vMa:__ZN9GfxDevice22UpdateComputeResourcesEjPK9TextureIDPK16TextureDimensionPKijPKjjPK15ComputeBufferIDS7_PK20ComputeBufferCounterjSC_S2_S5_S9_SF_
T4:__ZN12_GLOBAL__N_15qAsinEff
Xqj:_Display__ctor_m3105658851
kph:_Comparer_1__cctor_m3470905005_gshared
gah:_InternalEnumerator_1_System_Collections_IEnumerator_get_Current_m2629988057_AdjustorThunk
_Na:__ZN12TLSAllocatorI14StackAllocatorE13ThreadCleanupEv
SI:__Z18GetAudioManagerPtrv
g$k:_ValueType_InternalEquals_m1384040357
pzh:_MonoResource_t4103430009_marshal_pinvoke_cleanup
k4h:_Context_get_HandshakeMessages_m3655705111
Bco:__ZThn4_N6il2cpp2vm13ComObjectBase16MarshalInterfaceEP13Il2CppIStreamRK10Il2CppGuidPvjS7_j
rPf:_Queue_Clone_m178259971
mbn:_GetDelegate_BeginInvoke_m2821443078
iMb:__Z27FindActiveTransformWithPathPKc
EGl:_List_1_System_Collections_IEnumerable_GetEnumerator_m3790284976_gshared
hsm:_ReadOnlyCollection_1_System_Collections_IList_Remove_m4169110229_gshared
LYk:_UInt16_ToString_m3020002356
uMd:__ZN5physx16PxsIslandManager14setEdgeRigidCMERKNS_20PxsIslandManagerHookIjLj4294967295EEEPNS_17PxsContactManagerE
JQh:_LayoutRebuilder_LayoutComplete_m68578143
mNn:_RequiredByNativeCodeAttribute__ctor_m119855101
fVa:__ZN12BaseRendererD0Ev
S5b:__Z29StdTemplateConversionFunctionIbyEbPvR14SafeBinaryRead
h2a:__ZN7Texture5ResetEv
skd:__ZN5physx14NpArticulation25setStabilizationThresholdEf
D$m:_GUIStyle_get_fixedWidth_m2576616348
AGk:__ZL90PointerEventData_t3807901092_CustomAttributesCacheGenerator_U3ClastPressU3Ek__BackingFieldP21CustomAttributesCache
ypg:__Z44RuntimeInvoker_TransformSyncMode_t1892665719PFvvEPK10MethodInfoPvPS4_
Pdj:_SHA1Internal_Initialize_m499810128
ige:__ZN5physx2Gu11HeightField7releaseEv
n$:__ZNK6Camera7GetNearEv
txh:_GenericTypeParameterBuilder_GetConstructorImpl_m863833310
IKi:_Enumerator_get_Current_m3687673883_AdjustorThunk
BFa:__ZN7ApiGLES11UnmapBufferEjN2gl12BufferTargetE
bbm:_Collection_1_System_Collections_IList_set_Item_m3171414664_gshared
d8a:__Z25GetNextAllowedTextureSizeib13TextureFormat
aMb:__ZN20LocalFileSystemWebGL4CopyER13FileEntryDataS1_
HX:__ZN19CloudServiceHandler6RetainEv
Uko:__ZN6il2cpp2os9Semaphore4WaitEb
gWg:_DefaultValueAttribute_get_Value_m1188304954
uLc:__ZN15b2FrictionJointD0Ev
ljm:_ReadOnlyCollection_1_System_Collections_IList_IndexOf_m198887188_gshared
Adn:_Component_GetComponent_TisRuntimeObject_m2906321015_gshared
Kzc:__Z36Event_CUSTOM_Internal_SetNativeEventPv
DRk:_UTF32Encoding_GetBytes_m3180303867
B6:__ZN12BaseRenderer20FlattenToRenderQueueER15RenderNodeQueueRK20DeprecatedSourceData
l_l:_List_1_CopyTo_m4034402519_gshared
l8d:__ZN5physx2Sc8ClothSim23addCollisionHeightfieldEPKNS0_8ShapeSimE
BIl:_List_1_System_Collections_IList_Add_m1651178974_gshared
Mob:__Z34scripting_liveness_calculation_endPv
WAi:_Enumerator_get_CurrentKey_m909764458_AdjustorThunk
DIf:_Char_GetDataTablePointers_m754571594
k8n:__ZN6il2cpp2os6ThreadC2Ev
c4g:_U3CGetEnumeratorU3Ec__Iterator0_System_Collections_Generic_IEnumeratorU3CTU3E_get_Current_m1566629109_gshared
cnl:_Dictionary_2_System_Collections_IDictionary_GetEnumerator_m674653679_gshared
Lll:_Dictionary_2_U3CCopyToU3Em__0_m1668394440_gshared
lLj:_DateTimeOffset_get_UtcDateTime_m1021718282_AdjustorThunk
Cia:__ZN16memory_pool_implILi64EE15AutoPoolWrapper12UninitializeEPv
Dw:__ZN21AnimationClipPlayable22ProcessAnimationNoClipEPK35AnimationPlayableEvaluationConstantPK32AnimationPlayableEvaluationInputP33AnimationPlayableEvaluationOutput
TUg:_HybridDictionary_get_Count_m1166314536
HBm:_TlsStream_Write_m1412844442
oGc:__Z18Transfer_BlittableI8JSONReadLb0E8Vector3fEvRK29SerializationCommandArgumentsR31RuntimeSerializationCommandInfo
VCm:_X509CertificateEnumerator_get_Current_m1004537031
hdn:_Array_InternalArray__get_Item_TisNetworkSceneId_t717048590_m2316198999_gshared
$Vf:_NetworkIdentity_CacheBehaviours_m894075442
HZn:__ZN6il2cpp2vm6Thread6DetachEP12Il2CppThread
iCm:_GeneralNames_get_DNSNames_m3788548987
WFl:_List_1_AddCollection_m2026039026_gshared
GIe:_Render_Single_Pass
Ynd:__ZNK5physx18NpArticulationLink13isSubordinateEv
Svc:__Z54Register_UnityEngine_Rigidbody2D_set_position_Injectedv
H7k:_Enumerator_System_Collections_IEnumerator_get_Current_m327302268_AdjustorThunk
y8c:__GLOBAL__sub_I_runtime_dynamics_2_cpp
R2e:_SerializationEntry_t648286436_marshal_pinvoke
$E:__ZN7mecanim8skeleton30SkeletonBuildReverseIndexArrayEPiPKiPKNS0_8SkeletonES6_
$ei:_Enumerator_System_Collections_IEnumerator_get_Current_m2764830778_gshared
lxc:__Z19GetGUIBlendMaterialv
Dwl:_DefaultComparer_GetHashCode_m177499767_gshared
S9i:_Math_Round_m3018379666
qcg:__Z41RuntimeInvoker_Boolean_t97287965_IntPtr_tPFvvEPK10MethodInfoPvPS4_
$8n:__ZN6il2cpp2os10ThreadImpl5SleepEjb
BUi:__ZN28GenericInterfaceFuncInvoker1IbbE6InvokeEPK10MethodInfoP12Il2CppObjectb
njm:_ReadOnlyCollection_1_System_Collections_IList_Remove_m1965826685_gshared
Z0d:__ZN5physx14SapPairManager12shrinkMemoryEv
YEc:__ZN9JSONWrite8TransferI13GUIStyleStateEEvRT_PKc17TransferMetaFlags
fIg:__ZN28GenericInterfaceFuncInvoker0IP12Il2CppObjectE6InvokeEPK10MethodInfoS1_
tke:__ZN5physx6shdfnd8internal7median3IjKNS_19SortBoundsPredicateEEEvPT_iiRT0_
$ti:_PlayableHandle_IsPlayableOfType_TisRuntimeObject_m503495943_AdjustorThunk
eyo:_glBindSampler__wrapper
bxj:_Object_get_hideFlags_m3233469693
YSa:__ZNSt3__26vectorIN20ArchiveStorageHeader12StorageBlockE13stl_allocatorIS2_L18MemLabelIdentifier55ELi16EEE8__appendEj
Vpf:_NetworkServerSimple_Listen_m1749963343
Bg:_emscripten_set_mouseup_callback
Ska:__Z14resize_trimmedINSt3__26vectorIN9ShaderLab14SerializedPassENS0_9allocatorIS3_EEEEEvRT_j
evj:_Mathf_Clamp_m3350697880
kMa:__ZN9GfxDevice27SetRandomWriteTargetTextureEi9TextureID
G4a:__ZN14SafeBinaryRead19TransferSTLStyleMapINSt3__23mapIN9ShaderLab16FastPropertyNameEfNS1_4lessIS4_EENS1_9allocatorINS1_4pairIKS4_fEEEEEEEEvRT_17TransferMetaFlags
bml:_Dictionary_2_System_Collections_Generic_ICollectionU3CSystem_Collections_Generic_KeyValuePairU3CTKeyU2CTValueU3EU3E_Contains_m3033743418_gshared
dGi:_Enumerator__ctor_m2243569349_gshared
Gbg:__Z165RuntimeInvoker_Void_t1185182177_UInt32U26_t3735378166_Int32_t2950945753_UInt32U26_t3735378166_Int32_t2950945753_Int32_t2950945753_Int32_t2950945753_Int32_t2950945753PFvvEPK10MethodInfoPvPS4_
MFl:_List_1_System_Collections_IList_Remove_m3140917266_gshared
jPk:_Encoding_get_DecoderFallback_m1525880676
f4j:__ZL59ITrackingHandler_t1244553475_CustomAttributesCacheGeneratorP21CustomAttributesCache
xIm:_CompositeExpression__ctor_m2434860303
Efh:_InternalEnumerator_1_get_Current_m2112392701_AdjustorThunk
z6e:_DSASignatureDeformatter__ctor_m2759753186
gPd:__ZN5physx7NpScene22removeBroadPhaseRegionEj
wcd:__ZL34GeomOverlapCallback_CapsuleCapsuleRKN5physx10PxGeometryERKNS_11PxTransformES2_S5_PNS_2Gu12TriggerCacheE
bfm:_Collection_1_System_Collections_IEnumerable_GetEnumerator_m801406918_gshared
_3b:__ZNK18ScreenManagerWebGL8GetWidthEv
oOd:__ZNK5physx7NpScene23getFilterShaderDataSizeEv
dJn:__ZN6il2cpp2vm13MetadataCache33GetFieldDefaultValueDataFromIndexEi
nI:__ZN10SampleClipD2Ev
Pxh:_GenericTypeParameterBuilder_get_AssemblyQualifiedName_m2323022482
xOm:_Predicate_1_Invoke_m2389850270_gshared
s9i:_UnmanagedMemoryStream_get_CanSeek_m2636857629
fob:__Z13GetGISettingsv
k6l:_Collection_1_RemoveAt_m1813368096_gshared
rX:__ZN11UnityEngine15CloudWebService20WebRequestRestClientC2Ev
cBe:_cff_cmap_unicode_init
RMe:__Z31Font_CUSTOM_Internal_CreateFontP12Il2CppObjectP12Il2CppString
Wkn:__ZL25UnresolvedVirtualCall_153P12Il2CppObjectiPK10MethodInfo
kxk:__ZL114DropConnectionResponse_t3571632289_CustomAttributesCacheGenerator_DropConnectionResponse_set_networkId_m2043961426P21CustomAttributesCache
f4:__ZN14FileCacherRead13GetFileLengthEv
Nlg:__Z75RuntimeInvoker_Single_t1397266774_IntPtr_t_RuntimeObject_Single_t1397266774PFvvEPK10MethodInfoPvPS4_
d2l:_Collection_1_IsValidItem_m3080586124_gshared
njf:_DropdownItem_set_text_m3702712387
Cgf:_ClipperRegistry_Register_m2407166513
Z2m:_JoinMatchResponse_get_nodeId_m1797413455
$no:_readlink
GRn:__ZN15dense_hashtableINSt3__24pairIK10KeyWrapperINS1_IPK9EventInfoP11Il2CppClassEEEjEES9_17ReflectionMapHashIS8_EN14dense_hash_mapIS9_jSD_NS9_14EqualsComparerINS0_8equal_toIS8_EEEENS0_9allocatorISB_EEE9SelectKeyESI_SK_E12resize_deltaEjj
gCh:_MonoCMethod_Invoke_m2700167622
POf:_KeyMarker__cctor_m2590194914
bjo:__ZN6il2cpp8metadata14Il2CppTypeHash4HashEPK10Il2CppType
ZCi:_Enumerator_Reset_m627751027_AdjustorThunk
C7k:_Transform_1_BeginInvoke_m2500244493_gshared
YUf:_LogFilter_get_logDebug_m2124734822
NGi:_Enumerator_System_Collections_IDictionaryEnumerator_get_Entry_m1589114699_gshared
Rgb:__ZNK6Sprite9GetBoundsE8Vector2fbb
vWa:__ZNK19RenderEventsContext21CleanupCommandBuffersEv
wxf:_AnimationTriggerMessage_Deserialize_m608659875
KGl:_List_1_System_Collections_Generic_ICollectionU3CTU3E_get_IsReadOnly_m507350231_gshared
ixa:__ZN11ContextGLES6CreateEi
Q3c:__ZN5physx6shdfnd5ArrayINS_10PxTriangleENS0_19ReflectionAllocatorIS2_EEE15growAndPushBackERKS2_
Uun:_WillRenderCanvases_BeginInvoke_m1804779886
kBj:_RectTransform_INTERNAL_set_anchoredPosition_m939517950
jLl:_List_1_set_Capacity_m3382070520_gshared
hPh:_U3CMouseDragOutsideRectU3Ec__Iterator1_Dispose_m267465418
nNj:_Decimal_CompareTo_m3502307243_AdjustorThunk
wIb:__Z19TransferField_ArrayI18StreamedBinaryReadILb0EE27Converter_SimpleNativeClassI17AnimationCurveTplIfEEEvRK23StaticTransferFieldInfoR31RuntimeSerializationCommandInfoRT0_
rpm:_ReadOnlyCollection_1_System_Collections_IList_IndexOf_m1909701578_gshared
BNa:__ZN14StackAllocator16FrameMaintenanceEb
f$c:__ZL11SweepBoxBoxPKN5physx3Cct9SweepTestEPKNS0_11SweptVolumeEPKNS0_11TouchedGeomERKNS_14PxExtendedVec3ERKNS_6PxVec3ERNS0_12SweptContactE
CUc:__ZZN10Collider2D15InitializeClassEvEN33FunctorImpl_99kDidRemoveComponent4CallEPviR11MessageData
WTh:_Scrollbar_get_value_m760470106
s$:__ZNK10GameObject20QueryComponentByTypeEPKN5Unity4TypeE
$hi:_KeyValuePair_2_get_Key_m2436713626_gshared
i9h:_EqualityComparer_1_System_Collections_IEqualityComparer_Equals_m2639327655_gshared
Sng:__Z102RuntimeInvoker_Int32_t2950945753_Int32_t2950945753_RuntimeObject_Int32_t2950945753_ByteU26_t1992107912PFvvEPK10MethodInfoPvPS4_
taj:_MonoCustomAttrs_IsUserCattrProvider_m2878058089
TJk:__ZL71InputField_t3762917431_CustomAttributesCacheGenerator_m_HideMobileInputP21CustomAttributesCache
Sfn:_UploadHandler_Finalize_m3322774190
p7a:__ZN11TextureData5ResetEv
wpc:__Z53Register_UnityEngine_GameObject_get_activeInHierarchyv
pfj:_ToBase64Transform_InternalTransformFinalBlock_m360524956
oCf:_ActivationContext_Dispose_m2038725770
Yxb:__Z35Transfer_Blittable_FixedBufferFieldI17RemapPPtrTransferiEvRK29SerializationCommandArgumentsR31RuntimeSerializationCommandInfo
J1:__ZL30InitializeCoreScriptingClassesv
Tsm:_ReadOnlyCollection_1_Contains_m1699971074_gshared
leh:_InternalEnumerator_1_Dispose_m630370856_AdjustorThunk
zh:_glBlitFramebuffer
Wij:_Single_System_IConvertible_ToInt32_m872115569_AdjustorThunk
OQa:__ZN17ArchiveFileSystem5TouchER13FileEntryData
kUd:__ZNK5physx2Sc5Scene17prefetchForRemoveERKNS0_10StaticCoreE
FPn:__ZN6il2cpp2vm10Reflection15GetMethodObjectEPK10MethodInfoP11Il2CppClass
uoi:_Enumerator_System_Collections_IEnumerator_get_Current_m3594024719_gshared
Txb:__Z35Transfer_Blittable_SingleValueFieldI14SafeBinaryReadhEvRT_R17GeneralMonoObjectRK23StaticTransferFieldInfo
PGk:__ZL97PointerEventData_t3807901092_CustomAttributesCacheGenerator_U3CuseDragThresholdU3Ek__BackingFieldP21CustomAttributesCache
JCd:__ZN5physx22NpParticleBaseTemplateINS_15PxParticleFluidENS_15NpParticleFluidEE13setVelocitiesEjRKNS_16PxStrideIteratorIKjEERKNS4_IKNS_6PxVec3EEE
jZe:__ZN22BaseUnityConnectClientC2ERN11UnityEngine7Connect20BasePersistentValuesE
a_f:_EventDelegate_BeginInvoke_m179283032
czl:_Array_InternalArray__ICollection_CopyTo_TisInt64_t3736567304_m2845057751_gshared
u6a:__ZNK12CubemapArray22GetTypeVirtualInternalEv
bwf:_NetworkServer_ClearHandlers_m2683570492
Gal:_Enumerator_MoveNext_m1586883199_gshared
b0a:__ZN11Tetrahedron8TransferI18StreamedBinaryReadILb0EEEEvRT_
pp:FUNCTION_TABLE_vif
Ham:_Collection_1_SetItem_m2169357282_gshared
qp:FUNCTION_TABLE_vid
uPg:_ContextAttribute_GetPropertiesForNewContext_m1632930262
sp:FUNCTION_TABLE_vii
Xob:__Z40scripting_liveness_calculation_from_root18ScriptingObjectPtrPv
V2e:_SerializationEntry__ctor_m1411687997_AdjustorThunk
t3j:__ZL65IContributeDynamicSink_t2255997386_CustomAttributesCacheGeneratorP21CustomAttributesCache
q3a:__ZN7Texture23VirtualRedirectTransferER24GenerateTypeTreeTransfer
HKe:_UNITY_FT_Set_Transform
wcc:__ZNK32RendererMaterialAnimationBinding12SetPPtrValueERKN11UnityEngine9Animation10BoundCurveEi
T4n:__ZN6il2cpp8metadata15GenericMetadata20RegisterGenericClassEP18Il2CppGenericClass
gRi:_ShimEnumerator_MoveNext_m2648513904_gshared
exn:_AnimatorStateInfo_get_normalizedTime_m2701390466_AdjustorThunk
Jxo:_glDeleteFramebuffers__wrapper
a1l:_Collection_1_System_Collections_IList_get_IsFixedSize_m2620019318_gshared
b8f:__Z220RuntimeInvoker_Boolean_t97287965_RuntimeObject_Int32U26_t1369213839_Int32_t2950945753_Int32_t2950945753_Int32_t2950945753_RuntimeObject_SByte_t1669577662_Int32_t2950945753_ContractionU26_t961830454_ContextU26_t3937453398PFvvEPK10MethodInfoPvPS4_
Cwh:_TypeBuilder_GetEvent_m2166527753
VHi:_Enumerator_MoveNext_m1022946885_gshared
Upc:__Z36Register_UnityEngine_RectOffset_Initv
c$j:__ZL78TextInfo_t3810425522_CustomAttributesCacheGenerator_TextInfo_Clone_m3838580862P21CustomAttributesCache
kze:_cff_blend_build_vector
DZg:_WebHeaderCollection_ToString_m1263025316
Udh:_InternalEnumerator_1_MoveNext_m1015797184_gshared
Xcc:__ZZN12MeshRenderer15InitializeClassEvEN29FunctorImpl_134kDidDeleteMesh4CallEPviR11MessageData
yag:__Z91RuntimeInvoker_Void_t1185182177_RuntimeObject_RuntimeObject_RuntimeObject_Int32_t2950945753PFvvEPK10MethodInfoPvPS4_
bIg:_GetterAdapter_Invoke_m3767885970
nMl:_List_1__ctor_m747758800_gshared
yyh:_MethodBuilder_get_ReflectedType_m3038768129
Olj:_String_CreateString_m2818852475
Yki:_Enumerator_get_Current_m335492761_AdjustorThunk
A9a:__ZN28EnlightenRendererInformation8TransferI14SafeBinaryReadEEvRT_
Irl:_Dictionary_2_System_Collections_Generic_IEnumerableU3CSystem_Collections_Generic_KeyValuePairU3CTKeyU2CTValueU3EU3E_GetEnumerator_m1326314699_gshared
Bvn:_CanvasRenderer_get_hasMoved_m2236392341
Qrd:__ZN5physx12NpBatchQuery13getUserMemoryEv
ZXi:__ZN28GenericInterfaceFuncInvoker1I27DictionaryEntry_t312397563834NetworkBroadcastResult_t2174414888E6InvokeEPK10MethodInfoP12Il2CppObjectS1_
Owj:_MessageEvent__ctor_m1231650089
vka:__ZNK15Lz4Decompressor16DecompressMemoryEPKvPjPvS2_
bEe:_UNITY_tt_face_build_cmaps
aaj:_MemberAccessException__ctor_m3713703094
u$m:_GUILayoutEntry_set_style_m1702960184
yBh:_MethodBase_get_ContainsGenericParameters_m2144492325
Y$j:__ZL117GenericTypeParameterBuilder_t1988827940_CustomAttributesCacheGenerator_GenericTypeParameterBuilder_Equals_m3260957994P21CustomAttributesCache
i8b:__ZN4core8hash_mapINS_12basic_stringIcNS_20StringStorageDefaultIcEEEE10vector_setI4PPtrI11SpriteAtlasENSt3__24lessIS8_EE13stl_allocatorIS8_L18MemLabelIdentifier81ELi16EEENS_4hashIS4_EENS9_8equal_toIS4_EEEixERKS4_
XTc:__ZN11Rigidbody2D8TransferI24GenerateTypeTreeTransferEEvRT_
gYf:_NetworkAnimator_get_sendMessagesAllowed_m1244573084
Yin:__ZL24UnresolvedVirtualCall_47P12Il2CppObject20DateTime_t3738529785PK10MethodInfo
q5a:__Z35UnityPropertySheet_MakeSortedColorsRKNSt3__23mapIN9ShaderLab16FastPropertyNameE10ColorRGBAfNS_4lessIS2_EENS_9allocatorINS_4pairIKS2_S3_EEEEEER10vector_mapIS2_S3_S5_NS6_INS7_IS2_S3_EEEEE
hek:__ZL72PKCS12_t4101533061_CustomAttributesCacheGenerator_U3CU3Ef__switchU24map8P21CustomAttributesCache
xDe:_UNITY_tt_face_load_os2
Dfk:__ZL90Coroutine_t3829159415_CustomAttributesCacheGenerator_Coroutine_ReleaseCoroutine_m809189848P21CustomAttributesCache
e6d:__ZN5physx2GuL34fullContactsGenerationSphereConvexERKNS0_8CapsuleVERKNS0_11ConvexHullVERKNS_6shdfnd3aos12PsTransformVESB_PNS0_17PersistentContactERjRNS0_13ContactBufferEbRNS0_25PersistentContactManifoldERNS8_5Vec3VERKNS8_6FloatVEb
Zzl:_Array_InternalArray__ICollection_CopyTo_TisUICharInfo_t75501106_m4268526610_gshared
PHd:__ZN5physx19NpRigidBodyTemplateINS_14PxRigidDynamicEE16setRigidBodyFlagENS_15PxRigidBodyFlag4EnumEb
lfd:__ZN5physx6shdfnd8PoolBaseINS_2Sc19ConstraintGroupNodeENS0_19ReflectionAllocatorIS3_EEE17releaseEmptySlabsEv
drk:__ZL105GUIStyle_t3956901511_CustomAttributesCacheGenerator_GUIStyle_INTERNAL_CALL_Internal_DrawCursor_m138068406P21CustomAttributesCache
lxb:__Z29Transfer_Blittable_ArrayFieldI14SafeBinaryRead8Vector4fEvRT_R9ArrayInfoRK23StaticTransferFieldInfo
_Ql:_List_1_get_Count_m354204254_gshared
vve:__ZNSt3__27__sort4IRNS_6__lessI24InterpolationDepthHandleS2_EEPS2_EEjT0_S6_S6_S6_T_
ZNf:_Hashtable_get_IsSynchronized_m1426775249
FSk:_UTF8Encoding_GetMaxCharCount_m3762459613
Huh:_ModuleBuilder_RegisterToken_m4166846047
fXc:__ZN5physx3Cct8SweptBoxD2Ev
YQb:__ZZ23InitPlayerLoopCallbacksvEN51PostLateUpdateUpdateCustomRenderTexturesRegistrator7ForwardEv
AYd:__ZN5physx2Cm12DelegateTaskINS_13PxsCCDContextEXadL_ZNS2_12postCCDSweepEPNS_10PxBaseTaskEEEED0Ev
SSh:_RawImage_OnPopulateMesh_m1115858855
C9f:__Z74RuntimeInvoker_MonoFileType_t221779374_IntPtr_t_MonoIOErrorU26_t1548853198PFvvEPK10MethodInfoPvPS4_
rJn:__ZN6il2cpp2vm13MetadataCache25GetStringLiteralFromIndexEi
QCf:_Hashtable_ToPrime_m33531354
$w:__ZN7mecanim9animation12EvaluateClipEPKNS0_4ClipEPKNS0_9ClipInputEPNS0_10ClipMemoryEPNS0_10ClipOutputE
xGl:_List_1_set_Item_m1979164443_gshared
Ifm:_Collection_1_IsSynchronized_m1117613618_gshared
hfi:_Enumerator_get_Current_m1780658937_AdjustorThunk
RNi:_KeyCollection_System_Collections_Generic_ICollectionU3CTKeyU3E_Remove_m2555909644_gshared
s7c:__ZN5physx3Cct9SweepTest15onObstacleAddedEjPKNS_17PxObstacleContextERKNS_6PxVec3ES7_f
jxb:__ZN15SerializeTraitsI13dynamic_arrayI5RectTIfELj4EEE19ResizeSTLStyleArrayERS3_i
Xcd:__ZN5physx2Gu10SupportMapD2Ev
QXk:_TypeInitializationException__ctor_m3546444694
alc:__ZNK9Transform16GetLocalRotationEv
eKi:_Enumerator_System_Collections_IEnumerator_Reset_m4278714428_gshared
L9a:__ZN4PPtrI11LightProbesE8TransferI18StreamedBinaryReadILb0EEEEvRT_
VW:__ZN11UnityEngine15CloudWebService23WebRequestUploadHandler17ConsumeUploadDataEj
vKn:__ZNSt3__214__split_bufferI6pollfdRNS_9allocatorIS1_EEEC2EjjS4_
_Mg:_CrossAppDomainData_get_DomainID_m3516796532
end:__ZNK5physx15NpActorTemplateINS_18PxArticulationLinkEE22getClientBehaviorFlagsEv
p6i:_MemoryStream_set_Position_m3169779190
R0b:__ZN13RenderManager29SetCurrentCameraAndStackStateEP6CameraP25CameraStackRenderingState
qtk:__ZL77Physics_t2310948930_CustomAttributesCacheGenerator_Physics_Raycast_m630863594P21CustomAttributesCache
Bbf:_ExecuteEvents_get_scrollHandler_m2659345019
VUa:__ZNSt3__26__treeINS_12__value_typeIjN4core12basic_stringIcNS2_20StringStorageDefaultIcEEEEEENS_19__map_value_compareIjS7_NS_4lessIjEELb1EEE13stl_allocatorIS7_L18MemLabelIdentifier7ELi16EEE7destroyEPNS_11__tree_nodeIS7_PvEE
sZn:__ZN15dense_hashtableINSt3__24pairIK10KeyWrapperINS1_IP11Il2CppClassjEEES4_EES6_N6il2cpp8metadata14ArrayClassHashEN14dense_hash_mapIS6_S4_SB_NS6_14EqualsComparerINSA_17ArrayClassCompareEEENS0_9allocatorIS8_EEE9SelectKeyESF_SH_E12resize_deltaEjj
Si:_JS_WebRequest_Release
fnd:__ZNK5physx15NpActorTemplateINS_18PxArticulationLinkEE12getAggregateEv
DV:__ZN11UnityEngine15CloudWebService14DataErrorEventD0Ev
Voo:_dispose_chunk
n1n:__ZN6il2cpp6icalls8mscorlib6System4Type20internal_from_handleEi
Xek:__ZL72RequiredByNativeCodeAttribute_t4130846357_CustomAttributesCacheGeneratorP21CustomAttributesCache
Y_h:_ASN1_get_Tag_m2789147236
GPl:_List_1_Clear_m872960865_gshared
MNm:__ZN28GenericInterfaceFuncInvoker1Ib24PendingPlayer_t306375494E6InvokeEPK10MethodInfoP12Il2CppObjectS0_
P0f:_NetworkDiscovery_BytesToString_m2755290279
Fei:_Enumerator_System_Collections_IEnumerator_get_Current_m3271547080_AdjustorThunk
oOg:_Context__ctor_m254302079
DYd:__ZN5physx13PxsCCDContext12postCCDSweepEPNS_10PxBaseTaskE
P4n:__ZN6il2cpp8metadata15GenericMetadata7InflateEPK19Il2CppGenericMethodPK20Il2CppGenericContext
mKh:_KeyGeneratedEventHandler_EndInvoke_m3057317531
R8a:__ZN19ShaderPropertySheet16SetArrayPropertyEN9ShaderLab16FastPropertyNameENS_12PropertyTypeEPKvj
EUh:_Selectable_FindSelectable_m2348614027
n_m:_TextEditor_isLetterLikeChar_m996697962
SVb:__ZN22PerThreadPageAllocatorC2Ev
X2f:_NetworkLobbyManager_OnLobbyServerPlayersReady_m2444610763
Whf:_FloatTween_get_duration_m1227071020
O$e:__ZN16UploadHandlerRaw17ConsumeUploadDataEj
Wjf:_DropdownItem_OnPointerEnter_m1492957598
$ke:__ZN5physx6shdfnd10Foundation19AlignCheckAllocator28deregisterAllocationListenerERNS_20PxAllocationListenerE
Gmd:__ZN5physx2Sc21ArticulationJointCore12setChildPoseERKNS_11PxTransformE
qIg:_ParameterInfo_get_ParameterType_m4197803362
tul:_DefaultComparer__ctor_m3999366738_gshared
_8f:__Z91RuntimeInvoker_Void_t1185182177_Int32U26_t1369213839_Int32U26_t1369213839_Int32_t2950945753PFvvEPK10MethodInfoPvPS4_
J6g:_InternalEnumerator_1_MoveNext_m3676647350_AdjustorThunk
Yln:__ZL25UnresolvedVirtualCall_209P12Il2CppObject27CRCMessageEntry_t1041239249S1_PK10MethodInfo
Syc:__ZN8GUIState8EndOnGUIEv
lWe:__ZN11UnityEngine15PlatformWrapper16GetApplicationIdEv
l0n:__ZN6il2cpp6icalls8mscorlib6System2IO6MonoIO16get_ConsoleErrorEv
SFe:_UNITY_TT_Get_VMetrics
qVf:_ClientScene_Ready_m3173813555
S_d:__ZN5physx33solveContactCoulombBlockWriteBackEPKNS_23PxcSolverConstraintDescEjRNS_16PxcSolverContextEPNS_25PxcThresholdStreamElementEjPi
jhh:_InternalEnumerator_1_Dispose_m1078279542_AdjustorThunk
Y9h:_EqualityComparer_1__ctor_m2283513024_gshared
GLf:_SimpleEnumerator__cctor_m2844299657
F9i:_LocalDataStoreSlot__ctor_m4104083971
mEl:_Array_qsort_TisVector3_t3722313464_m4117329442_gshared
Asm:_ReadOnlyCollection_1_System_Collections_Generic_IListU3CTU3E_RemoveAt_m3849058645_gshared
Frn:_AudioSource_ReadExtensionName_m725112169
iEm:_X509CertificateEnumerator_System_Collections_IEnumerator_Reset_m2039524926
F6d:__ZN5physx9PxTaskMgr17submitUnnamedTaskERNS_6PxTaskENS_10PxTaskType4EnumE
Qih:_InternalEnumerator_1_System_Collections_IEnumerator_get_Current_m4237981476_gshared
Qeg:__Z128RuntimeInvoker_Void_t1185182177_RuntimeObject_BooleanU26_t4125257963_SByte_t1669577662_Int32U26_t1369213839_Int32U26_t1369213839PFvvEPK10MethodInfoPvPS4_
$za:__ZN7Texture21GetMasterTextureLimitEv
h8k:_Enumerator_Dispose_m3503748991_AdjustorThunk
H2b:__Z12CanAddScriptR10GameObject17ScriptingClassPtrPS1_S2_
mhn:_FieldWithTarget_get_paramName_m3501478659
BAl:_Array_InternalArray__Insert_TisKeyValuePair_2_t442960997_m1415573596_gshared
nng:__Z103RuntimeInvoker_Boolean_t97287965_RuntimeObject_Vector2_t2156229523_RuntimeObject_Vector3U26_t3464235976PFvvEPK10MethodInfoPvPS4_
Evm:_Comparison_1_BeginInvoke_m3263247262_gshared
Lca:__ZN9ShaderLabL25StaticInitializeShaderLabEPv
doe:__ZN12MeshCollider23VirtualRedirectTransferER24GenerateTypeTreeTransfer
wWd:__ZNK5physx2Sq12BucketPruner5sweepERKNS0_9ShapeDataERKNS_6PxVec3ERfRNS0_14PrunerCallbackE
U:Math_max
Zpi:_List_1_Sort_m1293013666_gshared
VDi:_Enumerator_MoveNext_m2790337466_AdjustorThunk
CWn:_il2cpp_class_get_methods
Bpg:__Z83RuntimeInvoker_Void_t1185182177_RuntimeObject_Vector2_t2156229523_Int32_t2950945753PFvvEPK10MethodInfoPvPS4_
VCj:_HitInfo_SendMessage_m1343099429_AdjustorThunk
Zzb:__Z18Transfer_BlittableI24GenerateTypeTreeTransferLb0EN4math12int2_storageEEvRK29SerializationCommandArgumentsR31RuntimeSerializationCommandInfo
Ewc:__Z64Register_UnityEngine_Networking_UnityWebRequest_get_isModifiablev
njj:_Single_CompareTo_m2785801815_AdjustorThunk
s8n:__ZN6il2cpp2os6Thread16GetCurrentThreadEv
HBl:_Array_InternalArray__Insert_TisUILineInfo_t4195266810_m3191124053_gshared
hfc:__ZN10GameObject13ComponentPair15SetComponentPtrEPN5Unity9ComponentE
Yvo:_glBlitFramebuffer__wrapper
cue:__ZN5physx6shdfnd8internal8HashBaseINS0_4PairIKPKNS0_14NamedAllocatorEPKcEES6_NS0_4HashIS6_EENS1_11HashMapBaseIS6_S9_SC_NS0_20NonTrackingAllocatorEE6GetKeyESE_Lb1EE15reserveInternalEj
$8b:__Z13RegisterClassI10MeshFilterEvv
Sii:_KeyValuePair_2_set_Value_m2527908068_AdjustorThunk
zEj:_Transform_INTERNAL_set_position_m3627767375
$Ua:__ZN10TagManager8TransferI19StreamedBinaryWriteILb0EEEEvRT_
qob:__ZN11PreloadData23VirtualRedirectTransferER18StreamedBinaryReadILb0EE
Acb:__ZN13sorted_vectorI4PPtrI11SpriteAtlasENSt3__24lessIS2_EE13stl_allocatorIS2_L18MemLabelIdentifier1ELi16EEE21sort_clear_duplicatesEv
zBi:_Enumerator_VerifyCurrent_m2516497577_AdjustorThunk
qyj:_PropertyNameUtils_PropertyNameFromString_Injected_m1259736140
aJk:__ZL60FontData_t746620069_CustomAttributesCacheGenerator_m_MinSizeP21CustomAttributesCache
qQi:_ShimEnumerator_Reset_m1479883403_gshared
dtn:_PlayerController_CmdLayBlock_m223271560
MIf:_Char_System_IConvertible_ToDateTime_m3564102661
Stl:_Dictionary_2_ContainsValue_m3426474559_gshared
hPf:_SyncHashtable_Clone_m3726939774
tbb:__ZN6Sprite17MainThreadCleanupEv
f4m:_MatchInfo_set_domain_m2690339534
iwo:_glBlendFuncSeparate__wrapper
_N:__ZN10AudioMixer14UpdateMuteSoloEv
ubm:_Collection_1_ConvertItem_m3860411108_gshared
n9g:_InternalEnumerator_1_MoveNext_m2824415659_AdjustorThunk
a3:__Z17GetMonoManagerPtrv
O2g:_Group_get_Captures_m1655762411
sud:__ZN5physx6shdfnd5ArrayINS_3Scb13MaterialEventENS0_19ReflectionAllocatorIS3_EEE15growAndPushBackERKS3_
lUa:__ZN9Transform35SetLocalPositionWithoutNotificationERKN4math7_float3Ey
FXf:_LogFilter_get_logFatal_m1186776510
krk:__ZL87GUIUtility_t1868551600_CustomAttributesCacheGenerator_U3CguiIsExitingU3Ek__BackingFieldP21CustomAttributesCache
xeg:__Z69RuntimeInvoker_UInt64_t4134040092_Int32_t2950945753_SByte_t1669577662PFvvEPK10MethodInfoPvPS4_
Uj:_JS_Eval_ClearTimeout
yTh:_Raycast2DCallback_Invoke_m1500574149
LEa:__ZN7ApiGLES16SetPatchVerticesEi
BKm:_CharacterClass_Compile_m3296067317
ahd:__ZN5physx2Sc5Scene11onBodySleepEPNS0_7BodySimE
kao:__ZN6il2cpp2gc16GarbageCollector16InvokeFinalizersEv
Wwf:_NetworkServerSimple_set_listenPort_m3178863397
VHf:_Byte_System_IConvertible_ToInt64_m285584218_AdjustorThunk
eAj:_Rect_get_size_m477575021_AdjustorThunk
QBn:__ZN6il2cpp2vm5Class20FromGenericParameterEPK22Il2CppGenericParameter
PXc:__ZL28GeomMTDCallback_PlaneCapsuleRN5physx6PxVec3ERfRKNS_10PxGeometryERKNS_11PxTransformES5_S8_
$ha:__ZN15GlobalCallbacksC2Ev
yRg:_MethodCall_System_Runtime_Remoting_Messaging_IInternalMessage_set_Uri_m1919576807
ZMc:__ZN7b2World10CreateBodyEPK9b2BodyDef
AAi:_Comparer_1_System_Collections_IComparer_Compare_m2016223770_gshared
qPk:_Encoding_GetBytes_m3823106599
JNk:__ZL57BaseMeshEffect_t2440176439_CustomAttributesCacheGeneratorP21CustomAttributesCache
Ndg:__Z74RuntimeInvoker_DateTime_t3738529785_DateTime_t3738529785_Int32_t2950945753PFvvEPK10MethodInfoPvPS4_
WLe:_UNITY_FT_New_Memory_Face
Cii:_KeyValuePair_2__ctor_m727165395_AdjustorThunk
Utd:__ZNK5physx10NpMaterial18getDynamicFrictionEv
C6l:_Collection_1_System_Collections_IList_IndexOf_m3271188411_gshared
uen:_DownloadHandler_GetText_m600283602
esl:_Dictionary_2_ContainsKeyValuePair_m3633428618_gshared
Uyn:_Rigidbody_INTERNAL_set_velocity_m931742966
Puf:_NetworkSceneId_IsEmpty_m3101903864
_Je:__ZN20TextRenderingPrivate21TextMeshGeneratorImpl5FlushEv
b6i:_MonoIO_GetFileStat_m678141354
FCb:__Z18Transfer_BlittableI19StreamedBinaryWriteILb0EELb0E5RectTIiEEvRK29SerializationCommandArgumentsR31RuntimeSerializationCommandInfo
H1e:__Z15CastclassSealedP12Il2CppObjectP11Il2CppClass
Bei:_GenericEqualityComparer_1_Equals_m1294835414_gshared
x8b:__ZN15ApplicationInfo14GetSandboxTypeEv
Pud:__ZN5physx9NpPhysics16createConvexMeshERNS_13PxInputStreamE
cbm:_Collection_1_Add_m4161952616_gshared
_xb:__Z18Transfer_BlittableI17RemapPPtrTransferLb1EhEvRK29SerializationCommandArgumentsR31RuntimeSerializationCommandInfo
cNj:_Decimal_IsZero_m4250358244_AdjustorThunk
r9i:_UnmanagedMemoryStream_get_CanRead_m3770815400
Hao:__ZNSt3__26vectorIjNS_9allocatorIjEEE26__swap_out_circular_bufferERNS_14__split_bufferIjRS2_EE
y1b:__ZN16ReflectionProbes40UpdateRealtimeReflectionProbesTimeslicedEv
mrn:__ZN23InterfaceActionInvoker1IP24SingleU5BU5D_t1444911251E6InvokeEjP11Il2CppClassP12Il2CppObjectS1_
T3n:__ZNSt3__26__treeINS_12__value_typeIP24Il2CppReflectionAssemblyPvEENS_19__map_value_compareIS3_S5_NS_4lessIS3_EELb1EEENS_9allocatorIS5_EEE16__insert_node_atEPNS_16__tree_node_baseIS4_EERSF_SF_
UMj:_Decimal_u64_m3374804932
ngd:__ZN5physx2Sq17SceneQueryManager8addShapeERKNS_7NpShapeERKNS_12PxRigidActorEbPNS_9PxBounds3E
hYk:_UInt16_System_IConvertible_ToInt32_m1950778303_AdjustorThunk
Elb:__ZNK30RuntimeInitializeOnLoadManager22GetTypeVirtualInternalEv
Fwi:__ZN21InterfaceFuncInvoker2IiffE6InvokeEjP11Il2CppClassP12Il2CppObjectff
BGn:__ZN15dense_hashtableINSt3__24pairIK10KeyWrapperIN6il2cpp5utils13dynamic_arrayIPK10Il2CppTypeLj4EEEEPFvvEEESA_NS3_8metadata19Il2CppSignatureHashEN14dense_hash_mapISA_SD_SG_NSA_14EqualsComparerINSF_22Il2CppSignatureCompareEEENS0_9allocatorISE_EEE9SelectKeyESK_SM_E12resize_deltaEjj
ccc:__ZN16ReflectionProbes15InitializeClassEv
bXj:__ZL71Enum_t4135868527_CustomAttributesCacheGenerator_Enum_Format_m2588135982P21CustomAttributesCache
QLc:__ZNK12b2WheelJoint17GetReactionTorqueEf
THn:__ZNK15dense_hashtableINSt3__24pairIK10KeyWrapperIPK11Il2CppClassEPKcEES6_N6il2cpp5utils11PointerHashIS3_EEN14dense_hash_mapIS6_S9_SE_NS6_14EqualsComparerINS0_8equal_toIS5_EEEENS0_9allocatorISA_EEE9SelectKeyESJ_SL_E12test_deletedEj
mYj:__ZL107ArrayReadOnlyList_1_t221793636_CustomAttributesCacheGenerator_ArrayReadOnlyList_1_GetEnumerator_m2012327150P21CustomAttributesCache
mvk:__ZL127RectTransformUtility_t1743242446_CustomAttributesCacheGenerator_RectTransformUtility_INTERNAL_CALL_PixelAdjustPoint_m1064459754P21CustomAttributesCache
u3k:_Dictionary_2_Do_ICollectionCopyTo_TisKeyValuePair_2_t3699644050_m4159638770_gshared
gLi:_Enumerator_System_Collections_IEnumerator_get_Current_m2935435568_gshared
O2n:__ZN6il2cpp2vm5Image9GetCorlibEv
LGj:_Vector3_get_left_m2428419009
jsf:_NetworkManagerHUD_Awake_m404375844
cC:__ZN8Animator13BatchedFKPassERK13dynamic_arrayIP14PlayableOutputLj4EE
x1j:__ZL50Pointer_t2088917139_CustomAttributesCacheGeneratorP21CustomAttributesCache
Wxd:__ZNK5physx15NpActorTemplateINS_7PxClothEE14getOwnerClientEv
oyg:__Z76RuntimeInvoker_Void_t1185182177_Int32_t2950945753_KeyValuePair_2_t1980328474PFvvEPK10MethodInfoPvPS4_
ynb:__ZN16LightmapSettings11UnshareDataEv
z_d:__ZNK5physx2Gu29EPASupportMapPairRelativeImplINS0_8CapsuleVES2_E9doSupportERKNS_6shdfnd3aos5Vec3VERS6_S9_S9_
obf:_ExecuteEvents_Execute_m113814934
wea:__ZN13RuntimeStaticINSt3__23mapIN4core12basic_stringIcNS2_20StringStorageDefaultIcEEEES6_NS0_4lessIS6_EE13stl_allocatorINS0_4pairIKS6_S6_EEL18MemLabelIdentifier13ELi16EEEELb0EE13StaticDestroyEPv
o_h:_Kernel_AddSameSign_m3267067385
Esl:_Dictionary_2_System_Collections_IDictionary_GetEnumerator_m3661401413_gshared
jke:__ZN5physx10SubSortSAH5sort4EPjjRNS_6shdfnd5ArrayINS_11RTreeNodeNQENS2_19ReflectionAllocatorIS4_EEEERjjPS4_
HBi:_Enumerator_System_Collections_IEnumerator_get_Current_m2979767597_AdjustorThunk
HQm:__ZN30GenericInterfaceActionInvoker1I17Color_t2555686324E6InvokeEPK10MethodInfoP12Il2CppObjectS0_
X7e:_MD5CryptoServiceProvider_ProcessFinalBlock_m2241588515
OVh:_ScrollRect_GetBounds_m449872505
LTm:_SyncList_1_Insert_m346212053_gshared
Vk:_glIsVertexArray
zBf:_SmallXmlParser_Read_m3485223434
R$i:_Int16_Parse_m2276856944
Ydh:_InternalEnumerator_1__ctor_m3443175323_AdjustorThunk
Zdl:_ValueCollection_get_Count_m1126074497_gshared
_8:__ZN5Unity9Component8TransferI18StreamedBinaryReadILb0EEEEvRT_
ZZf:__ZN30GenericInterfaceActionInvoker2IP18List_1_t2660467555P25NetworkReader_t1574750186E6InvokeEPK10MethodInfoP12Il2CppObjectS1_S3_
a1j:__ZL131CustomAttributeData_t1084486650_CustomAttributesCacheGenerator_CustomAttributeData_t1084486650____ConstructorArguments_PropertyInfoP21CustomAttributesCache
ha:invoke_fff
Qno:_mbsinit
rti:_Array_InternalArray__ICollection_Remove_TisContactPoint2D_t3390240644_m284878234_gshared
gVg:_ListDictionary_FindEntry_m4121604518
lte:__ZN5physx2Sc7PhysicsC2ERKNS_17PxTolerancesScaleERKNS_14PxvOffsetTableE
rve:__ZNSt3__26__sortIRNS_6__lessI24InterpolationDepthHandleS2_EEPS2_EEvT0_S6_T_
vNe:__ZN2UI6Canvas17MainThreadCleanupEv
Dhb:__ZNSt3__26vectorI14SubstanceInputNS_9allocatorIS1_EEE6assignINS_11__wrap_iterIPS1_EEEENS_9enable_ifIXaasr21__is_forward_iteratorIT_EE5valuesr16is_constructibleIS1_NS_15iterator_traitsISA_E9referenceEEE5valueEvE4typeESA_SA_
oCa:__ZN6prcoreL12RemapGenericI17TexFormatARGB155517TexFormatRGBA8888EEvPKNS_9InnerInfoE
vXi:__ZN28GenericInterfaceFuncInvoker2I27DictionaryEntry_t3123975638P12Il2CppObjectS2_E6InvokeEPK10MethodInfoS2_S2_S2_
oAh:_TypeBuilder_HasElementTypeImpl_m1871001960
sij:_SecurityFrame__ctor_m2140076703_AdjustorThunk
Twl:_DefaultComparer_Equals_m2458578172_gshared
nGa:__ZN7ApiGLES13CreateProgramEv
Xyf:_NetworkTransform_get_targetSyncRotation2D_m383745925
gDi:_Enumerator_VerifyState_m4003066746_gshared
rXf:_LocalClient_Update_m3502725405
oAa:__ZN4crnd12crn_unpackerD2Ev
hl:_emscripten_glTexImage2D
jGn:__ZNK6il2cpp5utils11collections13ArrayValueMapIPK10Il2CppType17Il2CppInteropData26InteropDataToTypeConverterNS_8metadata14Il2CppTypeLessENS8_26Il2CppTypeEqualityComparerEE12SortComparerclERKS6_SE_
Jnh:_Comparer_1_System_Collections_IComparer_Compare_m2537217645_gshared
x1:__ZN18ScriptingArguments9AddStringEPKc
dgo:_setup_header
Ghi:_KeyValuePair_2__ctor_m3953574590_AdjustorThunk
LJf:_Char_ToString_m3588025615
mui:_SetPropertyUtility_SetStruct_TisAspectMode_t3417192999_m1565063249_gshared
gmm:_ReadOnlyCollection_1_System_Collections_IList_get_IsReadOnly_m375760151_gshared
y_d:__ZNK5physx2Gu29EPASupportMapPairRelativeImplINS0_8CapsuleVES2_E18doWarmStartSupportEiiRNS_6shdfnd3aos5Vec3VES7_S7_
mIh:_CryptoConvert_ToCapiKeyBlob_m3371450375
wBa:__ZL23stbir__resize_arbitraryPvPKviiiS_iiiffffPfiij14stbir_datatype12stbir_filterS4_10stbir_edgeS5_16stbir_colorspace
Ooh:_Comparer_1__cctor_m736067183_gshared
rAb:__Z18Transfer_BlittableI24GenerateTypeTreeTransferLb1E8Vector4fEvRK29SerializationCommandArgumentsR31RuntimeSerializationCommandInfo
Iuo:b18
tl:_pthread_detach
SJn:__ZN6il2cpp2vm19SocketPollingThread7RunLoopEv
Ckf:_FontUpdateTracker_UntrackText_m1981515690
gVl:_List_1_System_Collections_ICollection_get_SyncRoot_m1937857346_gshared
HEk:__ZL64AnalyticsEventTracker_t2285229262_CustomAttributesCacheGeneratorP21CustomAttributesCache
FVd:__ZN5physx11EdgeManager6resizeEj
Mfc:__ZN15DirectorManager20ScheduleGraphDestroyERK14HPlayableGraph
jJb:__ZNSt3__213__stable_sortIRN10vector_mapI17ScriptingClassPtrPKN5Unity4TypeENS_4lessIS2_EENS_9allocatorINS_4pairIS2_S6_EEEEE13value_compareENS_11__wrap_iterIPSB_EEEEvT0_SJ_T_NS_15iterator_traitsISJ_E15difference_typeEPNSM_10value_typeEi
QEh:_SimpleCollator_FillSurrogateSortKeyRaw_m725998232
KWm:_ListPool_1_Get_m3176649063_gshared
nWl:_List_1_AddEnumerable_m1284696147_gshared
uYg:_IPAddress_Equals_m1823478787
ePg:_Context_CreateNewContext_m3053563976
shk:__ZL83RectOffset_t1369453676_CustomAttributesCacheGenerator_RectOffset_set_top_m713260669P21CustomAttributesCache
Wna:__ZN9ShaderLab25SerializedTextureProperty8TransferI24GenerateTypeTreeTransferEEvRT_
B2k:_Array_swap_TisVector2_t2156229523_TisVector2_t2156229523_m345092822_gshared
a2l:_Collection_1_get_Item_m1773274637_gshared
ySn:__ZN6il2cpp2gc19AppendOnlyGCHashMapINSt3__24pairIPK14Il2CppAssemblyP11Il2CppClassEEP24Il2CppReflectionAssembly17ReflectionMapHashIS9_ENS2_8equal_toIS9_EEEC2Ev
fEe:_tt_cmap14_char_next
cDb:__Z18Transfer_BlittableI19StreamedBinaryWriteILb0EELb0EdEvRK29SerializationCommandArgumentsR31RuntimeSerializationCommandInfo
yId:__ZN5physx2Sc5Scene12removeStaticERNS0_10StaticCoreERNS_6shdfnd11InlineArrayIPKNS0_9ShapeCoreELj64ENS4_19ReflectionAllocatorIS8_EEEEb
Rvm:_Comparison_1_EndInvoke_m2302188731_gshared
Hrm:_ReadOnlyCollection_1_System_Collections_ICollection_get_IsSynchronized_m3196208839_gshared
PXl:_List_1__ctor_m404557453_gshared
Zna:__ZN11NamedObject8TransferI18StreamedBinaryReadILb0EEEEvRT_
AJa:__ZNK17GPUSkinPoseBuffer12GetBoneCountEv
Krj:_InvokableCall_remove_Delegate_m1376110510
qne:__ZN19CharacterController13AwakeFromLoadE17AwakeFromLoadMode
kOf:_Hashtable_Clear_m3112193608
nSk:_UTF8Encoding_InternalGetByteCount_m771565606
t2n:__ZNK15dense_hashtableINSt3__24pairIK10KeyWrapperIP14Il2CppIUnknownEjEES5_N6il2cpp5utils11PointerHashIS3_EEN14dense_hash_mapIS5_jSB_NS5_14EqualsComparerINS0_8equal_toIS4_EEEENS0_9allocatorIS7_EEE9SelectKeyESG_SI_E12test_deletedEj
wuf:_NetworkScene_get_guidToPrefab_m3872473568
eyk:__ZL83MatchDesc_t3827228697_CustomAttributesCacheGenerator_MatchDesc_set_name_m1393859823P21CustomAttributesCache
mHc:__Z18Transfer_BlittableI8JSONReadLb1EyEvRK29SerializationCommandArgumentsR31RuntimeSerializationCommandInfo
HHl:_List_1_System_Collections_IList_Remove_m3654336679_gshared
zhk:__ZL51GUILayer_t2783472903_CustomAttributesCacheGeneratorP21CustomAttributesCache
KZj:__ZL56IDictionary_2_t3177279192_CustomAttributesCacheGeneratorP21CustomAttributesCache
Cvi:_Array_InternalArray__IEnumerable_GetEnumerator_TisUInt64_t4134040092_m1382862496_gshared
Ql:_emscripten_glMatrixMode
H5f:__Z100RuntimeInvoker_Boolean_t97287965_RuntimeObject_Int32_t2950945753_RuntimeObject_DoubleU26_t1739162597PFvvEPK10MethodInfoPvPS4_
dSh:_MaskableGraphic_UnityEngine_UI_IClippable_get_gameObject_m1739855597
dUj:_NumberFormatInfo_get_RawPercentGroupSizes_m97703232
Nu:__ZN8Animator23VirtualRedirectTransferER18StreamedBinaryReadILb0EE
C_i:_Guid__ctor_m3562600567_AdjustorThunk
bph:_Comparer_1__ctor_m3332222116_gshared
dge:__ZN5physx13GuMeshFactory17createHeightFieldERNS_13PxInputStreamE
HLd:__ZN5physx2Sc10NPhaseCore25createShapeInstancePairLLERNS0_8ShapeSimES3_NS_7PxFlagsINS_10PxPairFlag4EnumEtEE
Nme:__ZN8Collider11PoseChangedEb
mIj:_DateTime_System_IConvertible_ToInt16_m3239820399
YU:__ZN11UnityEngine15CloudWebService14DataDispatcher16PrepareDataBlockERNS0_16SessionContainerE
XKa:__ZN18GfxFramebufferGLES5ClearE13GfxClearFlagsRK10ColorRGBAffib
plm:_ReadOnlyCollection_1_System_Collections_Generic_IListU3CTU3E_get_Item_m860515837_gshared
MMd:__ZThn8_N5physx2Sc19ShapeInstancePairLL12onDeactivateEj
Z1f:_NetworkLobbyManager_get_maxPlayers_m126937953
l2e:_ObjectManager_DoFixups_m3038765937
N_k:_UIntPtr_ToString_m984583492_AdjustorThunk
NHb:__ZL26Transfer_SimpleNativeClassI18StreamedBinaryReadILb0EE10RectOffsetLb0EEvRK29SerializationCommandArgumentsR31RuntimeSerializationCommandInfo
UJl:_List_1_CopyTo_m2564068841_gshared
Vch:_InternalEnumerator_1_get_Current_m2316281569_gshared
HUb:__ZL12DepthPassJobPN21GfxDeviceAsyncCommand10ArgScratchEPKNS_3ArgE
ima:__ZNSt3__26vectorIN9ShaderLab20SerializedSubProgram16TextureParameterENS_9allocatorIS3_EEE6assignINS_11__wrap_iterIPS3_EEEENS_9enable_ifIXaasr21__is_forward_iteratorIT_EE5valuesr16is_constructibleIS3_NS_15iterator_traitsISC_E9referenceEEE5valueEvE4typeESC_SC_
MXi:_Transform_1_EndInvoke_m1701794896_gshared
HCc:__ZN5Unity9rapidjson6WriterI16TempBufferWriterNS0_4UTF8IcEES4_13JSONAllocatorE11WriteDoubleEd
orf:_NetworkManager_OnServerConnect_m4186711106
Mle:__ZN9Rigidbody16ApplyConstraintsEv
VTk:_Thread_SetCachedCurrentUICulture_m1729523031
tRe:__Z55Register_UnityEngine_CanvasGroup_get_ignoreParentGroupsv
VOh:_InputField_get_minHeight_m2822964544
z9b:__Z13RegisterClassI19LowerResBlitTextureEvv
aWi:__ZN23GenericVirtFuncInvoker1I27DictionaryEntry_t3123975638iE6InvokeEPK10MethodInfoP12Il2CppObjecti
G3h:_ClientContext_set_ClientHelloProtocol_m4189379912
$n:FUNCTION_TABLE_iiiiiiiiiiii
Dsl:_Dictionary_2_System_Collections_Generic_IEnumerableU3CSystem_Collections_Generic_KeyValuePairU3CTKeyU2CTValueU3EU3E_GetEnumerator_m3936347762_gshared
QVl:_List_1_get_Item_m1686506901_gshared
mZf:_NetworkBehaviour_RegisterRpcDelegate_m1780902272
oEd:__ZN5physx2Sc17ParticleSystemSim8setFlagsEj
oXa:__ZN16GraphicsSettingsD0Ev
x5b:__Z29StdTemplateConversionFunctionIshEbPvR14SafeBinaryRead
BYj:__ZL70Type_t_CustomAttributesCacheGenerator_Type_GetConstructors_m1172352582P21CustomAttributesCache
Pri:_Array_InternalArray__ICollection_Contains_TisInternalMsg_t2371755407_m1631385250_gshared
n:cttz_i8
_ye:_UNITY_FT_GlyphLoader_Add
cje:__ZN5physx2Gu15EdgeListBuilder18CreateEdgesToFacesEjPKjPKt
B3c:__ZN5physx11PxMeshQuery5sweepERKNS_6PxVec3EfRKNS_10PxGeometryERKNS_11PxTransformEjPKNS_10PxTriangleERNS_10PxSweepHitENS_7PxFlagsINS_9PxHitFlag4EnumEtEEPKjfb
qGg:__Z37RuntimeInvoker_Enumerator_t2087996314PFvvEPK10MethodInfoPvPS4_
sQj:_Enum_System_IConvertible_ToInt32_m2383479183
$rn:_AudioListener_INTERNAL_CALL_ReadExtensionPropertyName_m330480156
fLn:__ZN6il2cpp6icalls8mscorlib6SystemL16GetFieldFromTypeINS_5utils10functional6FilterINSt3__212basic_stringIcNS7_11char_traitsIcEENS7_9allocatorIcEEEENS4_13VmStringUtils23CaseInsensitiveComparerEEEEEP21Il2CppReflectionFieldP11Il2CppClassSK_iRKT_
Z1j:__ZL62ActivationArguments_t4219999170_CustomAttributesCacheGeneratorP21CustomAttributesCache
Hhb:__ZN14SubstanceInput22CopyFromSubstanceInputERKS_
NOl:_List_1_GetIndex_m2916545101_gshared
oTf:_Convert_ToUInt16_m867476252
Om:_emscripten_glViewport
oco:__ZN6il2cpp6icalls8mscorlib6System15MonoCustomAttrs17IsDefinedInternalEP12Il2CppObjectP20Il2CppReflectionType
cYd:__ZN5physx6shdfnd5ArrayIPhNS0_19ReflectionAllocatorIS2_EEE8recreateEj
Ili:_Enumerator__ctor_m40451936_AdjustorThunk
Kjg:__Z53RuntimeInvoker_Vector3_t3722313464_Single_t1397266774PFvvEPK10MethodInfoPvPS4_
mtj:_Gradient_t3067099924_marshal_pinvoke_back
oxn:_SkeletonBone_t4134054672_marshal_pinvoke_back
B3j:__ZL115SynchronizationAttribute_t3946661254_CustomAttributesCacheGenerator_SynchronizationAttribute_IsContextOK_m324067792P21CustomAttributesCache
Nth:_CustomAttributeData_get_Constructor_m489601093
wAe:_cff_parse_font_bbox
$oe:__ZThn28_N14PhysicsManagerD0Ev
mnc:__Z35Application_Get_Custom_PropIsEditorv
P4c:__Z14raycast_sphereRKN5physx10PxGeometryERKNS_11PxTransformERKNS_6PxVec3ES8_fNS_7PxFlagsINS_9PxHitFlag4EnumEtEEjPNS_12PxRaycastHitEbPFbRSD_PvESG_
Jpm:_ReadOnlyCollection_1_System_Collections_Generic_ICollectionU3CTU3E_Clear_m2563843396_gshared
Vjb:__ZN14PlayerSettings23VirtualRedirectTransferER18StreamedBinaryReadILb0EE
cFk:__ZL105TrackableField_t1772682203_CustomAttributesCacheGenerator_TrackableField__ctor_m3758796351____validTypes0P21CustomAttributesCache
lPj:_Double_System_IConvertible_ToDateTime_m2414543049_AdjustorThunk
KVe:__ZN11UnityEngine15PlatformWrapper16GetVRFieldOfViewEv
KPj:_Double_CompareTo_m3151899116
nlo:__ZN6il2cpp2os5Event5ResetEv
UZb:__Z26CombineDepthNormalsTextureRK17RenderLoopContextR13dynamic_arrayI16RenderObjectDataLj4EE
QDe:_tt_name_ascii_from_other
zqn:_ToggleGroup__ctor_m3308114662
A4n:__ZN6il2cpp8metadata15GenericMetadata17InflateParametersEPK13ParameterInfohPK20Il2CppGenericContextb
yti:_Array_InternalArray__ICollection_Remove_TisNetworkHash128_t2391674535_m1758806499_gshared
mVa:__ZN6Camera13AwakeFromLoadE17AwakeFromLoadMode
y1k:_Array_Sort_TisUILineInfo_t4195266810_m3737783007_gshared
Lxj:_PlayableAsset_Internal_CreatePlayable_m2550417712
Vx:__ZNK17AnimationPlayable27GetNextCompatibleDescendantEi
LSl:_List_1_CheckCollection_m1760832920_gshared
Tbe:__ZNK5physx2Cm12DelegateTaskINS_2Sc5SceneEXadL_ZNS3_23postIslandGenSecondPassEPNS_10PxBaseTaskEEEE7getNameEv
oNa:__ZN4PPtrI6SpriteE8TransferI18StreamedBinaryReadILb0EEEEvRT_
C2e:_ObjectManager_RecordArrayElementFixup_m2171848602
hCk:__ZL111NetworkBehaviour_t204670959_CustomAttributesCacheGenerator_NetworkBehaviour_RegisterCommandDelegate_m1873798754P21CustomAttributesCache
Bro:dynCall_viffff
wFb:__ZN4PPtrI9Texture2DE8TransferI18StreamedBinaryReadILb1EEEEvRT_
yhg:__Z50RuntimeInvoker_Ray_t3785851493_Vector3_t3722313464PFvvEPK10MethodInfoPvPS4_
win:__ZL24UnresolvedVirtualCall_19P12Il2CppObject25DSAParameters_t1885824122PK10MethodInfo
PMb:__Z25SetNeedToPerformRenderingb
Lpo:__ZN10__cxxabiv116__shim_type_infoD2Ev
xJm:_Alternation__ctor_m1629257642
a_k:_UInt64_System_IConvertible_ToInt32_m949522652_AdjustorThunk
yTa:__ZN10GameObjectD2Ev
WUb:__ZN14qsort_internal30FindAndMovePivotToLastPositionIP15RODataDepthPassi17ROSorterDepthPassEEvT_S4_T0_T1_
caj:_MethodAccessException__ctor_m3411913042
AZd:__ZN5physxL27PxcSweepAnyShapeHeightfieldERKNS_11PxsCCDShapeES2_PKNS_12PxsRigidBodyES5_RKNS_11PxTransformES8_fRNS_6PxVec3ESA_RNS_10PxcNpCacheERNS_18PxcNpThreadContextE
Hci:_EqualityComparer_1__ctor_m1767308726_gshared
Rhi:_KeyValuePair_2_get_Key_m2106922848_gshared
H0b:__ZN12CullingGroup10SendEventsEPK17CullingGroupEventj
xKn:__ZNSt3__214__split_bufferI6pollfdRNS_9allocatorIS1_EEED2Ev
hUj:_NumberFormatInfo_get_PerMilleSymbol_m1360140831
_Yi:_Transform_1_BeginInvoke_m942628308_gshared
y1h:_EncryptedData_get_EncryptionAlgorithm_m905084934
vRj:_EventHandler_EndInvoke_m269746120
Pcf:_PointerInputModule__ctor_m3728889932
E_:__ZThn32_NK8Renderer8GetLayerEv
Mic:__ZNK4Mesh17GetPrimitiveCountEv
Epi:_List_1_AddCollection_m2006760402_gshared
FUd:__ZN5physx3Scb5SceneD2Ev
Vni:_Enumerator_System_Collections_IEnumerator_Reset_m2915500989_gshared
BAe:_cff_parse_vsindex
$Jg:_ResourceSet_System_Collections_IEnumerable_GetEnumerator_m2807499934
Y2m:_JoinMatchResponse_set_accessTokenString_m2553303280
YWi:__ZN21InterfaceFuncInvoker1I26KeyValuePair_2_t3186678459xE6InvokeEjP11Il2CppClassP12Il2CppObjectx
Gah:_InternalEnumerator_1__ctor_m1559487635_AdjustorThunk
b0i:_Int32_ValidDigit_m1059003769
ren:_DownloadHandler_Dispose_m2747726581
DAo:_emscripten_glTexParameterfv__wrapper
x_m:_GUIUtility_Internal_GetNextControlID2_m800052281
hck:__ZL54MemberFilter_t426314064_CustomAttributesCacheGeneratorP21CustomAttributesCache
T_f:_NetworkClient_Shutdown_m379636104
Aub:__Z18Transfer_BlittableI14SafeBinaryReadLb1E9BoundsIntEvRK29SerializationCommandArgumentsR31RuntimeSerializationCommandInfo
tXn:_il2cpp_method_get_param_count
Bkc:__ZN10systeminfo19ISOToSystemLanguageERN4core12basic_stringIcNS0_20StringStorageDefaultIcEEEE
qRn:__ZNK15dense_hashtableINSt3__24pairIK10KeyWrapperINS1_IPK12PropertyInfoP11Il2CppClassEEEjEES9_17ReflectionMapHashIS8_EN14dense_hash_mapIS9_jSD_NS9_14EqualsComparerINS0_8equal_toIS8_EEEENS0_9allocatorISB_EEE9SelectKeyESI_SK_E3endEv
Anm:_ReadOnlyCollection_1_System_Collections_Generic_IListU3CTU3E_RemoveAt_m3766228835_gshared
ZTc:__ZN11Rigidbody2D8TransferI19StreamedBinaryWriteILb0EEEEvRT_
Dvm:__ZN28GenericInterfaceFuncInvoker2Ii39CustomAttributeNamedArgument_t287865710S0_E6InvokeEPK10MethodInfoP12Il2CppObjectS0_S0_
S5k:_LayoutGroup_SetProperty_TisAxis_t3613393006_m3591044743_gshared
Wle:__Z16GetDynamicsScenev
SLd:__ZThn8_N5physx2Sc18TriggerInteraction7destroyEv
rXj:__ZL69RuntimeArray_CustomAttributesCacheGenerator_Array_SetValue_m282347242P21CustomAttributesCache
THe:_ps_dimension_done
jNe:__Z46Register_UnityEngine_TextGenerator_Dispose_cppv
Cag:__Z67RuntimeInvoker_GCHandle_t3351438187_RuntimeObject_Int32_t2950945753PFvvEPK10MethodInfoPvPS4_
PPj:_Double_Parse_m4153729520
kvl:_DefaultComparer__ctor_m1037638932_gshared
T9k:_Enumerator_System_Collections_IEnumerator_get_Current_m756005195_AdjustorThunk
Fhb:__ZN14SubstanceInputD2Ev
DZm:_TextEditor_SelectRight_m3884253943
f9a:__ZN16LightmapSettings8TransferI14SafeBinaryReadEEvRT_
vra:__ZN17BufferManagerGLES13ReleaseBufferEP14DataBufferGLES
G2h:_CipherSuite_Write_m1172814058
tdd:__ZN5physx6shdfnd5ArrayIPvNS0_19ReflectionAllocatorINS_16NpConnectorArrayEEEE15growAndPushBackERKS2_
j9g:_InternalEnumerator_1_get_Current_m384374680_gshared
C8i:_SynchronizedWriter_Write_m301917713
Bnm:_ReadOnlyCollection_1_System_Collections_Generic_IListU3CTU3E_get_Item_m985814884_gshared
fom:_ReadOnlyCollection_1_System_Collections_Generic_ICollectionU3CTU3E_get_IsReadOnly_m2688326621_gshared
Dba:__ZN9profiling6MarkerC2EPKc13ProfilerGroupNS0_5FlagsE
psl:_Dictionary_2_System_Collections_Generic_IDictionaryU3CTKeyU2CTValueU3E_get_Values_m1808654056_gshared
PKd:__ZN5physx2Sc5Scene15prepareSimulateEv
mnh:__ZN21InterfaceFuncInvoker1Ii22UILineInfo_t4195266810E6InvokeEjP11Il2CppClassP12Il2CppObjectS0_
jHc:__Z18Transfer_BlittableI8JSONReadLb1EjEvRK29SerializationCommandArgumentsR31RuntimeSerializationCommandInfo
Zed:__ZN5physx6shdfnd5ArrayIPNS_2Sc11InteractionENS0_19ReflectionAllocatorIS4_EEE8recreateEj
r8m:_NetworkWriter_Write_m2295136255
Luh:_ConstructorBuilder_get_IsCompilerContext_m3364441562
Kqj:_Debug_LogWarning_m3752629331
pbm:_Collection_1_get_Count_m3438700176_gshared
Mum:_ReadOnlyCollection_1_System_Collections_Generic_IListU3CTU3E_RemoveAt_m4037795630_gshared
q1m:_ConnectionConfig_get_ChannelCount_m1630695256
Myf:_NetworkTransform_get_clientMoveCallback3D_m1017819967
aUf:_ChannelBuffer_set_numMsgsOut_m1407231675
Ybg:__Z117RuntimeInvoker_Void_t1185182177_RuntimeObject_Int32_t2950945753_Int32_t2950945753_Int32_t2950945753_Int32_t2950945753PFvvEPK10MethodInfoPvPS4_
pKk:__ZL81U3CMouseDragOutsideRectU3Ec__Iterator1_t3909241878_CustomAttributesCacheGeneratorP21CustomAttributesCache
Aff:_U3COnFinishSubmitU3Ec__Iterator0_Reset_m3632769946
Yq:stackSave
$2k:_Dictionary_2_Do_CopyTo_TisInt32_t2950945753_TisRuntimeObject_m213146570_gshared
whf:_ColorTween_get_targetColor_m1724075482_AdjustorThunk
mIe:_ps_dimension_end
E8m:_SpawnDelegate_BeginInvoke_m3131172266
mvc:__Z41Register_UnityEngine_Mesh_Internal_Createv
htb:__ZN16MemoryFileSystem5TouchER13FileEntryData
vSg:_RemotingSurrogateSelector__ctor_m1846610173
W3i:_Path_GetServerAndShare_m2640882202
DQc:__ZNSt3__27__sort3IRN18Overlap2DQueryBase29ColliderHitsByDepthComparitorEPP10Collider2DEEjT0_S7_S7_T_
TCn:__ZN6il2cpp2vm5Class14GetNestedTypesEP11Il2CppClassPPv
mxe:__Z63Register_UnityEngine_Physics_INTERNAL_CALL_Internal_RaycastTestv
oMm:_Uri_get_Fragment_m575158891
HQf:_Console_Open_m3077673205
_Jl:_List_1_Shift_m2491810466_gshared
e2b:__ZN6Camera9SetAspectEf
tyi:_Array_InternalArray__IndexOf_TisDateTime_t3738529785_m2463359116_gshared
Ea:invoke_viiffiii
Sbh:_InternalEnumerator_1_MoveNext_m4138204635_gshared
Pho:__ZN6il2cpp6icalls8mscorlib6System8Security12Cryptography24RNGCryptoServiceProvider8RngCloseEi
gxj:_Object_GetCachedPtr_m151292858
Xsk:__ZL113Physics2D_t1528932956_CustomAttributesCacheGenerator_Physics2D_INTERNAL_CALL_Internal_OverlapCircleAll_m991066286P21CustomAttributesCache
dCo:_emscripten_glBindVertexArray__wrapper
G7n:__ZN6il2cpp6icalls8mscorlib6System4Enum19get_underlying_typeEP20Il2CppReflectionType
tCj:_SceneManager_LoadSceneAsync_m18587237
AJl:_List_1_System_Collections_IList_IndexOf_m1639694781_gshared
jLm:_Parser_IsECMAScript_m674158805
kI:__ZN10ObjectPoolIN4FMOD3DSPENS0_4DSPIEE7GetFreeEi
tUa:__ZN9Transform37InitializeTransformHierarchyRecursiveER18TransformHierarchyRii
LVe:__ZN11UnityEngine15PlatformWrapper30GetVRPlayAreaBoundaryDimensionEv
g0k:_Array_Resize_TisVector2_t2156229523_m1564542050_gshared
Kul:_DefaultComparer_Equals_m3770904334_gshared
$Yg:_ServicePointManager_get_CertificatePolicy_m1966679142
Lno:_fscanf
T_e:__ZNK25UnityWebRequestJavaScript16GetUploadedBytesEv
VS:__Z46AudioListener_CUSTOM_GetNumExtensionPropertiesP12Il2CppObject
Ype:__ZN14SphereCollider23VirtualRedirectTransferER24GenerateTypeTreeTransfer
Ylh:_ArraySegment_1_GetHashCode_m3428798772_AdjustorThunk
TNl:_List_1_CheckIndex_m2989780025_gshared
nBl:_Array_InternalArray__Insert_TisPendingOwner_t3340073490_m3863898071_gshared
_1:__Z14GetMonoManagerv
Gyi:_Array_InternalArray__IndexOf_TisMonoResource_t4103430009_m1351751258_gshared
Ekb:__ZN10VRSettings8TransferI19StreamedBinaryWriteILb0EEEEvRT_
UJd:__ZN5physx2Sc9StaticSim21postActor2WorldChangeEv
z4k:_Dictionary_2_Do_CopyTo_TisTextEditOp_t1927482598_TisTextEditOp_t1927482598_m2365000843_gshared
JRj:_FieldAccessException__ctor_m3583219052
Fqm:_ReadOnlyCollection_1_System_Collections_IList_get_Item_m3018910185_gshared
Qtc:__Z57Register_UnityEngine_Transform_INTERNAL_set_localPositionv
Dkk:__ZL105RectTransform_t3704657025_CustomAttributesCacheGenerator_RectTransform_INTERNAL_get_anchorMax_m1239315619P21CustomAttributesCache
OHl:_List_1_System_Collections_IList_set_Item_m4182383657_gshared
zva:__ZN13GfxDeviceGLES26SetRandomWriteTargetBufferEi15ComputeBufferID
Os:__ZNK4PPtrI4MeshEptEv
A2l:_Collection_1_Contains_m1573275621_gshared
$$k:_Array_Resize_TisUICharInfo_t75501106_m3903846016_gshared
$mm:_ReadOnlyCollection_1_System_Collections_Generic_ICollectionU3CTU3E_get_IsReadOnly_m3887826072_gshared
hRn:__ZNK15dense_hashtableINSt3__24pairIK10KeyWrapperINS1_IPK12PropertyInfoP11Il2CppClassEEEjEES9_17ReflectionMapHashIS8_EN14dense_hash_mapIS9_jSD_NS9_14EqualsComparerINS0_8equal_toIS8_EEEENS0_9allocatorISB_EEE9SelectKeyESI_SK_E8min_sizeEjj
MQb:__ZZ23InitPlayerLoopCallbacksvEN49EarlyUpdateResetFrameStatsAfterPresentRegistrator7ForwardEv
_pd:__ZN5physx6shdfnd4sortIPvNS0_4LessIS2_EENS0_19ReflectionAllocatorINS_2Cm5BlockIhLj256EEEEEEEvPT_jRKT0_RKT1_j
ioo:_poll
bnm:_ReadOnlyCollection_1_System_Collections_IEnumerable_GetEnumerator_m1671097018_gshared
A_k:_UInt64_ToString_m1529093114_AdjustorThunk
dOi:_KeyCollection_System_Collections_Generic_ICollectionU3CTKeyU3E_Remove_m4148848764_gshared
CLg:_TypeLibImportClassAttribute__ctor_m2302178978
$gi:_KeyValuePair_2_ToString_m2322562946_gshared
yFh:_Escape_t3294788190_marshal_pinvoke
suj:_Material__ctor_m1662457592
nOh:_InputField_OnUpdateSelected_m1118869681
Tge:__ZN5physx20InternalTriangleMesh7releaseEv
fYd:__ZN5physx6shdfnd5ArrayINS_16PxsCCDBlockArrayINS_13PxsCCDOverlapELi128EE9BlockInfoENS0_19ReflectionAllocatorIS5_EEE15growAndPushBackERKS5_
mgd:__ZNK5physx7NpShape8getFlagsEv
$2e:_SerializationException__ctor_m3131447373
yAa:__ZN4crnd12crn_unpacker11unpack_dxt1EPPhjjj
fkc:__ZNK11ICallString6ToUTF8Ev
NBg:__Z39RuntimeInvoker_MonoResource_t4103430009PFvvEPK10MethodInfoPvPS4_
WBn:__ZN15dense_hashtableINSt3__24pairIK10KeyWrapperIPK22Il2CppGenericParameterEP11Il2CppClassEES6_N6il2cpp5utils11PointerHashIS4_EEN14dense_hash_mapIS6_S9_SE_NS6_14EqualsComparerINS0_8equal_toIS5_EEEENS0_9allocatorISA_EEE9SelectKeyESJ_SL_E15insert_noresizeERKSA_
RUi:_Transform_1_Invoke_m2468053724_gshared
Nag:__Z51RuntimeInvoker_Void_t1185182177_TimeSpan_t881159249PFvvEPK10MethodInfoPvPS4_
XUb:__ZNSt3__211__sift_downIR17ROSorterDepthPassP15RODataDepthPassEEvT0_S5_T_NS_15iterator_traitsIS5_E15difference_typeES5_
CHd:__ZN5physx19NpRigidBodyTemplateINS_14PxRigidDynamicEE25setMassSpaceInertiaTensorERKNS_6PxVec3E
Hzd:__ZNK5physx7NpCloth16getContactOffsetEv
fnc:__ZNSt3__214__split_bufferIPN9BlobWrite11TypeContextENS_9allocatorIS3_EEE10push_frontERKS3_
q5m:_Request__cctor_m3097775336
lDf:_ArgumentException__ctor_m3200406061
xC:__ZN8Animator17ApplyOnAnimatorIKEiRNS_11AnimatorJobE
n4:__ZN12FileAccessor4ReadEyyPvPy
Lil:_Dictionary_2_Clear_m2091447274_gshared
TIb:__Z29Transfer_Blittable_ArrayFieldI18StreamedBinaryReadILb0EE11QuaternionfEvRT_R9ArrayInfoRK23StaticTransferFieldInfo
DJn:__ZNSt3__26vectorIN6il2cpp2os11PollRequestENS_9allocatorIS3_EEE26__swap_out_circular_bufferERNS_14__split_bufferIS3_RS5_EE
KXl:_List_1_set_Capacity_m2777925136_gshared
ouf:_NetworkReader_ReadRay_m1087019118
ikc:__Z21GetSceneHierarchyPathPK6Object
m9m:_ULocalConnectionToClient_get_localClient_m3517974156
_Jc:__ZN11UnityEngine9Analytics18RenderingInfoEvent13SetFrameStatsERK13dynamic_arrayIjLj4EEjjj
$Mm:_Predicate_1_BeginInvoke_m590569724_gshared
fCi:_Enumerator_VerifyCurrent_m1156881289_gshared
Mwk:__ZL90JoinMatchResponse_t845270609_CustomAttributesCacheGenerator_U3CnetworkIdU3Ek__BackingFieldP21CustomAttributesCache
H1b:__ZN13RenderTexture9SetHeightEi
nHh:__ZN28GenericInterfaceFuncInvoker1IbiE6InvokeEPK10MethodInfoP12Il2CppObjecti
kw:__ZN7mecanim9animation17ClearMotionOutputEPNS0_18AnimationNodeStateE
r3h:_CipherSuiteCollection_get_IsFixedSize_m3127823890
r0a:__ZN16LevelGameManager8TransferI24GenerateTypeTreeTransferEEvRT_
S2m:_JoinMatchResponse_get_port_m3002546777
klh:_InternalEnumerator_1_System_Collections_IEnumerator_get_Current_m3537550566_gshared
VTh:_Scrollbar_UpdateVisuals_m2492252165
ICk:__ZL67NetworkInstanceId_t786350175_CustomAttributesCacheGenerator_m_ValueP21CustomAttributesCache
yfi:_HashSet_1__ctor_m4046659463_gshared
m7e:_HMACMD5__ctor_m3008609295
aKj:_DateTime__ParseAmPm_m3478436123
GKj:_DateTime_ToString_m2992030064_AdjustorThunk
jzi:_Array_InternalArray__IndexOf_TisCRCMessageEntry_t1041239249_m2285474496_gshared
JEe:_tt_cmap8_char_index
Y1:__Z24scripting_class_get_name17ScriptingClassPtr
$Zg:_Oid__ctor_m911618594
Yqn:_VerticalLayoutGroup_CalculateLayoutInputHorizontal_m1404590745
efa:__ZN13RuntimeStaticI15GUIEventManagerLb0EE13StaticDestroyEPv
ebj:_ShortComparer_Compare_m1881262465
rwb:__Z29Transfer_Blittable_ArrayFieldI14SafeBinaryReadjEvRT_R9ArrayInfoRK23StaticTransferFieldInfo
Ze:_emscripten_set_keydown_callback
QOk:_EncoderReplacementFallback__ctor_m1483565116
q3g:_Interpreter_IsWordChar_m2858055765
yzg:__Z77RuntimeInvoker_Void_t1185182177_SingleU5BU5DU26_t2684236517_Int32_t2950945753PFvvEPK10MethodInfoPvPS4_
hOf:_Hashtable_CopyTo_m2905447224
v4:__ZN12FileAccessorC2Ev
pzg:__Z96RuntimeInvoker_Void_t1185182177_BooleanU5BU5DU26_t3454195888_Int32_t2950945753_Int32_t2950945753PFvvEPK10MethodInfoPvPS4_
Fci:_EqualityComparer_1_System_Collections_IEqualityComparer_Equals_m3855544238_gshared
Rkd:__ZN5physx2Sc15ArticulationSim12applyImpulseERNS0_8BodyCoreERKNS_9PxcFsDataERKNS_6PxVec3ES9_
Sjj:_String_System_IConvertible_ToDouble_m3740733360
eDl:_Array_InternalArray__set_Item_TisPeerInfoPlayer_t607460057_m178647307_gshared
oA:__ZThn152_NK26AnimatorControllerPlayable25GetStateMachineBehavioursEv
FSm:_EventFunction_1_Invoke_m2429482587_gshared
adm:_Collection_1_System_Collections_IList_IndexOf_m3492804126_gshared
Ane:__ZN19CharacterController9GetBoundsEv
i_g:_AsnEncodedData_SubjectAltName_m4049949414
Ixk:__ZL93MatchDirectConnectInfo_t2855340396_CustomAttributesCacheGenerator_U3CnodeIdU3Ek__BackingFieldP21CustomAttributesCache
NMn:__ZN6il2cpp2vm7Runtime12GetConfigDirEv
Xqn:_VerticalLayoutGroup__ctor_m321345421
Ys:__ZN4PPtrI13MonoBehaviourE8TransferI18StreamedBinaryReadILb0EEEEvRT_
wbm:_Collection_1_IsSynchronized_m2513038166_gshared
Fli:_Enumerator_MoveNext_m1177880931_AdjustorThunk
kkd:__ZNK5physx14NpArticulation26getInternalDriveIterationsEv
vXh:_Slider_UpdateVisuals_m3662961057
qqk:__ZL82Event_t2956885303_CustomAttributesCacheGenerator_Event_get_commandName_m4275147343P21CustomAttributesCache
mun:_TextGenerator_Populate_m194003733
r_f:_NetworkClient_get_isConnected_m720763258
Hfk:__ZL111ScriptableObject_t2528358522_CustomAttributesCacheGenerator_ScriptableObject_CreateInstanceFromType_m1997111014P21CustomAttributesCache
jkn:__ZL25UnresolvedVirtualCall_114P12Il2CppObjecttPK10MethodInfo
TUl:_List_1_set_Item_m1940244752_gshared
Ovh:_DerivedType_get_FullName_m1025358827
s5e:_CryptoConfig_MapNameToOID_m2044758263
XJk:__ZL70InputField_t3762917431_CustomAttributesCacheGenerator_m_OnValueChangedP21CustomAttributesCache
dLb:__Z39WriteQueueForTransferSignatureIntoCacheRK31TransferFunctionScriptingTraitsRK24TransferRequestSignature17ScriptingClassPtrR23CachedSerializationDataRb
Xxd:__ZN5physx15NpActorTemplateINS_7PxClothEE22setClientBehaviorFlagsENS_7PxFlagsINS_25PxActorClientBehaviorFlag4EnumEhEE
cQk:_Encoding_get_UTF8UnmarkedUnsafe_m320312322
eUk:_Thread_Thread_free_internal_m333849022
ZDc:__Z35Transfer_Blittable_FixedBufferFieldI9JSONWritexEvRK29SerializationCommandArgumentsR31RuntimeSerializationCommandInfo
VOl:_List_1_RemoveAll_m2257438172_gshared
xGm:_CostDelegate_BeginInvoke_m2828452701
nVe:__ZN22BaseUnityConnectClient30OnEnteringStatePausedOrStoppedEv
LSc:__ZN10ClipperLib7Clipper18SwapPositionsInAELEPNS_5TEdgeES2_
kem:_Collection_1_ConvertItem_m1556170494_gshared
yw:__ZN7mecanim5human12HumanPoseAddERNS0_9HumanPoseERKS1_S4_
AIj:_DateTime_ToUniversalTime_m1945318289
FKf:_ArrayList_ToArray_m3827492363
NXh:_Slider_get_stepSize_m1423227661
v_k:_UInt64_Parse_m819899889
Vej:_SymmetricAlgorithm_set_IV_m3196220308
oSl:_List_1_System_Collections_IList_get_IsFixedSize_m2063202631_gshared
hyh:_GenericTypeParameterBuilder_GetHashCode_m852224381
BTf:_Convert_ToUInt32_m1453583008
FSj:_CompareInfo_Compare_m894311506
bUa:__Z24MergeTransformComponentsR9TransformS0_b
BFh:_PreviousInfo_t2148130204_marshal_pinvoke
wlh:_InternalEnumerator_1_System_Collections_IEnumerator_get_Current_m3982010935_AdjustorThunk
Rfd:__ZThn24_N5physx2Sc20ArticulationJointSimD0Ev
B9e:_EventSystem_UpdateModules_m3643806022
hao:__ZN6il2cpp2gc16GarbageCollector10StartWorldEv
Jpe:__ZN14PhysicsManager32AddToTriggerStayStatesIfRequiredEPK9Rigidbody
GPc:__ZN15b2CircleContactD0Ev
own:_AnimationOffsetPlayable__cctor_m1029460816
Ufk:__ZL86Camera_t4157153871_CustomAttributesCacheGenerator_Camera_get_targetTexture_m2278634983P21CustomAttributesCache
_sk:__ZL54Collision2D_t2842956331_CustomAttributesCacheGeneratorP21CustomAttributesCache
chj:_Evidence_get_SyncRoot_m2835084965
V9c:__ZN5physx14PxsAABBManager12createBPElemEv
lui:_SetPropertyUtility_SetStruct_TisTouchScreenKeyboardType_t1530597702_m2455393348_gshared
_ul:_DefaultComparer__ctor_m2280347240_gshared
Ran:_GetDelegate_Invoke_m360432159
Iwd:__ZThn12_N5physx7NpShape14onRefCountZeroEv
K5j:__ZL59ICryptoTransform_t2733259762_CustomAttributesCacheGeneratorP21CustomAttributesCache
aYc:__ZL26GeomMTDCallback_ConvexMeshRN5physx6PxVec3ERfRKNS_10PxGeometryERKNS_11PxTransformES5_S8_
qco:__ZN6il2cpp2vm13ComObjectBase19GetRuntimeClassNameEPP15Il2CppHString__
XHb:__Z35Transfer_Blittable_FixedBufferFieldI18StreamedBinaryReadILb0EEyEvRK29SerializationCommandArgumentsR31RuntimeSerializationCommandInfo
qqd:__ZN5physx15NpActorTemplateINS_18PxArticulationLinkEE22setClientBehaviorFlagsENS_7PxFlagsINS_25PxActorClientBehaviorFlag4EnumEhEE
Tk:_emscripten_glVertexAttribPointer
jqo:__ZNSt11logic_errorD0Ev
XYa:__ZNK20IntermediateRenderer12GetSceneMaskEv
SNb:__ZN14PreloadManager26UpdatePreloadingSingleStepENS_21UpdatePreloadingFlagsEi
ang:__Z78RuntimeInvoker_CollisionFlags_t1776808576_RuntimeObject_Vector3U26_t3464235976PFvvEPK10MethodInfoPvPS4_
fWm:_TweenRunner_1__ctor_m340723704_gshared
BWh:_ScrollRect_SetLayoutHorizontal_m3078869633
jce:__ZN18ScBeforeSolverTask11runInternalEv
GKn:__ZN6il2cpp2vm10ThreadPool4WaitEP17Il2CppAsyncResultPPv
nEh:_SimpleCollator__ctor_m1587210019
qql:_Dictionary_2__ctor_m3226857183_gshared
Frc:__Z57Register_UnityEngine_RectTransform_INTERNAL_set_anchorMinv
ycd:__ZL33GeomOverlapCallback_CapsuleConvexRKN5physx10PxGeometryERKNS_11PxTransformES2_S5_PNS_2Gu12TriggerCacheE
wTf:_Convert_ToUInt16_m1480956416
XBa:__ZN6prcoreL25inner_stretch_i8_bilinearEPKNS_9InnerInfoE
q9g:_InternalEnumerator_1__ctor_m2118365034_AdjustorThunk
Eob:__ZL30RegisterFilteredObjectCallbackPP12Il2CppObjectiPv
ium:_ReadOnlyCollection_1_System_Collections_Generic_IListU3CTU3E_RemoveAt_m3317217538_gshared
Qpk:__ZL54AudioSource_t3935305588_CustomAttributesCacheGeneratorP21CustomAttributesCache
hOb:__Z19InitializeGfxDevicev
m8m:_NetworkWriter_Write_m2596080445
sV:__ZN11UnityEngine15CloudWebService16SessionContainer24GetSessionHeaderJsonDataERKN4core12basic_stringIcNS2_20StringStorageDefaultIcEEEERNS2_13StringBuilderE
vTl:__ZN21InterfaceFuncInvoker0I25PeerInfoPlayer_t607460057E6InvokeEjP11Il2CppClassP12Il2CppObject
qvh:_DerivedType_GetEvent_m4157575360
Sea:__ZN13RuntimeStaticI21AssetReferenceStorageLb0EE13StaticDestroyEPv
_ge:__ZN5physx20InternalTriangleMesh9loadRTreeERNS_13PxInputStreamEj
v4e:_SByte_System_IConvertible_ToType_m4075253447_AdjustorThunk
J2i:_IntPtr_op_Inequality_m3063970704
NId:__ZN5physx19NpRigidBodyTemplateINS_14PxRigidDynamicEE25setCMassLocalPoseInternalERKNS_11PxTransformE
tNf:_Comparer__ctor_m2831654082
BJd:__ZNK5physx15NpActorTemplateINS_13PxRigidStaticEE14getOwnerClientEv
dCl:_Array_InternalArray__set_Item_TisKeyValuePair_2_t2530217319_m258011711_gshared
org:__Z72RuntimeInvoker_Bounds_t2266837910_RuntimeObject_Matrix4x4U26_t3606180965PFvvEPK10MethodInfoPvPS4_
kym:__ZN28GenericInterfaceFuncInvoker2IbiiE6InvokeEPK10MethodInfoP12Il2CppObjectii
b8n:__ZN6il2cpp6icalls8mscorlib6System9AppDomain22InternalGetProcessGuidEP12Il2CppString
Hye:_cf2_builder_moveTo
A6l:_Collection_1_System_Collections_IList_Contains_m3397768605_gshared
_hh:_InternalEnumerator_1_get_Current_m1707933208_AdjustorThunk
WEd:__ZN5physx2Sc18ParticleSystemCore16releaseParticlesEv
zZd:__ZNK5physx2Gu29EPASupportMapPairRelativeImplINS0_8CapsuleVENS0_4BoxVEE6getDirEv
D4c:__ZN5physx2Gu20intersectTriangleBoxERKNS_6shdfnd3aos5Vec3VES5_S5_S5_S5_
sak:__ZL79Convert_t2465617642_CustomAttributesCacheGenerator_Convert_ToUInt32_m3188121845P21CustomAttributesCache
M5f:__Z48RuntimeInvoker_RuntimeObject_Decimal_t2948259380PFvvEPK10MethodInfoPvPS4_
uUk:_ThreadStart_EndInvoke_m3768045394
ylm:_ReadOnlyCollection_1_System_Collections_IList_Insert_m1893317131_gshared
xQa:__ZNK17FileSystemHandler10IsReadOnlyERK13FileEntryData
dkn:__ZL25UnresolvedVirtualCall_108P12Il2CppObjectS0_aPK10MethodInfo
qLn:__ZNSt3__214__split_bufferIP9FieldInfoRNS_9allocatorIS2_EEEC2EjjS5_
z3e:_StreamingContext__ctor_m2604757771_AdjustorThunk
OAb:__Z18Transfer_BlittableI24GenerateTypeTreeTransferLb1EjEvRK29SerializationCommandArgumentsR31RuntimeSerializationCommandInfo
WRl:_List_1_get_Capacity_m2226439327_gshared
hYl:_List_1_AddCollection_m1469681717_gshared
NQn:__ZNK15dense_hashtableINSt3__24pairIK10KeyWrapperINS1_IPK11Il2CppImageP11Il2CppClassEEEjEES9_17ReflectionMapHashIS8_EN14dense_hash_mapIS9_jSD_NS9_14EqualsComparerINS0_8equal_toIS8_EEEENS0_9allocatorISB_EEE9SelectKeyESI_SK_E10test_emptyERK30dense_hashtable_const_iteratorISB_S9_SD_SM_SI_SK_E
Jmg:__Z103RuntimeInvoker_Boolean_t97287965_Ray_t3785851493_Single_t1397266774_Int32_t2950945753_Int32_t2950945753PFvvEPK10MethodInfoPvPS4_
RZf:_NetworkBehaviour_GetNetworkChannel_m3389780934
pac:__ZNK28RectTransformPropertyBinding9BindValueER6ObjectRKN11UnityEngine9Animation14GenericBindingERNS3_10BoundCurveE
X9:__ZN11ColorRGBA328TransferI14SafeBinaryReadEEvRT_
Gtn:_TextGenerationSettings_CompareColors_m3051734236
g3l:_Collection_1_Add_m1736908447_gshared
Oqm:_ReadOnlyCollection_1_System_Collections_Generic_ICollectionU3CTU3E_Add_m903654553_gshared
QAe:_cff_vstore_done
Ise:__ZN5physx6shdfnd5ArrayIPvNS0_19ReflectionAllocatorINS_24NpPtrTableStorageManager8PtrBlockILi4EEEEEE15growAndPushBackERKS2_
con:__ZL25UnresolvedVirtualCall_323P12Il2CppObject26NetworkHash128_t2391674535S1_PK10MethodInfo
ugg:__Z68RuntimeInvoker_Void_t1185182177_UInt16_t2177724958_SByte_t1669577662PFvvEPK10MethodInfoPvPS4_
X_k:__ZN25GenericVirtActionInvoker2IP12Il2CppObjectP39UnhandledExceptionEventArgs_t2886101344E6InvokeEPK10MethodInfoS1_S1_S3_
aah:_InternalEnumerator_1_get_Current_m3008260692_AdjustorThunk
L7e:_MACTripleDES_HashFinal_m3613553534
lyf:_ReconnectMessage_Serialize_m2768541593
sBa:__Z11IsHDRFormat13TextureFormat
wvf:_NetworkServerSimple_Configure_m2370734296
Dg:_emscripten_glClearDepth
oec:__ZNK8GUILayer22GetTypeVirtualInternalEv
jMj:_Decimal__ctor_m336758058
lab:__ZN14SafeBinaryRead21TransferSTLStyleArrayINSt3__26vectorIN15QualitySettings14QualitySettingENS1_9allocatorIS4_EEEEEEvRT_17TransferMetaFlags
Wue:__Z13RegisterClassI12MeshColliderEvv
iQm:_UnityAction_1__ctor_m3007623985_gshared
lNi:_KeyCollection__ctor_m2388548663_gshared
Cug:__Z56RuntimeInvoker_Boolean_t97287965_ILTokenInfo_t2325775114PFvvEPK10MethodInfoPvPS4_
tjb:__ZNSt3__26vectorINS_4pairIPKN5Unity4TypeE7Hash128EENS_9allocatorIS7_EEE8__appendEj
TAe:_cff_font_load
Lsl:_Dictionary_2_InitArrays_m1241633780_gshared
olc:__Z13IsPathCreatedRKN4core12basic_stringIcNS_20StringStorageDefaultIcEEEE
JIk:__ZL99Dropdown_t2274391225_CustomAttributesCacheGenerator_Dropdown_DelayedDestroyDropdownList_m2082128994P21CustomAttributesCache
W$d:__ZN5physx35solveContactPreBlock_ConcludeStaticEPKNS_23PxcSolverConstraintDescEjRNS_16PxcSolverContextE
B6m:_ClientMoveCallback2D_EndInvoke_m2506226374
Mqj:_Debug_LogWarningFormat_m2535776735
CBa:__ZL22stbir__encode_scanlineP11stbir__infoiPvPfiii
Fin:__ZL24UnresolvedVirtualCall_28P12Il2CppObjectS0_iiPK10MethodInfo
IKg:_ExternalException__ctor_m2877839282
Lxe:__ZN20QuadTreeNodeRenderer13StaticDestroyEPv
oW:__ZN11UnityEngine15CloudWebService20WebRequestRestClient5AbortEv
Mem:_Collection_1_InsertItem_m954500348_gshared
vJm:_Regex_Matches_m2080913806
Bac:__ZN9Transform12CleanupClassEv
E2m:_JoinMatchRequest_get_networkId_m2534671775
dDj:_Sprite_get_rect_m2575211689
Ned:__ZN5physx6shdfnd5ArrayIPvNS0_15InlineAllocatorILj256ENS0_19ReflectionAllocatorINS_2Cm5BlockIS2_Lj32EEEEEEEE15growAndPushBackERKS2_
jbe:__ZN5physx18PxsSolverStartTask13setupDescTaskEv
ZLe:_UNITY_FT_Set_Pixel_Sizes
Vrh:_OperatingSystem_Clone_m1122165140
dna:__ZNSt3__26vectorIN9ShaderLab19SerializedSubShaderENS_9allocatorIS2_EEE26__swap_out_circular_bufferERNS_14__split_bufferIS2_RS4_EE
bC:__ZN11UnityEngine9Animation33SetGenericTransformPropertyValuesERKNS0_30AnimatorGenericBindingConstantERKN7mecanim10ValueArrayEP9Transformy
Z8j:__ZL59AttributeTargets_t1784037988_CustomAttributesCacheGeneratorP21CustomAttributesCache
Yml:_Dictionary_2_System_Collections_Generic_ICollectionU3CSystem_Collections_Generic_KeyValuePairU3CTKeyU2CTValueU3EU3E_Contains_m265809325_gshared
msk:__ZL82GUISkin_t1244372282_CustomAttributesCacheGenerator_m_horizontalScrollbarLeftButtonP21CustomAttributesCache
CWc:__ZN5physx3Cct13BoxController6resizeEf
Lvi:_Array_InternalArray__IEnumerable_GetEnumerator_TisPendingOwner_t3340073490_m1110874742_gshared
_mk:__ZL57PlayableHandle_t1095853803_CustomAttributesCacheGeneratorP21CustomAttributesCache
OWk:_Type_type_is_subtype_of_m1406623598
Eqf:_NetworkServer_InternalDisconnectAll_m1687721541
Ivi:_Array_InternalArray__IEnumerable_GetEnumerator_TisRaycastResult_t3360306849_m3650537473_gshared
Pce:__ZN5physx6shdfnd5ArrayINS_2Cm12DelegateTaskINS_2Sc5SceneEXadL_ZNS5_19updateCCDSinglePassEPNS_10PxBaseTaskEEEEENS0_19ReflectionAllocatorIS8_EEE8recreateEj
SSk:_Thread_get_CurrentThread_m4142136012
JGe:_Dual_Project
rVb:__ZNSt3__27__sort4IRNS_6__lessI11CulledLightS2_EEPS2_EEjT0_S6_S6_S6_T_
RUn:__ZN6il2cpp2vm14TypeNameParser26ParseArrayModifierOptionalEv
T0:__Z26scripting_object_get_class18ScriptingObjectPtr
J_n:__ZN6il2cpp6icalls8mscorlib6System10Reflection8Assembly13get_code_baseEP24Il2CppReflectionAssemblyb
emb:__ZNSt3__26vectorIN4core12basic_stringIcNS1_20StringStorageDefaultIcEEEE13stl_allocatorIS5_L18MemLabelIdentifier13ELi16EEE7reserveEj
Gan:_ReflectionUtils_GetSetMethod_m2399224621
Oqd:__ZN5physx34NpShapeGetScRigidObjectFromScbSLOWERKNS_3Scb5ShapeE
A6e:_DSASignatureDeformatter__ctor_m2889130126
q1g:_X509ChainElementCollection_Clear_m2271223414
D5m:_UNETWebSocketLib_Stop_m4087678754
aac:__ZNK28MonoBehaviourPropertyBinding15GenerateBindingERKN4core12basic_stringIcNS0_20StringStorageDefaultIcEEEEbRN11UnityEngine9Animation14GenericBindingE
sBj:_RectTransform_INTERNAL_set_pivot_m1160676233
LYl:_List_1_set_Item_m35836043_gshared
gAk:__ZL85HostTopology_t4059263395_CustomAttributesCacheGenerator_m_MessagePoolSizeGrowthFactorP21CustomAttributesCache
oLk:__ZL70ScrollRect_t4137855814_CustomAttributesCacheGenerator_m_OnValueChangedP21CustomAttributesCache
L5k:_NetworkServer_SetNetworkConnectionClass_TisRuntimeObject_m1536253656_gshared
h1g:_X509ChainElementCollection__ctor_m3424079155
tGi:_Enumerator_System_Collections_IDictionaryEnumerator_get_Value_m3881181744_AdjustorThunk
EGm:_LinkStack_Push_m3081279930
Sgj:_CodeGroup_get_MembershipCondition_m1599317297
Xhb:__ZN14SubstanceValue8TransferI18StreamedBinaryReadILb0EEEEvRT_
tFi:_Enumerator_MoveNext_m1107569389_gshared
NMj:_Decimal_System_IConvertible_ToUInt64_m1323635232
Fid:__ZNK5physx21PxsBodyTransformVault12getTransformERKNS_11PxsBodyCoreE
YBg:__Z41RuntimeInvoker_ContactPoint2D_t3390240644PFvvEPK10MethodInfoPvPS4_
rLn:__ZNSt3__26vectorIP9FieldInfoNS_9allocatorIS2_EEE26__swap_out_circular_bufferERNS_14__split_bufferIS2_RS4_EE
ASm:_UnityEvent_3_GetDelegate_m1156357290_gshared
pao:__ZN6il2cpp6icalls8mscorlib6System11Environment15internalGetHomeEv
gzg:__Z77RuntimeInvoker_Void_t1185182177_Int32_t2950945753_CRCMessageEntry_t1041239249PFvvEPK10MethodInfoPvPS4_
Ddh:_InternalEnumerator_1__ctor_m4200721464_gshared
pvj:_Matrix4x4_GetHashCode_m4034747639_AdjustorThunk
mnl:_Dictionary_2_CopyTo_m2654175714_gshared
LJg:_ResourceCacheItem_t51292791_marshal_pinvoke_cleanup
i_:__ZNK5Unity9Component7GetNameEv
VLn:__ZNSt3__214__split_bufferIN6il2cpp6icalls8mscorlib6System12PropertyPairERNS_9allocatorIS5_EEEC2EjjS8_
Yej:_SymmetricAlgorithm_get_KeySize_m4185004893
bIl:_List_1_GetEnumerator_m232588170_gshared
xYc:__ZN44ConvexVsHeightfieldContactGenerationCallback7onEventEjPj
f3k:_Dictionary_2_Do_CopyTo_TisKeyValuePair_2_t2164477162_TisKeyValuePair_2_t2164477162_m189711542_gshared
Ilh:_ArraySegment_1_Equals_m1171734138_gshared
PSm:_U3CProcessMatchResponseU3Ec__Iterator0_2_System_Collections_Generic_IEnumeratorU3CobjectU3E_get_Current_m3525193226_gshared
bqj:_Native__cctor_m1435623442
$Wl:_List_1_System_Collections_IList_Remove_m1070694895_gshared
e$m:_LayoutCache__ctor_m3885940174
Pab:__ZN13ScreenManagerD0Ev
jLn:__ZN6il2cpp6icalls8mscorlib6SystemL16CheckMemberMatchI9FieldInfoNS_5utils10functional6FilterINSt3__212basic_stringIcNS8_11char_traitsIcEENS8_9allocatorIcEEEENS5_13VmStringUtils23CaseInsensitiveComparerEEEEEbPKT_PK11Il2CppClassSN_iRKT0_
gwn:_AnimationMotionXToDeltaPlayable_GetHandle_m1319190040_AdjustorThunk
gLc:__ZNK11b2RopeJoint16GetReactionForceEf
pD:__ZN7mecanim8skeleton26SkeletonPoseComputeGlobalQEPKNS0_8SkeletonEPKNS0_13SkeletonPoseTIN4math4trsXEEEPS7_ii
hBm:_TlsServerSettings__ctor_m373357120
QZk:_UInt64_System_IConvertible_ToByte_m1501504925_AdjustorThunk
fun:_TextGenerator_Invalidate_m1072346986
b6h:_TlsClientHello_ProcessAsTls1_m2549285167
Wxg:__Z66RuntimeInvoker_Void_t1185182177_NetworkBroadcastResult_t2174414888PFvvEPK10MethodInfoPvPS4_
hgl:_Dictionary_2_ToTValue_m3427058824_gshared
mOl:_List_1_System_Collections_ICollection_CopyTo_m1406996969_gshared
a_d:__ZN5physx2Gu19_gjkRelativeRayCastINS0_9TriangleVENS0_8CapsuleVEEEbRT_RT0_RKNS_6shdfnd3aos15PsMatTransformVERKNS9_6FloatVERKNS9_5Vec3VESI_RSD_RSG_SK_f
iVh:_ScrollRect_set_decelerationRate_m723367336
RC:__ZN9BlobWrite8TransferI22OffsetPtrArrayTransferIiEEEvRT_PKc17TransferMetaFlags
FOk:_EncoderExceptionFallback_Equals_m2760188920
kXf:_DotNetCompatibility_GetBaseType_m4236009197
ZDk:__ZL64NetworkTransformChild_t2600331682_CustomAttributesCacheGeneratorP21CustomAttributesCache
azb:__Z18Transfer_BlittableI17RemapPPtrTransferLb1EjEvRK29SerializationCommandArgumentsR31RuntimeSerializationCommandInfo
h8e:_RC2CryptoServiceProvider_get_EffectiveKeySize_m3835262416
ojd:__ZN5physx6shdfnd5ArrayIPvNS0_15InlineAllocatorILj256ENS0_19ReflectionAllocatorINS_11NpAggregateEEEEEE15growAndPushBackERKS2_
Xyk:__ZL89MatchInfoSnapshot_t3166422189_CustomAttributesCacheGenerator_U3CmaxSizeU3Ek__BackingFieldP21CustomAttributesCache
SM:__ZN4FMOD6System7releaseEv
$Vd:__ZN5physx6shdfnd8PoolBaseINS_2Sc18TriggerInteractionENS0_19ReflectionAllocatorIS3_EEE15disposeElementsEv
l$f:_NetworkCRC_get_singleton_m4217447640
t0f:_NetworkDiscovery_get_broadcastInterval_m630253457
MCb:__Z18Transfer_BlittableI19StreamedBinaryWriteILb0EELb1E8BitFieldEvRK29SerializationCommandArgumentsR31RuntimeSerializationCommandInfo
gHf:_Boolean_CompareTo_m3665076258
lkj:_String_Split_m3580120853
q1f:_NetworkIdentity_OnCheckObserver_m4144787888
S3:__Z18PathToAbsolutePathRKN4core12basic_stringIcNS_20StringStorageDefaultIcEEEE
Rzh:_PropertyBuilder_GetCustomAttributes_m2917594003
X$m:_GUILayoutUtility_LayoutFromEditorWindow_m2914699782
BZh:_BigInteger_SetBit_m1723423691
Nte:__ZN5physx28PxcContactCapsuleHeightFieldERKNS_2Gu13GeometryUnionES3_RKNS_11PxTransformES6_RKfRNS_10PxcNpCacheERNS0_13ContactBufferE
UJi:_Enumerator_System_Collections_IEnumerator_get_Current_m902848290_AdjustorThunk
vsg:__Z78RuntimeInvoker_RuntimeObject_ObjectU26_t2146539884_RuntimeObject_RuntimeObjectPFvvEPK10MethodInfoPvPS4_
CZj:__ZL65X509ExtensionCollection_t609554708_CustomAttributesCacheGeneratorP21CustomAttributesCache
TTe:__ZN21UnityAnalyticsManager15ThreadedCleanupEv
sYc:__ZL31PointInConvexPolygon2D_OutCodesPKfjffffRh
nGd:__ZN5physx22NpParticleBaseTemplateINS_16PxParticleSystemENS_16NpParticleSystemEE18setDynamicFrictionEf
eBa:__ZL13BlitImageImplR14ImageReferenceiiRKS_NS_10ColorSpaceENS_8BlitModeEb
Sfc:__ZN15DirectorManager17AcquireOutputNodeEv
nDa:__ZN6prcoreL17RemapGenericFloatI18TexFormatRGBAFloat17TexFormatRGBFloatEEvPKNS_9InnerInfoE
Idn:_GameObject_GetComponentInChildren_TisRuntimeObject_m1310240902_gshared
otg:__Z37RuntimeInvoker_Enumerator_t3092243617PFvvEPK10MethodInfoPvPS4_
Bmd:__ZN5physx2Sc21ArticulationJointCore21setInternalComplianceEf
vIh:__ZN30GenericInterfaceActionInvoker2IP12Il2CppObjectP21EventArgs_t3591816995E6InvokeEPK10MethodInfoS1_S1_S3_
Fwe:__ZN9Rigidbody12MoveRotationERK11Quaternionf
Oke:__ZNK5physx6shdfnd10Foundation13getErrorLevelEv
pmk:__ZL69PersistentCall_t3407714124_CustomAttributesCacheGenerator_m_ArgumentsP21CustomAttributesCache
aKa:__ZN16GeometryJobTasks20ScheduleGeometryJobsER9GfxDevicePFvP15GeometryJobDataEPK22GeometryJobInstructionjb
p6h:_TlsServerCertificateRequest_ProcessAsSsl3_m1084200341
XK:__ZN12AudioManager29ShutdownReinitializeAndReloadEv
$0a:__ZN16ReflectionProbes28GetMinBakedCubemapResolutionEv
ntn:_PlayerFollower_Start_m2734354674
MUf:_ChannelPacket_Reset_m2045001772_AdjustorThunk
Zde:__ZN5physx2Cm12DelegateTaskINS_2Sc5SceneEXadL_ZNS3_15postNarrowPhaseEPNS_10PxBaseTaskEEEE11runInternalEv
T9g:_InternalEnumerator_1__ctor_m1196506529_gshared
Zue:__Z20ConvertContactToMonoP9Collision
Kgj:_PermissionSet__ctor_m2328457660
a8k:_Enumerator__ctor_m1849900510_gshared
_bo:__GLOBAL__sub_I_String_cpp
TBn:__ZN15dense_hashtableINSt3__24pairIK10KeyWrapperIPK22Il2CppGenericParameterEP11Il2CppClassEES6_N6il2cpp5utils11PointerHashIS4_EEN14dense_hash_mapIS6_S9_SE_NS6_14EqualsComparerINS0_8equal_toIS5_EEEENS0_9allocatorISA_EEE9SelectKeyESJ_SL_E6insertERKSA_
wOh:_InputField_GenerateCaret_m1459647218
Nfk:__ZL49Camera_t4157153871_CustomAttributesCacheGeneratorP21CustomAttributesCache
Pkk:__ZL101SpriteAtlasManager_t3158462485_CustomAttributesCacheGenerator_SpriteAtlasManager_Register_m2413332465P21CustomAttributesCache
ZCm:_X509CertificateEnumerator__ctor_m85694331
$wa:__ZN14DataBufferGLES16RecreateWithDataEjPKv
M5:__Z29GetGlobalAllowNameConversionsv
rYc:__ZL17transformVerticesRfS_S_S_PfjPKN5physx6PxVec3EPKhRKNS1_7PxMat33E
Ste:__ZNK5physx2Gu15HeightFieldUtil31getFaceIndexAtShapePointNoTest2Ejff
eAl:_Array_InternalArray__Insert_TisTableRange_t3332867892_m558285859_gshared
$ai:_EqualityComparer_1_System_Collections_IEqualityComparer_GetHashCode_m2355345853_gshared
m3b:__ZN8Material8SetColorEN9ShaderLab16FastPropertyNameERK10ColorRGBAf
qGk:__ZL77ExecuteEvents_t3484638744_CustomAttributesCacheGenerator_U3CU3Ef__mgU24cacheFP21CustomAttributesCache
u7d:__ZN5physx6shdfnd5ArrayIPNS_14PxLightCpuTaskENS0_13TempAllocatorEE6resizeEjRKS3_
$oi:_Enumerator_System_Collections_IEnumerator_Reset_m3754523291_gshared
ZZn:__ZNSt3__26vectorIP12Il2CppThreadN6il2cpp2gc9AllocatorIS2_EEE26__swap_out_circular_bufferERNS_14__split_bufferIS2_RS6_EE
i9j:__ZL77Convert_t2465617642_CustomAttributesCacheGenerator_Convert_ToByte_m2375887898P21CustomAttributesCache
QO:__ZN11AudioSource23VirtualRedirectTransferER18StreamedBinaryReadILb0EE
Z0g:_X509CertificateEnumerator__ctor_m943731472
pzj:_RangeInt_get_end_m4128831787
fIi:_Enumerator_System_Collections_IEnumerator_get_Current_m3548744355_gshared
aXd:__ZNK5physx2Sq10AABBPruner5sweepERKNS0_9ShapeDataERKNS_6PxVec3ERfRNS0_14PrunerCallbackE
dDm:_PKCS12_get_IterationCount_m3005687235
rDb:__ZN10RectOffset8TransferI19StreamedBinaryWriteILb0EEEEvRT_
zro:dynCall_iiifiii
RVl:_List_1_set_Item_m2082115010_gshared
sPk:_Encoding_GetBytes_m3735967069
A5l:_Collection_1_RemoveItem_m3421705989_gshared
ZRd:__ZN5physx2Sc5Scene21fireCallBacksPostSyncEv
LEf:_Array_Initialize_m3004991267
BGa:__ZN14GfxContextGLES43AddRenderSurfaceToDeferredFBOInvalidateListEPK17RenderSurfaceGLES
GYd:__ZN5physx17PxsCCDAdvanceTask11runInternalEv
rra:__ZN11NamedObject23VirtualRedirectTransferER14SafeBinaryRead
SHi:_Enumerator_System_Collections_IDictionaryEnumerator_get_Value_m1559642338_gshared
HYh:_Text_get_resizeTextMinSize_m1002355407
OLe:__ZNSt3__26vectorIN20TextRenderingPrivate8FontImpl13CharacterInfoE13stl_allocatorIS3_L18MemLabelIdentifier1ELi16EEE6insertENS_11__wrap_iterIPKS3_EERS9_
mOa:__ZN23PreloadManagerOperation6IsDoneEv
$Cl:_Array_InternalArray__set_Item_TisPendingPlayer_t306375494_m877836417_gshared
Poh:_Comparer_1_System_Collections_IComparer_Compare_m70268719_gshared
F_f:_NetworkClient_IsValidIpV6_m3712660953
JKl:_List_1_GrowIfNeeded_m3796726_gshared
VPn:__ZNK15dense_hashtableINSt3__24pairIK10KeyWrapperINS1_IPK10MethodInfoP11Il2CppClassEEEjEES9_17ReflectionMapHashIS8_EN14dense_hash_mapIS9_jSD_NS9_14EqualsComparerINS0_8equal_toIS8_EEEENS0_9allocatorISB_EEE9SelectKeyESI_SK_E8min_sizeEjj
GUh:_Selectable_get_navigation_m3508916916
sUc:__ZN10Effector2D10EndContactEP9b2Contact
Fbo:__ZN6il2cpp5utils11StringUtils11Utf16ToUtf8ERKNSt3__212basic_stringIDsNS2_11char_traitsIDsEENS2_9allocatorIDsEEEE
t2m:_DropConnectionRequest_get_nodeId_m2375409994
c0h:_MD4Managed_Decode_m4273685594
$cg:__Z50RuntimeInvoker_Int64_t3736567304_Int16_t2552820387PFvvEPK10MethodInfoPvPS4_
L6c:__ZN5physx3Cct26CharacterControllerManagerD2Ev
lig:__Z57RuntimeInvoker_Quaternion_t2301928331_Vector3_t3722313464PFvvEPK10MethodInfoPvPS4_
Onb:__ZN21LightProbeProxyVolume18HasHardwareSupportEv
vBk:__ZL75ClientScene_t3640716971_CustomAttributesCacheGenerator_U3CU3Ef__mgU24cache6P21CustomAttributesCache
KPc:__ZNK20b2SeparationFunction17FindMinSeparationEPiS0_f
PDl:_Array_qsort_TisChannelPacket_t1579824718_m2121479159_gshared
SBa:__ZN6prcoreL31inner_stretch_argb8888_bilinearEPKNS_9InnerInfoE
OEb:__Z18Transfer_BlittableI18StreamedBinaryReadILb1EELb1E8BitFieldEvRK29SerializationCommandArgumentsR31RuntimeSerializationCommandInfo
GJa:__Z27TransformVerticesStridedREFPhRK10Matrix4x4fjPKhiiiS4_ii25GfxTransformVerticesFlagsj
qFe:_UNITY_FT_Outline_Decompose
lin:__ZL23UnresolvedVirtualCall_8P12Il2CppObjectS0_S0_PK10MethodInfo
t1i:_Int64_System_IConvertible_ToChar_m1509243576_AdjustorThunk
jCm:_GeneralNames_get_IPAddresses_m4242915644
LFj:_UnitySynchronizationContext_Exec_m3359802660
Uki:_Enumerator_Dispose_m3500272053_AdjustorThunk
ugo:_GC_init_size_map
hYd:__ZN5physx6shdfnd8internal8HashBaseINS0_4PairIKNS3_IPKNS_12PxsRigidCoreEPKNS_12PxsShapeCoreEEEPNS_11PxsCCDShapeEEESA_NS0_4HashISA_EENS1_11HashMapBaseISA_SD_SG_NS0_9AllocatorEE6GetKeyESI_Lb1EE15reserveInternalEj
oWa:__Z20scripting_object_new17ScriptingClassPtr
tmn:__ZL25UnresolvedVirtualCall_232P12Il2CppObject24PendingOwner_t3340073490S1_PK10MethodInfo
Xso:dynCall_iiiiifi
NXj:__ZL69RuntimeArray_CustomAttributesCacheGenerator_Array_Reverse_m3714848183P21CustomAttributesCache
$Jh:_KeyGeneratedEventHandler_Invoke_m2527485594
Knf:_Image_get_layoutPriority_m1290204116
XOn:__ZN24dense_hashtable_iteratorINSt3__24pairIK10KeyWrapperINS1_IPK9FieldInfoP11Il2CppClassEEEjEES9_17ReflectionMapHashIS8_EN14dense_hash_mapIS9_jSD_NS9_14EqualsComparerINS0_8equal_toIS8_EEEENS0_9allocatorISB_EEE9SelectKeyESI_SK_E30advance_past_empty_and_deletedEv
uLm:_Repetition_get_Expression_m2673886232
PSd:__ZN5physx2Sc5Scene21setDominanceGroupPairEhhRKNS_20PxDominanceGroupPairE
vvl:_DefaultComparer_Equals_m3159986973_gshared
cMj:_Decimal__ctor_m1925875020_AdjustorThunk
Z1e:_SerializationCallbacks__ctor_m3863304525
uOa:__ZN23PreloadManagerOperation21MustCompleteNextFrameEv
Z4j:__ZL59SerializationInfo_t950877179_CustomAttributesCacheGeneratorP21CustomAttributesCache
HPl:_List_1_Contains_m363678527_gshared
VLf:_SynchronizedArrayListWrapper_Clear_m2191301493
P:Math_exp
loj:_Vector3_Min_m1803158933
vq:FUNCTION_TABLE_iiifi
A7n:__ZN6il2cpp2os5posix13PosixAutoLockD2Ev
rBm:_TlsServerSettings_set_CertificateTypes_m2047242411
DWn:_il2cpp_class_get_name
Pbn:_SymmetricTransform_OFB_m3690147804
tkh:_InternalEnumerator_1_MoveNext_m3713722659_AdjustorThunk
oye:_cff_get_advances
zKb:__ZN13MonoBehaviour9SetScriptERK4PPtrI10MonoScriptE18ScriptingObjectPtr
Lwf:_NetworkServer_RemoveExternalConnection_m2403339982
$zn:_RaycastHit2D_get_collider_m1549426026
jyb:__Z18Transfer_BlittableI17RemapPPtrTransferLb0E8Vector2fEvRK29SerializationCommandArgumentsR31RuntimeSerializationCommandInfo
xhk:__ZL97RectOffset_t1369453676_CustomAttributesCacheGenerator_RectOffset_INTERNAL_CALL_Remove_m2717276736P21CustomAttributesCache
l2n:__ZNSt3__218uninitialized_copyIPNS_4pairIK10KeyWrapperIP14Il2CppIUnknownEjEES8_EET0_T_SA_S9_
Z_g:_X500DistinguishedName_GetSeparator_m1336760642
cAg:__Z77RuntimeInvoker_Void_t1185182177_Vector2U5BU5DU26_t476646542_Int32_t2950945753PFvvEPK10MethodInfoPvPS4_
oKd:__ZN5physx7NpScene12loadFromDescERKNS_11PxSceneDescE
hdh:_InternalEnumerator_1_MoveNext_m3664960764_AdjustorThunk
HPa:__ZNK10FileSystem16LastErrorMessageEv
LBl:_Array_InternalArray__Insert_TisVector3_t3722313464_m3862657277_gshared
$kk:__ZL104NativeClassAttribute_t2601352714_CustomAttributesCacheGenerator_U3CQualifiedNativeNameU3Ek__BackingFieldP21CustomAttributesCache
Nkm:_ReadOnlyCollection_1_System_Collections_Generic_IListU3CTU3E_get_Item_m1659090079_gshared
yHi:_Enumerator_get_CurrentValue_m2983802109_AdjustorThunk
whj:_SecurityException__ctor_m1631242336
XDn:__ZN15dense_hashtableINSt3__24pairIK10KeyWrapperIPK11Il2CppClassEPKcEES6_N6il2cpp5utils11PointerHashIS3_EEN14dense_hash_mapIS6_S9_SE_NS6_14EqualsComparerINS0_8equal_toIS5_EEEENS0_9allocatorISA_EEE9SelectKeyESJ_SL_E14squash_deletedEv
n7k:__ZN21InterfaceFuncInvoker2I24KeyValuePair_2_t69284834yP12Il2CppObjectE6InvokeEjP11Il2CppClassS2_yS2_
Aaf:_EventSystem_Update_m1662072334
pjc:__ZN11TimeManager16HasFixedTimeStepEv
U$e:__ZN22UnityWebRequestManager10InitializeEv
QJb:__ZN13MonoBehaviour13AwakeFromLoadE17AwakeFromLoadMode
t$j:__ZL51FileMode_t1183438340_CustomAttributesCacheGeneratorP21CustomAttributesCache
Vyb:__ZL26Transfer_SimpleNativeClassI17RemapPPtrTransfer8GradientLb1EEvRK29SerializationCommandArgumentsR31RuntimeSerializationCommandInfo
caf:_RaycasterManager_RemoveRaycasters_m3057093063
chc:__ZN12CachedWriter9InitWriteER15CacheWriterBase
Hfc:__Z21UnsignedInt64ToStringy
jTh:_GetRaycastNonAllocCallback_BeginInvoke_m3984885848
Tbh:_InternalEnumerator_1_MoveNext_m4138204635_AdjustorThunk
GHm:_PatternCompiler_BeginLink_m1295557963
PUa:__ZN14SafeBinaryRead21TransferSTLStyleArrayI13dynamic_arrayI17SortingLayerEntryLj4EEEEvRT_17TransferMetaFlags
O5j:__ZL46MD5_t3177620429_CustomAttributesCacheGeneratorP21CustomAttributesCache
NSd:__ZN5physx14PxsAABBManager15createAggregateEPvb
UKm:_Group_GetAnchorInfo_m3730312864
kJk:__ZL50Graphic_t1660335611_CustomAttributesCacheGeneratorP21CustomAttributesCache
yvi:_Array_InternalArray__IEnumerable_GetEnumerator_TisMark_t3471605523_m945243611_gshared
oOi:_KeyCollection_System_Collections_Generic_ICollectionU3CTKeyU3E_Add_m454648927_gshared
fWk:_TimeSpan_op_LessThanOrEqual_m300470010
Wwo:_emscripten_glTexCoordPointer__wrapper
sPg:_ContextAttribute_Freeze_m3288175579
cuc:__Z66Register_UnityEngine_Transform_INTERNAL_CALL_InverseTransformPointv
iFn:__ZNSt3__218uninitialized_fillIPNS_4pairIK10KeyWrapperIPK19Il2CppGenericMethodEPK26Il2CppGenericMethodIndicesEESB_EEvT_SD_RKT0_
Qga:__ZZN15DirectorManager15InitializeClassEvEN41FixedUpdateDirectorFixedUpdateRegistrator7ForwardEv
zpf:_NetworkManager_InitializeSingleton_m790358794
o6i:_MemoryStream_get_Position_m3733941202
JWm:_ListPool_1_Clear_m2587502754_gshared
pb:invoke_iiiiifiiiif
Bhk:__ZL96TouchScreenKeyboard_t731888065_CustomAttributesCacheGenerator_TouchScreenKeyboard_Open_m43950298P21CustomAttributesCache
brn:_AudioClipPlayable_Equals_m3705880618
J6b:__ZL10KeyHandleriPK23EmscriptenKeyboardEventPv
QOf:_Slot_t3975888750_marshal_pinvoke
OBo:_glLinkProgram__wrapper
Lqb:__ZN18ScriptingArguments8AddInt64Ex
ACa:__ZN6prcoreL12RemapGenericI17TexFormatARGB888815TexFormatBGR888EEvPKNS_9InnerInfoE
qrb:__ZN12HandlerChain4LockER13FileEntryData12FileLockMode
Mlh:_ArraySegment_1_GetHashCode_m3394884290_gshared
OUj:_TextInfo_get_ListSeparator_m1628160079
hGk:__ZL77ExecuteEvents_t3484638744_CustomAttributesCacheGenerator_U3CU3Ef__mgU24cache6P21CustomAttributesCache
aXh:_Selectable_OnCanvasGroupChanged_m472903475
$Sk:_EventWaitHandle_Reset_m3348053200
I8k:_Enumerator_get_Current_m2897627569_gshared
bZe:__ZN28UnityConnectScriptingClasses23CallSessionStateChangedEixxbP21ScriptingExceptionPtr
hHi:_Enumerator_VerifyState_m1479130557_gshared
Dwd:__ZN5physx7NpShape8requiresERNS_23PxProcessPxBaseCallbackE
F1n:__ZN6il2cpp6icalls8mscorlib6System13Globalization11CultureInfo35construct_internal_locale_from_nameEP17Il2CppCultureInfoP12Il2CppString
czg:__Z78RuntimeInvoker_Void_t1185182177_Int32_t2950945753_NetworkInstanceId_t786350175PFvvEPK10MethodInfoPvPS4_
bBb:__ZL22Transfer_ManagedObjectI24GenerateTypeTreeTransferLb1EEvRK29SerializationCommandArgumentsR31RuntimeSerializationCommandInfo
J4f:__Z100RuntimeInvoker_Boolean_t97287965_RuntimeObject_Int32_t2950945753_RuntimeObject_UInt16U26_t2814738322PFvvEPK10MethodInfoPvPS4_
KAg:__Z56RuntimeInvoker_ILTokenInfo_t2325775114_Int32_t2950945753PFvvEPK10MethodInfoPvPS4_
W6e:_HMAC_get_BlockSizeValue_m455678067
XSb:__ZN15RenderNodeQueueC2E10MemLabelId
IJg:_ResourceEnumerator_FillCache_m1661715061
fsm:_ReadOnlyCollection_1_System_Collections_IList_IndexOf_m3664838805_gshared
k7j:__ZL72SecuritySafeCriticalAttribute_t3505979402_CustomAttributesCacheGeneratorP21CustomAttributesCache
$k:_emscripten_set_main_loop_timing
$nj:_Bounds_get_min_m3755135869
Ann:__ZL25UnresolvedVirtualCall_293P12Il2CppObject28NetworkInstanceId_t786350175S0_PK10MethodInfo
pTf:_Convert_ToUInt16_m3523269149
Nnj:_Bounds_get_center_m1418449258
i2n:__ZN30dense_hashtable_const_iteratorINSt3__24pairIK10KeyWrapperIP14Il2CppIUnknownEjEES5_N6il2cpp5utils11PointerHashIS3_EEN14dense_hash_mapIS5_jSB_NS5_14EqualsComparerINS0_8equal_toIS4_EEEENS0_9allocatorIS7_EEE9SelectKeyESG_SI_E30advance_past_empty_and_deletedEv
ymd:__ZN5physx2Sc21ArticulationJointCore22setTangentialStiffnessEf
Abn:_SimpleJson_GetLastIndexOfNumber_m3317654360
F0e:_BinaryFormatter__ctor_m971003555
fl:_JS_UNETWebSockets_SocketRecvEvntBuffFromHost
q2k:_Array_swap_TisPeerInfoPlayer_t607460057_TisPeerInfoPlayer_t607460057_m180684795_gshared
Nue:__ZN14CompletionTask22ProcessAllPhysicsTasksEv
V2b:__ZN14ImageReference10FlipImageYEv
g3g:_Interpreter_GetLastDefined_m4107643411
R7g:_InternalEnumerator_1__ctor_m3126618656_gshared
d5i:_FileStream_RefillBuffer_m4186945278
GVa:__Z32TransferEnumWithNameForceIntSizeI14SafeBinaryRead13TargetEyeMaskEvRT_RT0_PKc17TransferMetaFlags
gzc:__Z14GetDefaultSkini
Gyl:_Array_InternalArray__ICollection_CopyTo_TisKeyValuePair_2_t3373118172_m1837882309_gshared
hI:__ZN4FMOD3DSP9setBypassEb
B6b:__Z19NormalizeWheelInputf
plf:_Graphic_DoMeshGeneration_m3548487693
y5b:__Z29StdTemplateConversionFunctionIsaEbPvR14SafeBinaryRead
qA:__ZNK4PPtrI13MonoBehaviourEcvPS0_Ev
TIm:_Repetition__ctor_m1672362629
kJc:__Z29Transfer_Blittable_ArrayFieldI8JSONReadhEvRT_R9ArrayInfoRK23StaticTransferFieldInfo
zij:_SecurityFrame_ToString_m339310712_AdjustorThunk
iAh:_TypeBuilder_create_runtime_class_m2581270900
X9g:_InternalEnumerator_1_get_Current_m3008260692_gshared
bBd:__ZN5physx2Sc9ClothCore17addCollisionPlaneERKNS_21PxClothCollisionPlaneE
SWa:__ZN22RenderingCommandBuffer20CleanupCommandBufferEv
_Nj:_Decimal_op_Implicit_m2299919277
gli:_Enumerator_MoveNext_m3275886745_gshared
$Dc:__Z18Transfer_BlittableI9JSONWriteLb1EtEvRK29SerializationCommandArgumentsR31RuntimeSerializationCommandInfo
hpk:__ZL84Animator_t434523843_CustomAttributesCacheGenerator_Animator_GetIntegerID_m3539387357P21CustomAttributesCache
k9i:_UnexceptionalStreamReader_ReadToEnd_m920589220
wIj:_DateTime_System_IConvertible_ToType_m1242864300
Kkj:_String_IndexOf_m1298810678
bpn:__ZL25UnresolvedVirtualCall_376P12Il2CppObjecti19Color32_t2600501292PK10MethodInfo
vl:___syscall85
bzi:_Array_InternalArray__IndexOf_TisInternalMsg_t2371755407_m4235948903_gshared
Cqk:__ZL85GUI_t1624858472_CustomAttributesCacheGenerator_GUI_set_nextScrollStepTime_m1026410471P21CustomAttributesCache
mge:__ZNK5physx13PxHeightField8isKindOfEPKc
$dn:_Mesh_GetAllocArrayFromChannel_TisVector3_t3722313464_m2332439905_gshared
aTb:__ZNSt3__26__sortIRPFbP10GUIElementS2_EPS2_EEvT0_S7_T_
SLe:__Z14ValidateFormatR13dynamic_arrayIN20TextRenderingPrivate16TextFormatChangeELj4EE
avh:_ConstructorBuilder_GetILGenerator_m1750792206
SOk:_EncoderFallback_get_ReplacementFallback_m818398284
D8n:__ZN6il2cpp2os6Thread19DetachCurrentThreadEv
Vaf:_EventTrigger_OnBeginDrag_m4203438710
PTi:_Transform_1_BeginInvoke_m3133847102_gshared
nCn:__ZN6il2cpp2vmL21SetupInterfacesLockedEP11Il2CppClassRKNS_2os12FastAutoLockE
Dtb:__ZN11MonoManager23VirtualRedirectTransferER24GenerateTypeTreeTransfer
Rde:__ZNK5physx2Sc18ParticleSystemCore16getInternalFlagsEv
a3k:_Dictionary_2_Do_CopyTo_TisRuntimeObject_TisRuntimeObject_m2344529027_gshared
l0a:__ZN19StreamedBinaryWriteILb0EE8TransferI13dynamic_arrayI8Vector3fLj4EEEEvRT_PKc17TransferMetaFlags
pB:__ZN23AnimationPlayableOutput17SetSourcePlayableEP8Playable
fao:__ZN6il2cpp2gc16GarbageCollector22MakeDescriptorForArrayEv
GVk:_TimeSpan_CompareTo_m3633415627_AdjustorThunk
m1i:_Int32_ToString_m2507389746_AdjustorThunk
hqj:_CullingGroup_Dispose_m782801025
_nl:_Dictionary_2_System_Collections_IDictionary_GetEnumerator_m529247385_gshared
q5c:__ZN16ControllerFilter9preFilterERKN5physx12PxFilterDataEPKNS0_7PxShapeEPKNS0_12PxRigidActorERNS0_7PxFlagsINS0_9PxHitFlag4EnumEtEE
oV:__ZN11UnityEngine15CloudWebService14DataDispatcher15SetupWebRequestEv
Yng:__Z64RuntimeInvoker_Boolean_t97287965_RuntimeObject_Int16_t2552820387PFvvEPK10MethodInfoPvPS4_
c7l:_Collection_1_ConvertItem_m492501417_gshared
AWe:__ZN11UnityEngine15PlatformWrapper13GetShaderCapsEv
a2d:__ZN16MBPOS_TmpBuffers16allocateSleepingEjj
Jil:_Dictionary_2_Resize_m3377338258_gshared
WG:__ZN8Animator7GetBoolEiRb
Jsk:__ZL82Physics2D_t1528932956_CustomAttributesCacheGenerator_Physics2D_Raycast_m1377762210P21CustomAttributesCache
YIh:_KeyPairPersistence_get_MachinePath_m3812267291
vQf:_Stack_Peek_m2216191248
Ool:_Dictionary_2_System_Collections_Generic_ICollectionU3CSystem_Collections_Generic_KeyValuePairU3CTKeyU2CTValueU3EU3E_Add_m2653554623_gshared
jIj:_DateTime_System_IConvertible_ToDecimal_m1044850612_AdjustorThunk
une:__ZN19CharacterController23VirtualRedirectTransferER19StreamedBinaryWriteILb0EE
cfc:__ZN21FixedBehaviourManager6UpdateEv
Vkc:__ZN9Transform9SetParentEPS_NS_15SetParentOptionE
J7:__ZN19ShaderPropertySheet8SetFloatEN9ShaderLab16FastPropertyNameEfNS_8SetFlagsE
jln:__ZL25UnresolvedVirtualCall_168P12Il2CppObject15Ray_t3785851493S0_fiPK10MethodInfo
fyn:_Physics_Raycast_m952690504
Emb:__ZN19RuntimeSceneManager24BeginIntegrateMainThreadEP10UnityScene
lkd:__ZN5physx14NpArticulation26setExternalDriveIterationsEj
VYc:__ZN16RayRTreeCallbackILi0ELb0EED0Ev
h6h:_TlsServerCertificate_ProcessAsSsl3_m1306583193
y7d:__ZN5physx20PxsParticleSystemSim23scheduleCollisionUpdateERNS_10PxBaseTaskE
hOm:_Predicate_1_Invoke_m4151794934_gshared
B9n:__ZNSt3__2plIcNS_11char_traitsIcEENS_9allocatorIcEEEENS_12basic_stringIT_T0_T1_EERKS9_S6_
l8i:_StringReader_CheckObjectDisposedException_m3796163530
bZk:_UInt32_System_IConvertible_ToInt16_m1659441601
Gma:__ZN9ShaderLab20SerializedSubProgramaSERKS0_
X9l:_Collection_1_IsValidItem_m2582000849_gshared
Uqo:_roundf
Djl:_Dictionary_2_pick_value_m4268517353_gshared
$Hf:_Byte_System_IConvertible_ToSingle_m324484566_AdjustorThunk
Xpg:__Z42RuntimeInvoker_RequirementType_t3584265503PFvvEPK10MethodInfoPvPS4_
LNj:_Decimal_op_Explicit_m2848387298
thi:_KeyValuePair_2_ToString_m1238786018_gshared
g8c:__ZN5physx15PxBoxControllerD0Ev
Vu:__ZN8Animator15SetPrepareStageEv
JG:__ZN8AnimatorC2E10MemLabelId18ObjectCreationMode
oCn:__ZN6il2cpp2vmL24SetupTypeHierarchyLockedEP11Il2CppClassRKNS_2os12FastAutoLockE
K6b:__ZL11TextHandleriPK23EmscriptenKeyboardEventPv
$Xb:__Z20CalculateLightMatrixRK15SharedLightDataP10Matrix4x4f
jbl:_ValueCollection_System_Collections_Generic_ICollectionU3CTValueU3E_Contains_m2075519897_gshared
jLe:_destroy_face
Hxo:_glBlendEquationSeparate__wrapper
nwg:__Z59RuntimeInvoker_Int32_t2950945753_KeyValuePair_2_t1012771504PFvvEPK10MethodInfoPvPS4_
E8c:__ZN5physx19PxAllocatorCallbackD2Ev
E9l:__ZN21InterfaceFuncInvoker1I23InternalMsg_t2371755407iE6InvokeEjP11Il2CppClassP12Il2CppObjecti
egl:_Dictionary_2_get_Keys_m2379426348_gshared
Wek:__ZL68UsedByNativeCodeAttribute_t1703770351_CustomAttributesCacheGeneratorP21CustomAttributesCache
PFd:__ZNK5physx15NpActorTemplateINS_16PxParticleSystemEE17getDominanceGroupEv
ZO:__ZN20SoundChannelInstance7setMuteEb
Q4f:__Z81RuntimeInvoker_Void_t1185182177_RuntimeObject_Int32_t2950945753_Int32_t2950945753PFvvEPK10MethodInfoPvPS4_
Z0a:__ZN4PPtrI5LightE8TransferI19StreamedBinaryWriteILb0EEEEvRT_
E6c:__ZN5physx3Cct26CharacterControllerManager21createObstacleContextEv
gml:_Dictionary_2_System_Collections_Generic_IEnumerableU3CSystem_Collections_Generic_KeyValuePairU3CTKeyU2CTValueU3EU3E_GetEnumerator_m560251192_gshared
uyl:_Array_InternalArray__ICollection_Add_TisVector2_t2156229523_m4029235359_gshared
sKl:_List_1__cctor_m972674764_gshared
zrh:_NumberFormatter_NumberToString_m3906556024
Xsg:__Z56RuntimeInvoker_InternalMsg_t2371755407_Int32_t2950945753PFvvEPK10MethodInfoPvPS4_
NFb:__Z19TransferField_ArrayI18StreamedBinaryReadILb1EE27Converter_SimpleNativeClassI17AnimationCurveTplIfEEEvRK23StaticTransferFieldInfoR31RuntimeSerializationCommandInfoRT0_
FSl:_List_1_GetIndex_m3328164518_gshared
W6i:_NullStream_Flush_m3382897993
UUc:__ZN7b2World18SetContactListenerEP17b2ContactListener
iFd:__ZN5physx15NpActorTemplateINS_15PxParticleFluidEE7releaseEv
dQc:__ZN14PhysicsQuery2D11LinecastAllERK8Vector2fS2_RKN10Collider2D13ContactFilterEPKS3_bP13dynamic_arrayI12RaycastHit2DLj4EE
_ya:__ZN18GfxFramebufferGLES22MakeCurrentFramebufferENS_7BuiltinE
ado:__ZN6il2cpp2vm12MarshalAlloc4FreeEPv
AMd:__ZN5physx6shdfnd5ArrayIPNS_2Sc19ShapeInstancePairLLENS0_19ReflectionAllocatorIS4_EEE15growAndPushBackERKS4_
Rai:_EqualityComparer_1_System_Collections_IEqualityComparer_GetHashCode_m2520573014_gshared
Ifi:_HashSet_1_InitArrays_m3675011037_gshared
haa:__ZN12CachedReader4ReadEPvj
l1d:__ZN5physx21MBPPostUpdateWorkTaskD0Ev
dJg:_TypeFilter_EndInvoke_m998903841
X9c:__ZN5physx14PxsAABBManager19createAggregateElemEv
zod:__ZN5physx2Sc8BodyCore24clearSpatialAccelerationEbb
WSl:_List_1_get_Count_m1602310708_gshared
zTm:_SyncList_1_get_Callback_m602246230_gshared
tFh:_SimpleCollator_MatchesForwardCore_m850743967
Whb:__ZN14SubstanceInput8TransferI18StreamedBinaryReadILb0EEEEvRT_
qXb:__Z24CalculateLightShadowFadeRK6CamerafffR8Vector4f
yda:__ZN19RuntimeSceneManagerD2Ev
Gmk:__ZL77DeallocateOnJobCompletionAttribute_t3131681843_CustomAttributesCacheGeneratorP21CustomAttributesCache
npa:__ZN13dynamic_arrayIPN9ShaderLab4PassELj4EE9push_backERKS2_
eSj:_CCGregorianCalendar_GetMonth_m1547203696
EW:__ZN11UnityEngine15CloudWebService25WebRequestDownloadHandler17OnCompleteContentEv
RBa:__ZN6prcore17GetIntegerBlitterE13TextureFormatS0_N14ImageReference8BlitModeE
IPl:_List_1_CopyTo_m2108552388_gshared
tMd:__ZN5physx10PxsContext20createContactManagerERKNS_24PxvManagerDescRigidRigidEPNS_18PxsMaterialManagerE
k1l:_Collection_1_IndexOf_m934463944_gshared
mQn:__ZN6il2cpp2gc19AppendOnlyGCHashMapINSt3__24pairIPK11Il2CppImageP11Il2CppClassEEP22Il2CppReflectionModule17ReflectionMapHashIS9_ENS2_8equal_toIS9_EEE11TryGetValueERKS9_PSB_
GKd:__ZN5physx2Cm12DelegateTaskINS_7NpSceneEXadL_ZNS2_12executeSolveEPNS_10PxBaseTaskEEEED0Ev
CZc:__ZN5physx2GuL18gPCMHullPrefetchCBEjPKNS_6PxVec3E
ued:__ZN5physx2Sc5Scene31removeActiveBreakableConstraintEPNS0_13ConstraintSimE
Sqf:_NetworkManager_OnServerConnectInternal_m198231045
nFf:_SimpleEnumerator_Reset_m2182001888
yvg:__Z86RuntimeInvoker_Int32_t2950945753_Vector2_t2156229523_Vector2_t2156229523_RuntimeObjectPFvvEPK10MethodInfoPvPS4_
jnc:__ZN9BlobWrite14ReduceCopyImplERK14ReduceCopyDataj
Yba:__ZNSt3__26__treeI19RepeatingLogMessageNS_4lessIS1_EE13stl_allocatorIS1_L18MemLabelIdentifier73ELi16EEE12__find_equalIS1_EERPNS_16__tree_node_baseIPvEESD_RKT_
KS:__ZN11AudioSource18IsPlayingScriptingEv
B5g:_InternalEnumerator_1_Dispose_m2018798800_AdjustorThunk
QIh:_KeyBuilder_IV_m2230195376
a5m:_NetworkAccessToken__ctor_m969521192
lgn:_AnalyticsEventParamListContainer_get_parameters_m4180299006
qlg:__Z63RuntimeInvoker_Boolean_t97287965_Rect_t2360479859_RuntimeObjectPFvvEPK10MethodInfoPvPS4_
NLc:__ZNK12b2WheelJoint10GetAnchorAEv
QQd:__ZN5physx6shdfnd5ArrayINS_12PxActorShapeENS0_19ReflectionAllocatorIS2_EEE15growAndPushBackERKS2_
zRa:__ZN25MultiBlocksMemoryFileData17AdjustBlocksCountEj
V_n:__ZNSt3__214__split_bufferIN6il2cpp2vm22EmbeddedResourceRecordERNS_9allocatorIS3_EEED2Ev
tzf:_NetworkTransform_UnserializeRotation3D_m2713487431
Rtl:_Dictionary_2_ContainsKey_m990283339_gshared
Jom:_ReadOnlyCollection_1_System_Collections_Generic_ICollectionU3CTU3E_get_IsReadOnly_m548211326_gshared
EJe:__ZN13TextRendering4Font8TransferI24GenerateTypeTreeTransferEEvRT_
Xua:__ZN9GfxDevice15EndProfileEventEPN9profiling6MarkerE
s9l:_Collection_1_System_Collections_IEnumerable_GetEnumerator_m3367342325_gshared
Moc:__Z27CullingGroup_CUSTOM_DisposeP12Il2CppObject
Sgl:_Dictionary_2_CopyTo_m499078359_gshared
GZe:__ZNSt3__26vectorIP19BaseConnectSettings13stl_allocatorIS2_L18MemLabelIdentifier6ELi16EEE21__push_back_slow_pathIKS2_EEvRT_
OZm:_TextEditor_SelectParagraphBackward_m605299273
adn:_Array_InternalArray__get_Item_TisInternalMsg_t2371755407_m1310384706_gshared
HSb:__ZN13ComputeShader15SetTextureParamEjRKN9ShaderLab16FastPropertyNameE9TextureID16TextureDimension
Pnh:_Comparer_1__ctor_m319670016_gshared
$ml:_Dictionary_2_System_Collections_ICollection_CopyTo_m59399831_gshared
htd:__ZN5physx2Sc14ConstraintCore8setFlagsENS_7PxFlagsINS_16PxConstraintFlag4EnumEtEE
hQk:_EncodingInfo_Equals_m864874669
Gn:_glStencilMask
A7m:_NetworkTransformChild_GetNetworkSendInterval_m3231355640
b9n:__ZN6il2cpp2os10ThreadImpl16GetCurrentThreadEv
ife:__ZNK5physx2Sc15ClothFabricCore20getNbParticleIndicesEv
D6b:__ZN15GUIEventManager10QueueEventERK10InputEvent
BJg:_ResourceReader_ReadNonPredefinedValue_m2638853518
y2l:_Collection_1_Clear_m1300437781_gshared
GDn:_AnalyticsEvent_OnValidationFailed_m2609604624
Irk:__ZL62EventType_t3528516131_CustomAttributesCacheGenerator_mouseMoveP21CustomAttributesCache
qKg:_DecimalConstantAttribute__ctor_m3583301917
efn:_UnityWebRequest_Release_m2347155176
F6l:_Collection_1_System_Collections_ICollection_get_IsSynchronized_m1640823718_gshared
vfo:_GC_push_conditional_with_exclusions
NCi:_Enumerator_System_Collections_IDictionaryEnumerator_get_Entry_m2772123357_AdjustorThunk
qwf:_ObjectDestroyMessage__ctor_m1527059792
Kx:__ZN21AnimationPosePlayableD0Ev
Tng:__Z192RuntimeInvoker_Boolean_t97287965_Int32_t2950945753_Int32_t2950945753_Int32_t2950945753_Int32_t2950945753_Int32_t2950945753_RuntimeObject_Int32_t2950945753_Int32_t2950945753_ByteU26_t1992107912PFvvEPK10MethodInfoPvPS4_
QD:__ZN12_GLOBAL__N_121ProcessAnimationBeginER35AnimationPlayableEvaluationConstantR32AnimationPlayableEvaluationInputR33AnimationPlayableEvaluationOutput
u9j:__ZL80Convert_t2465617642_CustomAttributesCacheGenerator_Convert_ToDecimal_m2858622624P21CustomAttributesCache
d4n:__GLOBAL__sub_I_GenericMetadata_cpp
CRm:__ZN30GenericInterfaceActionInvoker4IP12Il2CppObjectS1_S1_S1_E6InvokeEPK10MethodInfoS1_S1_S1_S1_S1_
NMm:_UriParser_InitializeAndValidate_m2008117311
$eo:_GC_make_disappearing_links_disappear
Yno:_strrchr
Jpj:_Component_GetComponentInParent_m779177818
Mdd:__ZN5physx2Sc7BodySim6wakeUpEv
A4k:_Dictionary_2_Do_ICollectionCopyTo_TisKeyValuePair_2_t1377593753_m4023145528_gshared
gkl:_Dictionary_2_System_Collections_ICollection_get_SyncRoot_m2069913662_gshared
Hef:_UIBehaviour_IsDestroyed_m3033055982
Xwg:__Z60RuntimeInvoker_Int32_t2950945753_CRCMessageEntry_t1041239249PFvvEPK10MethodInfoPvPS4_
jMd:__ZN5physx6shdfnd8PoolBaseINS_2Gu30LargePersistentContactManifoldENS0_19ReflectionAllocatorIS3_EEE17releaseEmptySlabsEv
hed:__ZN5physx2Sc21ConstraintInteraction7destroyEv
_pe:__ZN14SphereCollider6CreateEPK9Rigidbody
tFj:_Enumerator_Reset_m39541243
qrc:__Z33Register_UnityEngine_Random_Rangev
qqm:_ReadOnlyCollection_1_System_Collections_Generic_IListU3CTU3E_set_Item_m2168923932_gshared
XMh:_InputField_get_readOnly_m3111985574
I_d:__ZN5physx13PxsSolverCoreD2Ev
k1a:__ZN14RenderSettings27UpdateIndirectSpecularColorEv
euj:_Logger_get_logHandler_m1335645353
ukb:__ZN14PlayerSettings8TransferI18StreamedBinaryReadILb0EEEEvRT_
BLn:__ZN6il2cpp6icalls8mscorlib6System8MonoType16GetMethodsByNameEP20Il2CppReflectionTypeP12Il2CppStringibS5_
o4j:__ZL73ObjRef_t2141158884_CustomAttributesCacheGenerator_U3CU3Ef__switchU24map26P21CustomAttributesCache
fHk:__ZL102PointerEventData_t3807901092_CustomAttributesCacheGenerator_PointerEventData_set_pointerId_m1888344330P21CustomAttributesCache
gsl:_Dictionary_2_U3CCopyToU3Em__0_m2035682570_gshared
Hpk:__ZL88AudioClip_t3680889665_CustomAttributesCacheGenerator_AudioClip_get_ambisonic_m3815052287P21CustomAttributesCache
PNd:__ZNK5physx7NpScene16getNbConstraintsEv
f1k:_Array_Sort_TisPendingPlayer_t306375494_m2101639821_gshared
rQh:_U3CDelayedSetDirtyU3Ec__Iterator0__ctor_m3936335621
Mzd:__ZN5physx7NpCloth14setWakeCounterEf
N8:__ZN4PPtrI10GameObjectE8TransferI14SafeBinaryReadEEvRT_
Wmk:__ZL106PlayableAsset_t3219022681_CustomAttributesCacheGenerator_PlayableAsset_Internal_CreatePlayable_m2550417712P21CustomAttributesCache
V9j:__ZL78Convert_t2465617642_CustomAttributesCacheGenerator_Convert_ToSByte_m2486156346P21CustomAttributesCache
H8e:_RijndaelTransform__cctor_m2439033240
ZOb:__ZNSt3__27__sort3IRNS_4lessIN22BuiltinResourceManager8ResourceEEEPS3_EEjT0_S7_S7_T_
oYj:__ZL175U3CGetEnumeratorU3Ec__Iterator0_t1202911786_CustomAttributesCacheGenerator_U3CGetEnumeratorU3Ec__Iterator0_System_Collections_Generic_IEnumeratorU3CTU3E_get_Current_m322251035P21CustomAttributesCache
Nbn:_SymmetricTransform_CBC_m3648398454
$He:_ps_hints_t2mask
Umj:_Application_InvokeOnBeforeRender_m2875673833
DIi:_Enumerator_Dispose_m1736245611_AdjustorThunk
Oqf:_NetworkManager_OnDestroy_m360037513
E2i:_IntPtr_ToString_m1831665121
XXh:_Slider_Set_m1476104429
kJg:__ZN28GenericInterfaceFuncInvoker1IP10Assembly_tP28ResolveEventArgs_t1779456501E6InvokeEPK10MethodInfoP12Il2CppObjectS3_
anf:_Image_set_fillClockwise_m2210525152
Nfb:__ZN10BlendShape8TransferI19StreamedBinaryWriteILb0EEEEvRT_
Jve:__ZN14PhysicsManagerC2E10MemLabelId18ObjectCreationMode
xge:__ZNK5physx2Gu11HeightField17getReferenceCountEv
NI:__Z32TransferEnumWithNameForceIntSizeI14SafeBinaryReadN10SampleClip8LoadTypeEEvRT_RT0_PKc17TransferMetaFlags
v2i:__Z21il2cpp_codegen_sizeofP11Il2CppClass
KFa:__Z19GetTimeSinceStartupv
Anf:_Image_AddQuad_m2161647989
p3a:__ZN7Texture23VirtualRedirectTransferER17RemapPPtrTransfer
mWn:_il2cpp_array_class_get
S9e:_BaseInputModule_DeactivateModule_m856719157
Xfn:_WWWForm_AddField_m2357902982
T8n:__ZN6il2cpp2os10ThreadImpl11SetPriorityENS0_14ThreadPriorityE
Poi:_Enumerator_System_Collections_IEnumerator_Reset_m2953002685_gshared
I6f:__Z50RuntimeInvoker_Int64_t3736567304_Int32_t2950945753PFvvEPK10MethodInfoPvPS4_
vHe:_TT_Load_Composite_Glyph
jqf:_NetworkManager_UseExternalClient_m3057199036
_ua:__ZN9GfxDevice16DeleteTimerQueryEP13GfxTimerQuery
vZl:_List_1_Insert_m1695211546_gshared
L_h:__ZN21InterfaceFuncInvoker2IbP22BigInteger_t2902905090iE6InvokeEjP11Il2CppClassP12Il2CppObjectS1_i
Iig:__Z49RuntimeInvoker_Void_t1185182177_Color_t2555686324PFvvEPK10MethodInfoPvPS4_
Z3a:__ZN9ShaderLab11shaderprops9GetTexEnvEPK19ShaderPropertySheetS3_NS_16FastPropertyNameE16TextureDimensionb
cMl:_List_1_Sort_m3232912161_gshared
Ehi:_KeyValuePair_2_ToString_m516993745_AdjustorThunk
ePl:_List_1_set_Item_m3657657813_gshared
dNi:_KeyCollection_System_Collections_ICollection_CopyTo_m1760651091_gshared
KVb:__ZN29RenderNodeQueuePrepareContextC2Ev
fXn:_il2cpp_gc_disable
lFm:_IntStack_t2189327687_marshal_pinvoke_back
Sna:__ZN9ShaderLab20SerializedSubProgram16TextureParameter8TransferI24GenerateTypeTreeTransferEEvRT_
C6e:_DSASignatureDeformatter_SetKey_m2999549245
pio:__ZN6il2cpp2os11MutexHandle4WaitEb
jsa:__ZN9GfxDevice19SaveStereoConstantsEv
oio:__ZN6il2cpp2os11MutexHandle4WaitEj
Xlc:__ZL34GetComponentsImplementationRecurseILb1ELi1ELi1EEbR10GameObjectbRK17CompareParametersRK39GetComponentsImplementation_ReturnValue
S7f:__Z114RuntimeInvoker_Boolean_t97287965_RuntimeObject_RuntimeObject_Int32_t2950945753_Int32_t2950945753_Int32_t2950945753PFvvEPK10MethodInfoPvPS4_
tuh:_AssemblyBuilder_GetTypes_m3415680380
KDa:__ZN6prcoreL17RemapGenericFloatI15TexFormatRGHalf18TexFormatARGBFloatEEvPKNS_9InnerInfoE
egn:_AnalyticsEventParam_get_groupID_m569309506
NOj:_StackFrame_GetMethod_m1395840764
x2a:__ZNK13RenderTexture13GetDataHeightEv
dNb:__Z18SimulateMouseInputi
YRb:__ZN13RenderManager23AddRemoveCamerasDelayedEv
eFc:__ZN9JSONWrite8TransferI13dynamic_arrayIdLj8EEEEvRT_PKc17TransferMetaFlags
oOa:__ZN23PreloadManagerOperation11GetPriorityEv
JPh:_LayoutElement_OnEnable_m1760066426
YTe:__ZN11UnityEngine9Analytics15AnalyticsConfigC2Ev
csh:_OverflowException__ctor_m4029085969
pon:__ZL25UnresolvedVirtualCall_336P12Il2CppObject6Guid_tS1_PK10MethodInfo
yPd:__ZN5physx2Sq17SceneQueryManager11shiftOriginERKNS_6PxVec3E
QWi:_Transform_1_EndInvoke_m1314686293_gshared
_Mj:_Decimal_Compare_m3062820418
jGm:_IntervalCollection_GetMetaCollection_m4029522214
Rue:__ZNK5Unity5Joint16GetCurrentForcesER8Vector3fS2_
Qaf:_EventTrigger_OnDeselect_m1919608102
Ztn:_TextGenerator_get_characterCount_m864136654
Stf:_NetworkReader_ReadPackedUInt64_m3586052256
lnj:_AsyncOperation_t1445031843_marshal_pinvoke_cleanup
hVk:_TimeSpan__ctor_m2047388489_AdjustorThunk
G1b:__ZN13RenderTexture8SetWidthEi
mac:__ZNK28RectTransformPropertyBinding12SetPPtrValueERKN11UnityEngine9Animation10BoundCurveEi
nPb:__ZN18FrameTimingManager18GetVSyncsPerSecondEv
TGb:__Z18Transfer_BlittableI18StreamedBinaryReadILb0EELb0EfEvRK29SerializationCommandArgumentsR31RuntimeSerializationCommandInfo
Zfb:__ZN10MeshFilterD0Ev
xHe:_UNITY_FT_GlyphLoader_CheckSubGlyphs
a8g:_InternalEnumerator_1__ctor_m1341209356_AdjustorThunk
VXb:__Z25SetupObjectBakedOcclusionbRK15SharedLightDataRK26SharedLightmapSettingsDataRK15LightmapIndicesR17ShaderPassContext
E3l:_Collection_1_System_Collections_ICollection_CopyTo_m1516601228_gshared
w9m:_ULocalConnectionToServer_SendUnreliable_m2616796310
f9l:_Collection_1_RemoveItem_m3967019458_gshared
d6l:_Collection_1_CopyTo_m4278237485_gshared
Dzn:_Physics2D_Raycast_m2082490717
o$i:_Int16_System_IConvertible_ToDouble_m1661805412
GRg:_MethodCall_get_Uri_m1720935531
Qvf:_NetworkServer_CheckForNullObjects_m4197306129
Rjn:__ZL24UnresolvedVirtualCall_94P12Il2CppObjectS0_S0_iPK10MethodInfo
Mvd:__ZNK5physx9NpFactory11getNbShapesEv
l3m:_ListMatchRequest_set_filterOutPrivateMatches_m242262970
iin:__ZL23UnresolvedVirtualCall_5P12Il2CppObjectsPK10MethodInfo
xF:__ZN4PPtrI6AvatarE8TransferI19StreamedBinaryWriteILb0EEEEvRT_
mFl:_List_1_Insert_m4050947056_gshared
R7:__ZN9ShaderLab16FastPropertyName4InitEPKc
$Lc:__ZN11b2GearJointD0Ev
shg:__Z48RuntimeInvoker_OperatingSystemFamily_t1868066375PFvvEPK10MethodInfoPvPS4_
q8j:__ZL61Thread_t2300836069_CustomAttributesCacheGenerator_local_slotsP21CustomAttributesCache
v9b:__Z13RegisterClassIN2UI13RectTransformEEvv
zrf:_NetworkManager_OnServerAddPlayerInternal_m3848893983
mam:_Collection_1_System_Collections_IList_get_IsFixedSize_m4144076601_gshared
Io:FUNCTION_TABLE_iiiii
Zmk:__ZL56PlayableGraph_t3515989261_CustomAttributesCacheGeneratorP21CustomAttributesCache
$cc:__ZL31MeshRendererTransformChangedJobP13BoundsJobDatajPK23TransformAccessReadOnlyPKyj
dWe:__ZN11UnityEngine15PlatformWrapper19GetPhysicalMemoryMBEv
CCi:_Enumerator_Dispose_m2975754786_AdjustorThunk
KIf:_Char_System_IConvertible_ToByte_m2347554595_AdjustorThunk
cRn:__ZNK15dense_hashtableINSt3__24pairIK10KeyWrapperINS1_IPK12PropertyInfoP11Il2CppClassEEEjEES9_17ReflectionMapHashIS8_EN14dense_hash_mapIS9_jSD_NS9_14EqualsComparerINS0_8equal_toIS8_EEEENS0_9allocatorISB_EEE9SelectKeyESI_SK_E12test_deletedERK30dense_hashtable_const_iteratorISB_S9_SD_SM_SI_SK_E
Ilk:__ZL59TooltipAttribute_t3957072629_CustomAttributesCacheGeneratorP21CustomAttributesCache
dcb:__ZN10VertexData8TransferI17RemapPPtrTransferEEvRT_
_1a:__ZN13RenderTexture9SetMipMapEb
Zui:_Array_InternalArray__IEnumerable_GetEnumerator_TisKeyValuePair_2_t442960997_m828073571_gshared
mEn:__ZN15dense_hashtableINSt3__24pairIK10KeyWrapperIPK11Il2CppClassEPKcEES6_N6il2cpp5utils11PointerHashIS3_EEN14dense_hash_mapIS6_S9_SE_NS6_14EqualsComparerINS0_8equal_toIS5_EEEENS0_9allocatorISA_EEE9SelectKeyESJ_SL_E13set_empty_keyERKSA_
Cnn:__ZL25UnresolvedVirtualCall_295P12Il2CppObject25NetworkSceneId_t717048590S0_PK10MethodInfo
Nlj:_String_CreateString_m860434552
kha:__Z18GetDirectorManagerv
Zxl:_Array_InternalArray__ICollection_Add_TisPendingOwner_t3340073490_m3405979098_gshared
D8k:_Enumerator_System_Collections_IEnumerator_Reset_m278261807_AdjustorThunk
l3l:_Collection_1_GetEnumerator_m1824095167_gshared
W1j:__ZL107CriticalFinalizerObject_t701527852_CustomAttributesCacheGenerator_CriticalFinalizerObject__ctor_m3245424448P21CustomAttributesCache
$0i:_Int32_Equals_m2976157357_AdjustorThunk
vtc:__Z38Transform_CUSTOM_INTERNAL_get_rotationP12Il2CppObjectP11Quaternionf
IYn:__ZNK15dense_hashtableINSt3__24pairIK10KeyWrapperIP11Il2CppClassES4_EES5_N6il2cpp8metadata16SZArrayClassHashEN14dense_hash_mapIS5_S4_SA_NS5_14EqualsComparerINS9_19SZArrayClassCompareEEENS0_9allocatorIS7_EEE9SelectKeyESE_SG_E3endEv
Tjg:__Z73RuntimeInvoker_Single_t1397266774_Vector2_t2156229523_Vector2_t2156229523PFvvEPK10MethodInfoPvPS4_
QSg:_SoapAttribute_get_XmlNamespace_m859394681
bQn:__ZNK15dense_hashtableINSt3__24pairIK10KeyWrapperINS1_IPK10MethodInfoP11Il2CppClassEEEjEES9_17ReflectionMapHashIS8_EN14dense_hash_mapIS9_jSD_NS9_14EqualsComparerINS0_8equal_toIS8_EEEENS0_9allocatorISB_EEE9SelectKeyESI_SK_E5beginEv
dFm:_X509ExtensionCollection_System_Collections_IEnumerable_GetEnumerator_m1475785462
axa:__ZN7ApiGLES19UploadBufferSubDataEjN2gl12BufferTargetEllPKv
pxn:_SkeletonBone_t4134054672_marshal_pinvoke_cleanup
SXd:__ZN5physx2Sc5Scene17createClothSolverEv
wja:__ZNSt3__216__rotate_forwardINS_11__wrap_iterIPN4core12basic_stringIcNS2_20StringStorageDefaultIcEEEEEEEET_S9_S9_S9_
YFj:_Vector2_GetHashCode_m3916089713
hfa:__ZdaPv
SDd:__ZNK5physx15PxsParticleData16getMaxParticlesVEv
LCj:_SendMouseEvents_HitTestLegacyGUI_m579942228
tph:_MulticastDelegate_Equals_m2502840627
Zej:_SymmetricAlgorithm_set_KeySize_m3805756466
vre:__ZThn116_N5physx7profile8ZoneImplINS_28PxProfileNameProviderForwardEE12removeClientERNS_19PxProfileZoneClientE
knk:__ZL82Logger_t274032455_CustomAttributesCacheGenerator_Logger_set_logHandler_m4059005946P21CustomAttributesCache
p1d:__ZN15MBP_PairManager17removeMarkedPairsEPK10MBP_ObjectPN5physx16PxsBroadPhaseMBPERK8BitArrayS8_
fIf:_Byte_System_IConvertible_ToUInt32_m1049546902_AdjustorThunk
Qml:_Dictionary_2_System_Collections_IDictionary_get_Item_m1909522526_gshared
igg:__Z53RuntimeInvoker_Double_t594665363_Interval_t1802865632PFvvEPK10MethodInfoPvPS4_
iPb:__Z21InitializeBatchedJobsv
Zun:_CanvasGroup_get_blocksRaycasts_m1805542303
Hdj:_SHA1Internal_ProcessBlock_m1991889327
Xvb:__Z19TransferField_ArrayI14SafeBinaryRead27Converter_SimpleNativeClassI8GUIStyleEEvRK23StaticTransferFieldInfoR31RuntimeSerializationCommandInfoRT0_
IJb:__ZN9TextAsset23VirtualRedirectTransferER19StreamedBinaryWriteILb0EE
S1n:__ZN15dense_hashtableINSt3__24pairIK10KeyWrapperIP14Il2CppIUnknownEjEES5_N6il2cpp5utils11PointerHashIS3_EEN14dense_hash_mapIS5_jSB_NS5_14EqualsComparerINS0_8equal_toIS4_EEEENS0_9allocatorIS7_EEE9SelectKeyESG_SI_ED2Ev
u0k:_Array_Sort_TisRuntimeObject_TisRuntimeObject_m1685639929_gshared
uBk:__ZL75ClientScene_t3640716971_CustomAttributesCacheGenerator_U3CU3Ef__mgU24cache5P21CustomAttributesCache
H0a:__ZN14RenderSettings5ResetEv
k8b:__ZN6Sprite9BindAtlasERK4PPtrI11SpriteAtlasE
OBc:__ZN5Unity9rapidjson12GenericValueINS0_4UTF8IcEE13JSONAllocatorE10FindMemberIS4_EENS0_21GenericMemberIteratorILb0ES3_S4_EERKNS1_IS3_T_EE
nvd:__ZN5physx9NpPhysics33unregisterDeletionListenerObjectsERNS_18PxDeletionListenerEPKPKNS_6PxBaseEj
Idh:_InternalEnumerator_1_System_Collections_IEnumerator_get_Current_m3892960115_AdjustorThunk
KBd:__ZNK5physx2Sc9ClothCore22getAngularInertiaScaleEv
Jbn:_SymmetricTransform_Finalize_m4129642865
x2g:_CaptureCollection_CopyTo_m3566922817
FCh:_MonoEventInfo_t346866618_marshal_pinvoke_cleanup
g7e:_HMAC_HashCore_m3684104066
vxm:__ZN28GenericInterfaceFuncInvoker2Ii20UIVertex_t4057497605S0_E6InvokeEPK10MethodInfoP12Il2CppObjectS0_S0_
mCc:__ZN5Unity9rapidjson13GenericReaderINS0_4UTF8IcEES3_13JSONAllocatorE11ParseNumberILj1ENS0_25GenericInsituStringStreamIS3_EENS0_15GenericDocumentIS3_S4_S4_EEEEvRT0_RT1_
Ymd:__ZN5physx20NpRigidActorTemplateINS_18PxArticulationLinkEE12setActorFlagENS_11PxActorFlag4EnumEb
Eon:__ZL25UnresolvedVirtualCall_351P12Il2CppObjectPK10MethodInfo
tXj:__ZL88RuntimeArray_CustomAttributesCacheGenerator_Array_CreateInstance_m1027597705____lengths1P21CustomAttributesCache
J7l:_Collection_1_RemoveItem_m2911050674_gshared
H4f:__Z79RuntimeInvoker_UInt16_t2177724958_RuntimeObject_Int32_t2950945753_RuntimeObjectPFvvEPK10MethodInfoPvPS4_
N8n:__ZN6il2cpp2os10ThreadImplD2Ev
IOl:_List_1_Clear_m4204617091_gshared
NMc:__ZN12b2MouseJoint23InitVelocityConstraintsERK12b2SolverData
hDc:__ZN8Gradient8TransferI9JSONWriteEEvRT_
hPg:_ContextCallbackObject__ctor_m3499682402
Q8j:__ZL56AppDomainSetup_t123196401_CustomAttributesCacheGeneratorP21CustomAttributesCache
sEm:_X509StoreManager_get_LocalMachine_m269504582
Hfl:_Dictionary_2_System_Collections_Generic_ICollectionU3CSystem_Collections_Generic_KeyValuePairU3CTKeyU2CTValueU3EU3E_Remove_m341422505_gshared
zsk:__ZL81TextEditor_t2759855366_CustomAttributesCacheGenerator_TextEditor__ctor_m242049450P21CustomAttributesCache
Qtl:_Dictionary_2_Clear_m3452130969_gshared
SQf:_Convert_ToBoolean_m2833621053
WNa:__ZNK12TLSAllocatorI14StackAllocatorE22GetAllocatedMemorySizeEv
Xck:__ZL62WebHeaderCollection_t1942268960_CustomAttributesCacheGeneratorP21CustomAttributesCache
jkc:__Z32GetSceneHierarchyPathDescriptivePK6Object
Ibi:_EqualityComparer_1_System_Collections_IEqualityComparer_GetHashCode_m2138064395_gshared
_P:__ZNK7WeakPtrI20SoundChannelInstanceE10SharedData9GetRawPtrEv
brb:__ZN12HandlerChain4NameEv
Phf:_FloatTween_t1274330004_marshal_pinvoke
aKc:__ZN11UnityEngine9Analytics18RenderingInfoEventD0Ev
B$i:_Int16_System_IConvertible_ToType_m3672347013_AdjustorThunk
Xkj:_String_LastIndexOf_m578673845
Un:FUNCTION_TABLE_fiiiiiifiiiiiif
jij:_SecurityException_ToString_m3228070608
j0i:_Int16_ToString_m2013897809
Eae:__ZN5physx37setupFinalizeSolverConstraintsCoulombERNS_13PxcNpWorkUnitERKNS_2Gu13ContactBufferERKNS_27PxcCorrelationBufferCoulombERKNS_11PxTransformESB_bPhRKNS_13PxcSolverBodyESF_RKNS_17PxcSolverBodyDataESI_ffjffff
lij:_String_Substring_m2848979100
ofg:__Z123RuntimeInvoker_Boolean_t97287965_RuntimeObject_StringU26_t181565287_StringU5BU5DU26_t2154486980_StringU5BU5DU26_t2154486980PFvvEPK10MethodInfoPvPS4_
fSe:__Z44Register_UnityEngine_CanvasRenderer_get_cullv
byf:_PeerAuthorityMessage_Deserialize_m299959791
pBn:__ZN15dense_hashtableINSt3__24pairIK10KeyWrapperIPK22Il2CppGenericParameterEP11Il2CppClassEES6_N6il2cpp5utils11PointerHashIS4_EEN14dense_hash_mapIS6_S9_SE_NS6_14EqualsComparerINS0_8equal_toIS5_EEEENS0_9allocatorISA_EEE9SelectKeyESJ_SL_ED2Ev
LMi:_KeyCollection__ctor_m3288223808_gshared
QOm:__ZN23GenericVirtFuncInvoker1Ib19Vector4_t3319028937E6InvokeEPK10MethodInfoP12Il2CppObjectS0_
gij:_SecurityException_get_PermissionType_m2237538728
_5b:__Z29StdTemplateConversionFunctionIbbEbPvR14SafeBinaryRead
cjk:__ZL83Texture_t3661962703_CustomAttributesCacheGenerator_Texture_get_wrapMode_m2187367613P21CustomAttributesCache
HVe:__ZN11UnityEngine7Connect17XRDeviceInfoEvent12XRDeviceInfoD2Ev
Ztb:__Z44InitializeTransferFunctionScriptingTraitsForI17RemapPPtrTransferEvR31TransferFunctionScriptingTraits
Ein:__ZL24UnresolvedVirtualCall_27P12Il2CppObjectS0_aPK10MethodInfo
cac:__ZNSt3__26vectorI16MessageForwarder13stl_allocatorIS1_L18MemLabelIdentifier7ELi8EEE6resizeEj
E0g:_X509Chain_SelectBestFromCollection_m1068759221
Sbn:_SymmetricTransform_TransformBlock_m851059707
CWj:__ZL68IntPtr_t_CustomAttributesCacheGenerator_IntPtr_ToPointer_m4157623054P21CustomAttributesCache
Q8k:_Enumerator_Dispose_m4166166038_gshared
oKi:_Enumerator_System_Collections_IEnumerator_get_Current_m1578620507_gshared
c$l:_Enumerator_System_Collections_IEnumerator_Reset_m2261065994_AdjustorThunk
NVh:_ScrollRect_get_verticalNormalizedPosition_m3693218937
YBh:__ZN21InterfaceFuncInvoker2IP18Module_t2987026101P12Il2CppObjectP28ResolveEventArgs_t1779456501E6InvokeEjP11Il2CppClassS3_S3_S5_
q0d:__ZN5physx31ComputeCreatedDeletedPairsListsEPKjS1_jRPNS_17PxcBroadPhasePairERjS5_S4_S5_S5_RNS_14SapPairManagerE
Cmb:__ZN18LoadSceneOperation21MustCompleteNextFrameEv
ZXh:_Slider_UpdateDrag_m1102107039
N$k:_Array_Resize_TisPendingOwner_t3340073490_m2283092275_gshared
rHg:_MonoMethodInfo_get_method_info_m88651774
O7k:_Enumerator_get_Current_m2468936843_gshared
_O:__ZNK12AudioManager16GetAudioListenerEv
v0i:_Int32_System_IConvertible_ToDateTime_m1824716955
kkl:_Dictionary_2_System_Collections_Generic_ICollectionU3CSystem_Collections_Generic_KeyValuePairU3CTKeyU2CTValueU3EU3E_CopyTo_m331407443_gshared
W3e:_RuntimeTypeHandle__ctor_m3315980708_AdjustorThunk
G6j:__ZL69IIdentityPermissionFactory_t3268650966_CustomAttributesCacheGeneratorP21CustomAttributesCache
Eun:_Canvas_set_overrideSorting_m4088794420
l1b:__ZNSt3__26vectorI11CameraStackNS_9allocatorIS1_EEE8__appendEj
cql:_Dictionary_2_Clear_m4146867046_gshared
zKc:__ZNK11Rigidbody2D20GetAttachedCollidersER13dynamic_arrayIP10Collider2DLj4EE
r5d:__ZN5physx2Gu16pcmContactBoxBoxERKNS0_13GeometryUnionES3_RKNS_11PxTransformES6_RKfRNS0_5CacheERNS0_13ContactBufferE
duj:_Logger_set_filterLogType_m3622751173
X1e:__ZN25GenericVirtActionInvoker1I28StreamingContext_t3711869237E6InvokeEPK10MethodInfoP12Il2CppObjectS0_
fSm:_UnityEvent_1_GetDelegate_m25714567_gshared
qw:__ZN7mecanim9animation12GetHumanPoseERKNS0_18ClipMuscleConstantEPKNS0_10ValueDeltaERNS_5human9HumanPoseE
Jlg:__Z115RuntimeInvoker_Void_t1185182177_IntPtr_t_RectU26_t1284589061_RuntimeObject_Int32_t2950945753_Vector2U26_t2376273893PFvvEPK10MethodInfoPvPS4_
ITe:__ZN11UnityEngine9Analytics15UserCustomEvent12CustomParams6InsertEPKcRNS1_11CustomValueE
gy:__ZN22AnimationMixerPlayable17ProcessRootMotionEP35AnimationPlayableEvaluationConstantP32AnimationPlayableEvaluationInputP33AnimationPlayableEvaluationOutput
Dnl:_Dictionary_2__ctor_m518943619_gshared
wDb:__Z29Transfer_Blittable_ArrayFieldI19StreamedBinaryWriteILb0EEjEvRT_R9ArrayInfoRK23StaticTransferFieldInfo
Y3:__Z13GetFileSystemv
Vdc:__ZZL23RegisterLightPropertiesR22GenericPropertyBindingEN29Wrapper_LightColorTemperature13SetFloatValueEPvf
kea:__ZNK5Unity4Type21FindAllDerivedClassesER13dynamic_arrayIPKS0_Lj4EENS0_17TypeFilterOptionsE
Xwm:_Comparison_1_Invoke_m3343660775_gshared
dfa:__ZN13RuntimeStaticI15GUIEventManagerLb0EE16StaticInitializeEPv
bIb:__ZL12InvokeMethodI18StreamedBinaryReadILb0EEEvRK29SerializationCommandArgumentsR31RuntimeSerializationCommandInfo
VGi:_Enumerator_MoveNext_m166065087_gshared
wqe:__ZN15RaycastCallback14processTouchesEPKN5physx12PxRaycastHitEj
y$k:_Version_CompareTo_m3146217210
BNc:__ZN24RigidbodyMovementState2D21ResetAngularMoveStateEv
Dpm:_ReadOnlyCollection_1_GetEnumerator_m2548551286_gshared
KLm:_Uri_ParseAsUnixAbsoluteFilePath_m1476768041
Iyl:_Array_InternalArray__ICollection_CopyTo_TisKeyValuePair_2_t71524366_m1056941380_gshared
Jhe:__ZN5physx2Gu5RTree15exportExtraDataERNS_22PxSerializationContextE
BWk:_Type_get_IsClass_m589177581
Zek:__ZL62NativeTypeAttribute_t2250406315_CustomAttributesCacheGeneratorP21CustomAttributesCache
_2f:_NetworkLobbyManager_OnLobbyClientConnect_m3109869223
flj:_String_ReplaceUnchecked_m1381393810
bGb:__Z29Transfer_Blittable_ArrayFieldI18StreamedBinaryReadILb1EE5RectTIfEEvRT_R9ArrayInfoRK23StaticTransferFieldInfo
rtb:__ZN19ShaderPropertySheet9SetMatrixEN9ShaderLab16FastPropertyNameERK10Matrix4x4fNS_8SetFlagsE
j_m:_TextEditor_GetGraphicalLineStart_m2559051595
i8a:__Z29GetTextureSizeAllowedMultiple13TextureFormat
$Wd:__ZNK5physx2Sq10AABBPruner7overlapERKNS0_9ShapeDataERNS0_14PrunerCallbackE
SMj:_Decimal_Subtract_m835601464
FQb:__ZZ23InitPlayerLoopCallbacksvEN52InitializationAsyncUploadTimeSlicedUpdateRegistrator7ForwardEv
Pzi:_Array_InternalArray__ICollection_Add_TisBoolean_t97287965_m1361760099_gshared
Myj:_Quaternion_Internal_ToEulerRad_m1503250752
S1g:_X509ExtensionCollection_get_IsSynchronized_m2607599544
sfc:__ZN21IntermediateRenderers3AddEP20IntermediateRenderer
qWn:_il2cpp_array_element_size
V0g:_X509CertificateCollection__ctor_m3178797723
kMd:__ZN5physx6shdfnd5ArrayIPvNS0_19ReflectionAllocatorINS_2Gu30LargePersistentContactManifoldEEEE4copyINS0_15InlineAllocatorILj256ES6_EEEEvRKNS1_IS2_T_EE
P7n:__ZN6il2cpp2os10SocketImpl8ShutdownEi
jVj:__ZL62ComVisibleAttribute_t1362837655_CustomAttributesCacheGeneratorP21CustomAttributesCache
rMl:_List_1_System_Collections_IEnumerable_GetEnumerator_m1824431956_gshared
oBj:_RectTransform_INTERNAL_set_sizeDelta_m188783163
Rg:_glCheckFramebufferStatus
vho:__ZN6il2cpp2os11EventHandle4WaitEv
S3g:_U3CGetEnumeratorU3Ec__Iterator0_System_Collections_Generic_IEnumeratorU3CTU3E_get_Current_m9057020_gshared
vAn:_CustomEventData__ctor_m4146403782
SX:__ZN19CloudServiceHandler20StartEventDispatcherERKN11UnityEngine15CloudWebService18CloudServiceConfigERNS1_23WebRequestRestHeaderMapE
Olf:_GraphicRaycaster__ctor_m646559428
cde:__ZN5physx2Cm12DelegateTaskINS_2Sc5SceneEXadL_ZNS3_19updateCCDSinglePassEPNS_10PxBaseTaskEEEE11runInternalEv
r2h:_CipherSuite_get_CipherAlgorithmType_m137858741
u8c:__ZN5physx6string9sprintf_sEPcjPKcz
TMc:__ZNK15b2DistanceJoint17GetReactionTorqueEf
Bke:__ZThn8_N5physx19TriangleMeshBuilderD1Ev
CMf:_BitArrayEnumerator_get_Current_m4220391712
Nsh:__Z37il2cpp_codegen_get_executing_assemblyPK10MethodInfo
aYg:_HttpWebRequest_GetServicePoint_m2640244283
RBj:_Transform_get_parent_m835071599
hfl:_ValueCollection_System_Collections_IEnumerable_GetEnumerator_m2027312452_gshared
z1c:__ZN5physx2Gu16intersectRayAABBERKNS_6PxVec3ES3_S3_S3_RfS4_
Bqb:__ZN9Transform23VirtualRedirectTransferER17RemapPPtrTransfer
pYg:_IPAddress_get_ScopeId_m4237202723
tt:__ZN4core8hash_mapIN11UnityEngine9Animation14GenericBindingENS2_10BoundIndexENS2_25GenericBindingHashFunctorENS2_30GenericBindingValueArrayUniqueEE4growEi
Dv:__ZN21AnimationClipPlayable7SetTimeEd
XIm:_ExpressionCollection_get_Item_m3510736379
cJk:__ZL62FontData_t746620069_CustomAttributesCacheGenerator_m_AlignmentP21CustomAttributesCache
bBg:__Z58RuntimeInvoker_PeerInfoPlayer_t607460057_Int32_t2950945753PFvvEPK10MethodInfoPvPS4_
Gdf:_StandaloneInputModule_get_inputActionsPerSecond_m3946624274
wSk:_UTF8Encoding_InternalGetCharCount_m82458470
nGj:_Vector2__cctor_m2108982652
Uml:_Dictionary_2_System_Collections_ICollection_get_IsSynchronized_m3311070887_gshared
$jg:__Z72RuntimeInvoker_Boolean_t97287965_Vector4_t3319028937_Vector4_t3319028937PFvvEPK10MethodInfoPvPS4_
Gdc:__ZZL23RegisterLightPropertiesR22GenericPropertyBindingEN22Wrapper_LightIntensity13GetFloatValueEPv
st:__ZN4core8hash_mapIN11UnityEngine9Animation14GenericBindingENS2_10BoundIndexENS2_25GenericBindingHashFunctorENS2_30GenericBindingValueArrayUniqueEE4growEv
Hjh:_InternalEnumerator_1_MoveNext_m2734554195_AdjustorThunk
Mae:__ZN5physx30setupFinalizeSolverConstraintsERNS_13PxcNpWorkUnitERKNS_2Gu13ContactBufferERKNS_20PxcCorrelationBufferERKNS_11PxTransformESB_bPhRKNS_13PxcSolverBodyESF_RKNS_17PxcSolverBodyDataESI_ffffff
nzk:__ZL107MatchInfoDirectConnectSnapshot_t618021185_CustomAttributesCacheGenerator_U3CpublicAddressU3Ek__BackingFieldP21CustomAttributesCache
xea:__ZN22BuiltinResourceManager16StaticInitializeEPv
bSh:_MaskableGraphic_RecalculateClipping_m1772937317
csd:__ZN5physx7NpScene17releaseBatchQueryEPNS_12PxBatchQueryE
LZn:__ZN6il2cpp2gc9AllocatorIP12Il2CppThreadE10deallocateEPvj
vOc:__ZN24b2ChainAndCapsuleContact8EvaluateEP10b2ManifoldRK11b2TransformS4_
HSn:__ZN13Il2CppHashMapIPK14Il2CppAssemblyPK22Il2CppMonoAssemblyNameN6il2cpp5utils11PointerHashIS1_EENSt3__28equal_toIS2_EENSA_9allocatorINSA_4pairIK10KeyWrapperIS2_ES5_EEEEEC2EjRKS9_RKSC_
dae:__ZN5physx26solveVBlockDefaultFrictionEPNS_13PxsSolverCoreEfjjPNS_13PxcSolverBodyEPNS_17PxcSolverBodyDataEjjPNS_25PxcArticulationSolverDescEjPNS_23PxcSolverConstraintDescEjS9_jRNS_6shdfnd5ArrayINS_24PxsConstraintBatchHeaderENSA_19ReflectionAllocatorISC_EEEESG_PNS_2Cm13SpatialVectorEPNS_25PxcThresholdStreamElementEjRj
VCf:_DelegatePInvokeWrapper_AppDomainInitializer_t682969308
sqd:__ZN5physx15NpActorTemplateINS_18PxArticulationLinkEE17resolveReferencesERNS_24PxDeserializationContextE
d3:__ZN8Remapper6RemoveEi
HRm:_UnityEvent_1__ctor_m3777630589_gshared
FTd:__ZN5physx19NpRigidBodyTemplateINS_18PxArticulationLinkEE9visualizeERNS_2Cm12RenderOutputEPNS_7NpSceneE
l$d:__ZN5physx11writeBack1DERKNS_23PxcSolverConstraintDescERNS_16PxcSolverContextERNS_17PxcSolverBodyDataES6_
uUf:_ChannelBuffer_FreePacket_m1477998118
MIi:_Enumerator_MoveNext_m2424180334_gshared
vmc:__ZN9Scripting27CreateArgumentNullExceptionEPKc
VLe:__ZL36CleanupTextRenderingScriptingClassesv
_Yc:__ZThn4_N16RayRTreeCallbackILi0ELb0EED0Ev
D1b:__ZN15ReflectionProbe17UseRendererResultEP13ProbeRenderer
gvc:__Z34Mesh_CUSTOM_SetArrayForChannelImplP12Il2CppObject30InternalScriptingShaderChannel34InternalScriptingVertexChannelTypeiP11Il2CppArrayi
X1:__Z32scripting_class_get_nested_types17ScriptingClassPtrRNSt3__26vectorIS_13stl_allocatorIS_L18MemLabelIdentifier1ELi16EEEE
fvn:_CanvasRenderer_INTERNAL_CALL_EnableRectClipping_m3318097918
WZk:_UInt64_System_IConvertible_ToDecimal_m806594027_AdjustorThunk
ICi:_Enumerator_System_Collections_IEnumerator_get_Current_m361750367_AdjustorThunk
mSm:_UnityEvent_1_GetDelegate_m274387680_gshared
QTg:_RealProxy_InternalGetTransparentProxy_m1765012608
cdn:_Array_InternalArray__get_Item_TisNetworkHash128_t2391674535_m1784757104_gshared
yHl:_List_1__ctor_m3395838871_gshared
hTj:_CultureInfo_get_Parent_m672689885
juf:_NetworkReader_ReadColor_m783205024
xSd:__ZNK5physx2Sc5Scene20getNbParticleSystemsEv
Awl:_DefaultComparer_GetHashCode_m2651362016_gshared
M3g:_ThreadSafeDictionaryValueFactory_2_EndInvoke_m3655810195_gshared
zCm:_PKCS12__ctor_m1854440921
vEl:_Array_Resize_TisCustomAttributeNamedArgument_t287865710_m885566878_gshared
Uqc:__Z37Quaternion_CUSTOM_INTERNAL_CALL_SlerpRK11QuaternionfS1_fRS_
eul:_DefaultComparer__ctor_m2556554241_gshared
TF:__ZN11UnityEngine9Animation28GenericAnimationBindingCache25RegisterIAnimationBindingEPKN5Unity4TypeEiP17IAnimationBinding
fWd:__ZN5physx2Gu17GetGeomSweepFuncsEv
$fd:__ZN5physx6shdfnd8PoolBaseINS_15PxsArticulationENS0_16AlignedAllocatorILj64ENS0_9AllocatorEEEE17releaseEmptySlabsEv
Hki:_Enumerator_System_Collections_IEnumerator_get_Current_m472556657_AdjustorThunk
Dro:dynCall_viiffiii
T1g:_X509ExtensionCollection_get_SyncRoot_m2667861032
fCn:__ZN6il2cpp2vm5Class15GetElementClassEP11Il2CppClass
rca:__ZN10MemoryPoolC2E10MemLabelIdbPKciii
BPl:__ZN23InterfaceActionInvoker2IP29InternalMsgU5BU5D_t4292724566iE6InvokeEjP11Il2CppClassP12Il2CppObjectS1_i
nDd:__ZN5physx22NpParticleBaseTemplateINS_15PxParticleFluidENS_15NpParticleFluidEE23setParticleReadDataFlagENS_22PxParticleReadDataFlag4EnumEb
iem:_Collection_1_SetItem_m941095285_gshared
qTe:__ZN14UnityAnalytics25UnregisterGlobalCallbacksEv
d0b:__Z40ProcessCameraIndexListIsNodeVisibleInOutRK22SceneCullingParametersPK9SceneNodePK4AABBR9IndexList
R9l:_Collection_1_RemoveAt_m884558328_gshared
$$m:_GUIScrollGroup_SetHorizontal_m291416666
EYa:__ZN16GraphicsSettings8TransferI17RemapPPtrTransferEEvRT_
LPe:__ZN2UI6Canvas13UpdateBatchesEb
A_g:_X509BasicConstraintsExtension_Decode_m120598446
mB:__ZNK23AnimationPlayableOutput11DerivesFromE17ScriptingClassPtr
i7a:__ZN7Texture19SupportsAsyncUploadI19StreamedBinaryWriteILb0EEEEbRT_
Njg:__Z49RuntimeInvoker_Boolean_t97287965_Rect_t2360479859PFvvEPK10MethodInfoPvPS4_
rwo:_glGetShaderInfoLog__wrapper
h8l:_Collection_1_System_Collections_IList_set_Item_m355494542_gshared
akk:__ZL101Transform_t3600365921_CustomAttributesCacheGenerator_Transform_INTERNAL_get_localRotation_m1111330565P21CustomAttributesCache
Swd:__ZN5physx2Gu5Debug9visualizeERKNS_13PxBoxGeometryERNS_2Cm12RenderOutputERKNS5_8Matrix34ERKNS_9PxBounds3Eyfj
V$k:_Array_Resize_TisCRCMessageEntry_t1041239249_m1051765211_gshared
vdg:__Z51RuntimeInvoker_UInt32_t2560061978_Int16_t2552820387PFvvEPK10MethodInfoPvPS4_
Yra:__ZNK13GfxDeviceGLES12GetWireframeEv
_bn:_DelegatePInvokeWrapper_Action_t1264377477
N$l:_Queue_1_GetEnumerator_m3204935081_gshared
lPf:_Queue_get_Count_m2065247734
vXc:__ZN5physx6shdfnd5ArrayIPKvNS0_19ReflectionAllocatorIS3_EEE6resizeEjRKS3_
aXe:__ZN11UnityEngine7Connect13ConfigHandler12GetListenersERKN4core12basic_stringIcNS2_20StringStorageDefaultIcEEEE
Gta:__ZN9GfxDevice18AllocRenderSurfaceEb
CIf:_Char__cctor_m2787437263
Sae:__ZN5physx31setupFinalizeSolverConstraints4EPNS_21PxcSolverContact4DescERNS_18PxcNpThreadContextEPhffRKNS_6shdfnd3aos5Vec4VES9_S9_S9_
yOd:__ZN5physx7NpScene5flushEb
d8b:__ZN10TagManager32GetSortingLayerUniqueIDFromValueEi
zVe:__ZN11UnityEngine7Connect15DeviceInfoEvent7GFXInfoD2Ev
Vef:_AspectRatioFitter_get_rectTransform_m2996235303
K1:__ZL27CleanupCoreScriptingClassesv
KTj:_DateTimeFormatInfo_get_IsReadOnly_m1173781646
fUj:_NumberFormatInfo_get_PercentPositivePattern_m1800841633
cYc:__ZN5physx2Gu13GeometryUnion3setERKNS_10PxGeometryE
AEi:_Enumerator_VerifyCurrent_m3071620407_AdjustorThunk
Nlh:_ArraySegment_1_GetHashCode_m3394884290_AdjustorThunk
o6c:__ZThn8_N5physx3Cct17CapsuleController15getPxControllerEv
lph:_Comparer_1_System_Collections_IComparer_Compare_m1313384821_gshared
bUl:_List_1_System_Collections_IEnumerable_GetEnumerator_m3243406541_gshared
LQh:_LayoutRebuilder_GetHashCode_m1943075341
jyh:_GenericTypeParameterBuilder_MakeGenericType_m3048165991
arc:__Z26AnimationCurve_CUSTOM_InitP12Il2CppObjectP11Il2CppArray
vzk:__ZL83U3CProcessMatchResponseU3Ec__Iterator0_2_t2014003516_CustomAttributesCacheGeneratorP21CustomAttributesCache
EOc:__ZNK14b2PolygonShape5CloneEP16b2BlockAllocator
sSn:__ZN6il2cpp2vm10Reflection7IsEventEP12Il2CppObject
Mko:__ZNSt3__26__treeINS_12__value_typeIPFvvEPK10MethodInfoEENS_19__map_value_compareIS3_S7_NS_4lessIS3_EELb1EEENS_9allocatorIS7_EEE16__insert_node_atEPNS_16__tree_node_baseIPvEERSI_SI_
x0:__ZN17PersistentManager26GetStreamNameSpaceInternalEi
yll:_Dictionary_2_Clear_m1582006663_gshared
WI:__ZN4FMOD6System11createSoundEPKcjP22FMOD_CREATESOUNDEXINFOPPNS_5SoundE
Ep:FUNCTION_TABLE_iiifiiii
Ljh:_InternalEnumerator_1_System_Collections_IEnumerator_Reset_m1451164462_AdjustorThunk
Sxe:__ZN13SpeedTreeWind20AdvanceWithoutUpdateEd
Uhm:_ReadOnlyCollection_1_System_Collections_Generic_ICollectionU3CTU3E_Add_m1422506275_gshared
Ovi:_Array_InternalArray__IEnumerable_GetEnumerator_TisNetworkHash128_t2391674535_m867913237_gshared
iIj:_DateTime_System_IConvertible_ToDecimal_m1044850612
eHl:_List_1_IndexOf_m2206067159_gshared
o0g:_X509Store_get_Factory_m3282910266
Pre:__ZThn128_N5physx7profile8ZoneImplINS_28PxProfileNameProviderForwardEED1Ev
Wca:__ZN9ShaderLab19CommonPropertyNames13StaticCleanupEPv
x2:__Z31scripting_method_get_returntype18ScriptingMethodPtr
z6m:__ZN21InterfaceFuncInvoker3IbP19Vector2_t2156229523S1_PfE6InvokeEjP11Il2CppClassP12Il2CppObjectS1_S1_S2_
wXd:__ZN5physx2Sq17AABBTreeUpdateMap10invalidateEjjRNS0_8AABBTreeE
zjn:__ZL24UnresolvedVirtualCall_76P12Il2CppObjectPK10MethodInfo
D9a:__ZN15SerializeTraitsI12LightmapDataE8TransferI24GenerateTypeTreeTransferEEvRS0_RT_
zsf:_NetworkMessageHandlers_ClearMessageHandlers_m552732940
iae:__ZN5physx28solveParallelDefaultFrictionERNS_18PxsDynamicsContextEjjPNS_13PxcSolverBodyEPNS_17PxcSolverBodyDataEjjPNS_25PxcArticulationSolverDescEjPNS_23PxcSolverConstraintDescEjS9_jPiSA_SA_SA_SA_SA_PNS_25PxcThresholdStreamElementEjSA_PNS_2Cm13SpatialVectorEPKPNS_11PxsBodyCoreERNSD_10BitMapBaseINS_6shdfnd9AllocatorEEEPKPNS_15PxsArticulationEjPViRNSL_5ArrayINS_24PxsConstraintBatchHeaderENSL_19ReflectionAllocatorISW_EEEES10_RNSV_IjNSX_IjEEEES13_PPNS_12PxsRigidBodyEj
xwo:_glStencilOpSeparate__wrapper
yic:__ZN4Mesh5SetUvEiPKfjj
Eab:__ZN7Texture13SetAnisoLimitENS_20AnisotropicFilteringE
YQ:__ZN11AudioModule16SetListenerPauseEb
PFf:_Attribute_IsDefined_m4069052474
Pi:_emscripten_glCompressedTexSubImage2D
qGa:__ZN13GfxDeviceGLES22MemoryBarrierImmediateEyN2gl17MemoryBarrierTypeE
Vm:_abort
cPh:_U3CCaretBlinkU3Ec__Iterator0_Dispose_m860898205
YDa:__ZN6prcoreL26RemapGenericFloatToIntegerI18TexFormatARGBFloat17TexFormatARGB8888EEvPKNS_9InnerInfoE
GZl:_List_1_set_Capacity_m1977188119_gshared
ybo:__ZN6il2cpp6icalls8mscorlib6System10Reflection9MonoField16GetValueInternalEP21Il2CppReflectionFieldP12Il2CppObject
Qlc:__Z46GetShaderModelNumericValueFromRequirementsMask18ShaderRequirements
YRk:_UTF7Encoding_InternalGetBytes_m797138468
EBe:_cff_ps_has_glyph_names
Gke:__ZN5physx15writeWordBufferEPKtjbRNS_14PxOutputStreamE
jol:_Dictionary_2_Resize_m3287623642_gshared
Zdo:_GC_write
qXj:__ZL69RuntimeArray_CustomAttributesCacheGenerator_Array_SetValue_m394135409P21CustomAttributesCache
b8e:_RC2_Create_m2516417038
d9k:_Enumerator_MoveNext_m1497434861_AdjustorThunk
vlf:_Graphic_OnPopulateMesh_m767318148
z7e:_HMACSHA512_set_ProduceLegacyHmacValues_m3961135292
YNm:__ZN28GenericInterfaceFuncInvoker1Ib27CRCMessageEntry_t1041239249E6InvokeEPK10MethodInfoP12Il2CppObjectS0_
Uhl:_Dictionary_2_Remove_m4193450060_gshared
BHh:_ASN1_get_Tag_m1032367219
Bhn:_StandardEventPayload_set_name_m549984672
f2i:_Int64_TryParse_m3606398488
HOg:_RemotingServices_IsTransparentProxy_m1535738947
JCl:_Array_InternalArray__set_Item_TisMark_t3471605523_m1299772331_gshared
hBc:__Z44Register_UnityEngine_GUIStyle_SetDefaultFontv
K8n:__GLOBAL__sub_I_ThreadImpl_cpp
WDb:__Z18Transfer_BlittableI18StreamedBinaryReadILb1EELb1EiEvRK29SerializationCommandArgumentsR31RuntimeSerializationCommandInfo
PC:__ZN9BlobWrite8TransferI22OffsetPtrArrayTransferIKN4math7_float3EEEEvRT_PKc17TransferMetaFlags
Vnm:_ReadOnlyCollection_1_GetEnumerator_m2813779073_gshared
Y7f:__Z173RuntimeInvoker_Int32_t2950945753_RuntimeObject_Int32_t2950945753_Int32_t2950945753_Int32_t2950945753_RuntimeObject_Int32_t2950945753_SByte_t1669577662_ContextU26_t3937453398PFvvEPK10MethodInfoPvPS4_
pLl:_List_1__ctor_m2576108087_gshared
gRn:__ZN15dense_hashtableINSt3__24pairIK10KeyWrapperINS1_IPK12PropertyInfoP11Il2CppClassEEEjEES9_17ReflectionMapHashIS8_EN14dense_hash_mapIS9_jSD_NS9_14EqualsComparerINS0_8equal_toIS8_EEEENS0_9allocatorISB_EEE9SelectKeyESI_SK_E12maybe_shrinkEv
Odd:__ZN5physx2Sc7BodySim37checkSleepReadinessBesidesWakeCounterEv
vEb:__Z18Transfer_BlittableI18StreamedBinaryReadILb1EELb1EsEvRK29SerializationCommandArgumentsR31RuntimeSerializationCommandInfo
OQk:_StringBuilder_Remove_m940064945
X5e:_DESCryptoServiceProvider_GenerateIV_m683687014
zdi:_GenericComparer_1__ctor_m1900257738_gshared
Iab:__ZL21SetAnisoLimitEnumImplN7Texture20AnisotropicFilteringEb
kVe:__ZN22BaseUnityConnectClient17OnEnterStateReadyEv
vGd:__ZNK5physx22NpParticleBaseTemplateINS_16PxParticleSystemENS_16NpParticleSystemEE15getMaxParticlesEv
rrd:__ZN5physx2Sc16ArticulationCore14setWakeCounterEf
XOl:_List_1_Reverse_m124600253_gshared
ILd:__ZN5physx2Sc10NPhaseCore24createTriggerInteractionERNS0_8ShapeSimES3_NS_7PxFlagsINS_10PxPairFlag4EnumEtEE
PYh:_Text_get_fontSize_m1677872538
sDg:__Z83RuntimeInvoker_DictionaryEntry_t3123975638_RuntimeObject_KeyValuePair_2_t2530217319PFvvEPK10MethodInfoPvPS4_
SFl:_List_1_System_Collections_IList_get_Item_m995551621_gshared
aJl:_List_1_Shift_m2950281666_gshared
PWa:__ZN14GrowableBufferD2Ev
mqc:__Z29Input_CUSTOM_GetMouseButtonUpi
b_c:__ZN5physx2Gu12selectNormalEhff
jJm:_BackslashNumber__ctor_m3802423446
$Ln:__ZN6il2cpp6icalls8mscorlib6System8MonoType16InternalGetEventEP20Il2CppReflectionTypeP12Il2CppStringi
GMm:_UriScheme_t722425697_marshal_pinvoke_back
Vfl:_Dictionary_2_pick_key_m2747995308_gshared
wDe:_UNITY_tt_face_load_maxp
cAc:__Z39Register_UnityEngine_Event_Internal_Usev
Aqc:__Z46Input_CUSTOM_INTERNAL_set_compositionCursorPosRK13Vector2fIcall
wv:__ZN7mecanim5human12FullBodyMaskEv
XEd:__ZN5physx3Scb14ParticleSystem16releaseParticlesEjRKNS_16PxStrideIteratorIKjEE
QNk:__ZL62Shadow_t773074319_CustomAttributesCacheGenerator_m_EffectColorP21CustomAttributesCache
aGh:_BigInteger_ToString_m3475000413
Ugb:__ZN19ShaderPropertySheet11ComputeHashEv
VFn:__ZN30dense_hashtable_const_iteratorI10KeyWrapperIPK19Il2CppGenericMethodES4_N6il2cpp8metadata23Il2CppGenericMethodHashEN14dense_hash_setIS4_S7_NS4_14EqualsComparerINS6_26Il2CppGenericMethodCompareEEENSt3__29allocatorIS4_EEE8IdentityESB_SE_EppEv
HRd:__ZN5physx2Sc5Scene21processLostTouchPairsEv
jPc:__ZN12b2EPCollider24ComputePolygonSeparationEv
rFb:__ZN4PPtrI6ObjectE8TransferI18StreamedBinaryReadILb1EEEEvRT_
fY:__ZN11UnityEngine15CloudWebService14DataDispatcher39StartJobSetupSessionContainerToDispatchEv
nW:__ZN11UnityEngine15CloudWebService20WebRequestRestClient6IsDoneEv
LRi:_ShimEnumerator_get_Value_m4238507471_gshared
qKm:_Group__ctor_m2980794822
yRi:_ShimEnumerator_get_Current_m3041593866_gshared
dPm:_CachedInvokableCall_1_Invoke_m502907382_gshared
Nj:_llvm_fabs_f32
SV:__ZN11UnityEngine15CloudWebService16SessionContainer16GetJsonDataBlockEjRKN4core12basic_stringIcNS2_20StringStorageDefaultIcEEEERS6_PjSA_
Xoe:__ZThn28_N14PhysicsManager7onSleepEPPN5physx7PxActorEj
xHh:_ASN1_Decode_m1695284166
g2h:__ZN23GenericVirtFuncInvoker0IP28ValidationResult_t3834298736E6InvokeEPK10MethodInfoP12Il2CppObject
dZi:__ZN23GenericVirtFuncInvoker2I27DictionaryEntry_t312397563826NetworkHash128_t2391674535P12Il2CppObjectE6InvokeEPK10MethodInfoS3_S1_S3_
Z3d:__ZN5physx22PxcContactConvexConvexERKNS_2Gu13GeometryUnionES3_RKNS_11PxTransformES6_RKfRNS_10PxcNpCacheERNS0_13ContactBufferE
yQj:_Enum_ToString_m3248653065
tZc:__ZNK5physx2Gu11ConvexHullV12HillClimbingERKNS_6shdfnd3aos5Vec3VE
BLd:__ZNK5physx2Sc17ParticleSystemSim7getCoreEv
Vzc:__Z40Register_UnityEngine_Event_set_modifiersv
R2j:__ZL56_MethodBuilder_t600455149_CustomAttributesCacheGeneratorP21CustomAttributesCache
N0:__ZN14SafeBinaryReadD2Ev
pui:_SetPropertyUtility_SetStruct_TisFillMethod_t1167457570_m4164776730_gshared
LEd:__ZN5physx2Sc18ParticleSystemCore10setDampingEf
o9b:__Z13RegisterClassI7TextureEvv
Woi:_Enumerator_MoveNext_m3859993671_gshared
LFb:__ZN8Gradient8TransferI18StreamedBinaryReadILb1EEEEvRT_
M_h:_SequentialSearchPrimeGeneratorBase_IsPrimeAcceptable_m1127740833
l2g:_Capture__ctor_m3103117740
Gcb:__ZN4core8hash_mapINS_12basic_stringIcNS_20StringStorageDefaultIcEEEE13dynamic_arrayI4PPtrI6SpriteELj4EENS_4hashIS4_EENSt3__28equal_toIS4_EEEixERKS4_
mAk:__ZL65GlobalConfig_t833512557_CustomAttributesCacheGenerator_m_MaxHostsP21CustomAttributesCache
W6f:__Z113RuntimeInvoker_Void_t1185182177_RuntimeObject_Int64_t3736567304_RuntimeObject_Int64_t3736567304_Int64_t3736567304PFvvEPK10MethodInfoPvPS4_
yZk:_UInt32_CompareTo_m2218823230
xad:__ZN5physx2Sc10NPhaseCore16deleteFilterPairEPNS0_10FilterPairE
yil:_Dictionary_2_System_Collections_IDictionary_GetEnumerator_m1912138066_gshared
qzj:_RangeInt_get_end_m4128831787_AdjustorThunk
r1n:__ZN6il2cpp6icalls8mscorlib6System4Type15MakeGenericTypeEP20Il2CppReflectionTypeP11Il2CppArray
ste:_PxCreateBasePhysics
_Cj:_Shader__ctor_m837260462
nk:_SDL_PauseAudio
hCi:_Enumerator_System_Collections_IEnumerator_get_Current_m864720549_AdjustorThunk
qOf:_Hashtable_Clone_m3078962909
Yzc:__Z40Register_UnityEngine_Event_set_characterv
sNn:__ZN6il2cpp2os4File11GetStdErrorEv
X9j:__ZL77Convert_t2465617642_CustomAttributesCacheGenerator_Convert_ToSByte_m516918950P21CustomAttributesCache
yed:__ZN5physx2Sc5Scene28addActiveBreakableConstraintEPNS0_13ConstraintSimE
Vca:__ZN9ShaderLab19CommonPropertyNames16StaticInitializeEPv
wtd:__ZN5physx6shdfnd8PoolBaseINS_16NpParticleSystemENS0_19ReflectionAllocatorIS2_EEE15disposeElementsEv
Iob:__ZN13MemoryManager31DisallowAllocationsOnThisThreadEv
Anh:_Comparer_1__cctor_m2517796511_gshared
UE:__ZN7mecanim9animation18CreateAvatarOutputEPKNS0_14AvatarConstantEbbRNS_6memory9AllocatorE
jse:__ZN5physx7profile11EventBufferINS_24PxDefaultContextProviderENS_6shdfnd6MutexTINS0_26WrapperReflectionAllocatorIhEEEENS0_14ScopedLockImplIS7_EENS_24PxProfileNullEventFilterEE10eventValueEtyx
rBc:__Z45GUIUtility_CUSTOM_Internal_GetKeyboardControlv
trn:_DelegatePInvokeWrapper_PCMSetPositionCallback_t1059417452
FXh:_Slider_set_maxValue_m2251404465
Rfn:_UnityWebRequestAsyncOperation__ctor_m1252495487
oYh:_SpriteState_get_pressedSprite_m3868967445_AdjustorThunk
SO:__ZN11AudioSource23VirtualRedirectTransferER24GenerateTypeTreeTransfer
dic:__ZN7Texture11SetWrapModeE15TextureWrapMode
hOl:_List_1__ctor_m4203943072_gshared
hUe:__ZN14UnityAnalytics15SendCustomEventERN11UnityEngine9Analytics15UserCustomEventE
bdb:__ZN14Texture2DArray23VirtualRedirectTransferER14SafeBinaryRead
haj:_MissingMemberException__ctor_m1220732369
lXb:__ZNK6Camera21CalculateCanDoShadowsEv
gQd:__ZNK5physx2Sc5Scene17getBroadPhaseCapsERNS_16PxBroadPhaseCapsE
emg:__Z52RuntimeInvoker_Void_t1185182177_Int32U26_t1369213839PFvvEPK10MethodInfoPvPS4_
kqd:__ZN5physx9NpFactory14onActorReleaseEPNS_7PxActorE
yuf:_NetworkScene_get_unspawnHandlers_m1013094169
J6m:_ClientMoveCallback3D_EndInvoke_m2168504064
b_m:_TextEditor_FindEndOfPreviousWord_m1511551992
w8n:__ZN6il2cpp2os6Thread12SetStackSizeEj
Q5m:_NetworkTransport_ConnectToNetworkPeer_m461204670
XCg:__Z55RuntimeInvoker_KeyValuePair_2_t3373118172_RuntimeObjectPFvvEPK10MethodInfoPvPS4_
Agd:__ZN5physx2Sc5Actor15onElementAttachERNS0_7ElementE
cSh:_MaskableGraphic_RecalculateMasking_m183336762
G6k:_Array_InternalArray__get_Item_TisRuntimeObject_m3347010206_gshared
yAh:_TypeBuilder_IsSubclassOf_m3458909121
_hc:__ZNK8Renderer16IsVisibleInSceneEv
DZf:_NetworkBehaviour_ClearAllDirtyBits_m2997855575
l0:__Z13VFormatBufferPciPKcz
wEd:__ZN5physx2Sc18ParticleSystemCore23setSimulationFilterDataERKNS_12PxFilterDataE
RGb:__Z18Transfer_BlittableI18StreamedBinaryReadILb0EELb1EhEvRK29SerializationCommandArgumentsR31RuntimeSerializationCommandInfo
CAf:_X509Certificate__cctor_m198658613
Q9f:__Z43RuntimeInvoker_MethodAttributes_t2366443849PFvvEPK10MethodInfoPvPS4_
Vxj:_PlayableHandle_Equals_m1666612586_AdjustorThunk
aEa:__ZN6prcoreL27StretchGenericFloatBilinearI15TexFormatRFloatEEvPKNS_9InnerInfoE
pWd:__ZN5physx6shdfnd8internal8HashBaseINS0_4PairIKNS_2Sq13PrunerPayloadEjEES5_NS0_4HashIS5_EENS1_11HashMapBaseIS5_jS9_NS0_9AllocatorEE6GetKeyESB_Lb1EE15reserveInternalEj
WIl:_List_1_CopyTo_m2321906348_gshared
Wck:__ZL139ServicePointManager_t170559685_CustomAttributesCacheGenerator_ServicePointManager_t170559685____CheckCertificateRevocationList_PropertyInfoP21CustomAttributesCache
KQj:_Enum_ToObject_m1628250250
jy:__Z24ProcessAnimationMixBeginP35AnimationPlayableEvaluationConstantP32AnimationPlayableEvaluationInputP33AnimationPlayableEvaluationOutput
c8i:_StreamWriter_LowLevelWrite_m1081676583
$wi:_Array_compare_TisQosType_t3566496866_m3124543990_gshared
dBa:__Z14PadImageBorderR14ImageReferenceii
f3m:_ListMatchRequest_set_pageSize_m2542353962
IPn:__ZN15dense_hashtableINSt3__24pairIK10KeyWrapperINS1_IPK10MethodInfoP11Il2CppClassEEEjEES9_17ReflectionMapHashIS8_EN14dense_hash_mapIS9_jSD_NS9_14EqualsComparerINS0_8equal_toIS8_EEEENS0_9allocatorISB_EEE9SelectKeyESI_SK_E4findERSA_
eJn:__ZN6il2cpp2vm13MetadataCache28GetFieldDefaultValueForFieldEPK9FieldInfo
qTf:_Convert_ToUInt16_m2185524030
mom:_ReadOnlyCollection_1_System_Collections_IList_Insert_m2942432180_gshared
Pxi:_Array_IndexOf_TisUIVertex_t4057497605_m3336763564_gshared
Z5l:__ZN21InterfaceFuncInvoker1I22OrderBlock_t1585977831iE6InvokeEjP11Il2CppClassP12Il2CppObjecti
Ny:__ZN27AnimationLayerMixerPlayableD2Ev
_gf:_ColorBlock_Equals_m518833916_AdjustorThunk
b_d:__ZN5physx2Gu22gjkRelativePenetrationINS0_9TriangleVENS0_8CapsuleVEEEjRKT_RKT0_RKNS_6shdfnd3aos15PsMatTransformVERKNSB_6FloatVERNSB_5Vec3VESJ_SJ_RSF_PhSL_Rh
aBg:__Z60RuntimeInvoker_CRCMessageEntry_t1041239249_Int32_t2950945753PFvvEPK10MethodInfoPvPS4_
_le:__ZN9Rigidbody14SetIsKinematicEb
mmk:__ZL66PersistentCall_t3407714124_CustomAttributesCacheGenerator_m_TargetP21CustomAttributesCache
bL:__ZN12AudioManager39HandlePendingAudioConfigurationCallbackEv
s8k:_Enumerator_Dispose_m682569795_gshared
opg:__Z120RuntimeInvoker_Void_t1185182177_RuntimeObject_Int32_t2950945753_UInt64_t4134040092_UInt64_t4134040092_UInt16_t2177724958PFvvEPK10MethodInfoPvPS4_
nl:_emscripten_glIsFramebuffer
eKh:_RSAManaged_EncryptValue_m799827583
S4:__ZN12_GLOBAL__N_16qAtan2Eff
xwe:__Z13RegisterClassI9RigidbodyEvv
j4f:__Z61RuntimeInvoker_UInt32_t2560061978_RuntimeObject_RuntimeObjectPFvvEPK10MethodInfoPvPS4_
lUk:_ThreadAbortException__ctor_m1955533141
sl:_JS_Sound_SetLoopPoints
Jfa:__ZN15dense_hashtableINSt3__24pairIKyP17VertexDeclarationEEy14GfxGenericHashIyEN14GfxDoubleCacheIyS4_S7_NS0_8equal_toIyEEN31GfxDoubleCacheConcurrencyPolicy11LocklessGetE42GfxDoubleCacheDefaultEmptyDeletedGeneratorIyEE9SelectKeyESA_13stl_allocatorIS5_L18MemLabelIdentifier24ELi16EEE14squash_deletedEv
gQ:__ZN12AudioManager17ShouldSourcePauseEb
zio:__ZN6il2cpp2vm26MetadataAllocGenericMethodEv
kti:_Array_InternalArray__ICollection_Remove_TisUInt16_t2177724958_m1766181761_gshared
bKa:__ZN19ConstantBuffersGLES12RecordRenderEv
SVd:__ZN5physx13ActorAABBTaskD2Ev
_qn:_VerticalLayoutGroup_SetLayoutHorizontal_m84550911
oSm:_UnityEvent_1__ctor_m3675246889_gshared
ZEc:__ZN9JSONWrite8TransferI10RectOffsetEEvRT_PKc17TransferMetaFlags
khl:_Dictionary_2__ctor_m280240841_gshared
KAa:__ZN4crnd12symbol_codec11decode_bitsEj
lug:__Z59RuntimeInvoker_Boolean_t97287965_KeyValuePair_2_t3842366416PFvvEPK10MethodInfoPvPS4_
F0h:_EncryptedPrivateKeyInfo__ctor_m3415744930
FPc:__ZN15b2CircleContact8EvaluateEP10b2ManifoldRK11b2TransformS4_
UZg:_AsnEncodedData__ctor_m3792312694
Gxk:__ZL120ListMatchRequest_t1588429355_CustomAttributesCacheGenerator_ListMatchRequest_get_matchAttributeFilterEqualTo_m2609736901P21CustomAttributesCache
jcn:_AesManaged_GenerateIV_m1368817386
bfc:__ZN21FixedBehaviourManagerD0Ev
W$a:__ZN10Matrix3x4f8TransferI24GenerateTypeTreeTransferEEvRT_
$0m:_TextEditor_SelectTextStart_m3167909833
t9b:__Z13RegisterClassI15QualitySettingsEvv
Ftl:__ZN21InterfaceFuncInvoker2IbyyE6InvokeEjP11Il2CppClassP12Il2CppObjectyy
fL:__ZN4FMOD6System12createReverbEPPNS_6ReverbE
$bo:__ZN6il2cpp2vm6String21InitializeEmptyStringEP11Il2CppClass
UVi:_Transform_1_BeginInvoke_m1736238130_gshared
r_j:__ZL48Queue_t3637523393_CustomAttributesCacheGeneratorP21CustomAttributesCache
Ey:__ZN7mecanim19ValueArrayBlendNodeILb1EEEvRKNS_10ValueArrayERKNS_14ValueArrayMaskERS1_RS4_RNS_16ValueArrayWeightEf
Z4e:_CodeAccessPermission_GetHashCode_m880096813
Kob:__Z16MarkDependenciesR27GarbageCollectorThreadStatej
Psh:_AssemblyConfigurationAttribute__ctor_m3236176989
igl:_Dictionary_2_ContainsKeyValuePair_m1410625635_gshared
FEi:_Enumerator_System_Collections_IEnumerator_get_Current_m1910217520_gshared
VWm:_ObjectPool_1_get_countInactive_m526975942_gshared
Azk:__ZL142U3CProcessMatchResponseU3Ec__Iterator0_2_t2014003516_CustomAttributesCacheGenerator_U3CProcessMatchResponseU3Ec__Iterator0_2_Reset_m2906193717P21CustomAttributesCache
HTg:_RemotingServices_DisposeIdentity_m2605848806
c5:__ZNK9Transform11GetPositionEv
btd:__ZN5physx12NpConstraint8requiresERNS_23PxProcessPxBaseCallbackE
Xnj:_Bounds_set_size_m4127623202
s_i:_GuidParser_Reset_m2640004655
Luc:__Z24GL_CUSTOM_ImmediateColorffff
HZa:__ZN23SharedMeshRenderingData18UnloadVertexStreamEi
Cnm:_ReadOnlyCollection_1_System_Collections_Generic_IListU3CTU3E_set_Item_m1059728259_gshared
o7c:__ZN5physx3Cct13HandleManager3AddEPv
rfc:__ZN31CanvasBatchIntermediateRenderer11AddSubBatchERK16DrawBuffersRangePK19ShaderPropertySheet
Bam:_Collection_1_Remove_m172416043_gshared
$dc:__ZN19RenderEventsContextC2Ei
YT:__Z6simd4fRKf
Ljk:__ZL67SceneManager_t2787271929_CustomAttributesCacheGenerator_sceneLoadedP21CustomAttributesCache
RTj:_GregorianCalendar_GetEra_m2369958449
q1k:_Array_Sort_TisQosType_t3566496866_m3941549306_gshared
Joh:_Comparer_1__ctor_m1372759144_gshared
Wl:_emscripten_glEnable
Ebh:_InternalEnumerator_1_System_Collections_IEnumerator_get_Current_m2982675020_gshared
KUa:__ZN10TagManager23VirtualRedirectTransferER14SafeBinaryRead
IKk:__ZL51RawImage_t3182918964_CustomAttributesCacheGeneratorP21CustomAttributesCache
jfe:__ZNK5physx2Sc15ClothFabricCore9getNbSetsEv
uhm:_Collection_1_System_Collections_IList_get_Item_m2931804586_gshared
sTg:_ObjRef_get_EnvoyInfo_m1782007847
$Li:_KeyCollection_System_Collections_Generic_ICollectionU3CTKeyU3E_Remove_m2569003252_gshared
ALl:_List_1_System_Collections_ICollection_get_IsSynchronized_m3331050698_gshared
Tpf:_NetworkServer_GetNetworkIdentity_m3268648805
fwc:__Z60Register_UnityEngine_Networking_DownloadHandlerBuffer_Createv
Pyn:_RaycastHit_get_collider_m1464180279
YQh:_LayoutUtility_GetLayoutProperty_m714717302
Qrl:_Dictionary_2_make_pair_m2060927834_gshared
nPd:__ZNK5physx7NpScene26getNbContactDataBlocksUsedEv
Yo:FUNCTION_TABLE_iifiii
Awk:__ZL102JoinMatchRequest_t3991767598_CustomAttributesCacheGenerator_JoinMatchRequest_set_networkId_m1582426564P21CustomAttributesCache
_2c:__ZN5physx2Gu29computeCapsule_HeightFieldMTDERKNS_21PxHeightFieldGeometryERKNS_11PxTransformERNS0_8CapsuleVEffbjRNS_10PxSweepHitE
FBn:__ZNK15dense_hashtableINSt3__24pairIK10KeyWrapperIPK22Il2CppGenericParameterEP11Il2CppClassEES6_N6il2cpp5utils11PointerHashIS4_EEN14dense_hash_mapIS6_S9_SE_NS6_14EqualsComparerINS0_8equal_toIS5_EEEENS0_9allocatorISA_EEE9SelectKeyESJ_SL_E10test_emptyEj
MKd:__ZNK5physx2Cm12DelegateTaskINS_7NpSceneEXadL_ZNS2_14executeCollideEPNS_10PxBaseTaskEEEE7getNameEv
Age:__ZN5physx2Gu11HeightField15exportExtraDataERNS_22PxSerializationContextE
h0a:__Z13TransferArrayILi4Ei19StreamedBinaryWriteILb0EEEjRAT__T0_PKcRT1_
Otm:_ReadOnlyCollection_1_System_Collections_IList_Contains_m2904046095_gshared
zab:__ZN15QualitySettings8TransferI19StreamedBinaryWriteILb0EEEEvRT_
ORj:_GC_KeepAlive_m1400443516
JUj:_SortKey_GetHashCode_m3547067087
lRh:_LayoutUtility_U3CGetFlexibleHeightU3Em__7_m2991026842
hCb:__Z18Transfer_BlittableI19StreamedBinaryWriteILb0EELb1E8Vector2fEvRK29SerializationCommandArgumentsR31RuntimeSerializationCommandInfo
aze:_cf2_arrstack_init
Icn:_Array_InternalArray__get_Item_TisResourceCacheItem_t51292791_m1306056717_gshared
iaf:_EventSystem_get_pixelDragThreshold_m1103650852
b_:__Z15CleanLogHandler7LogTypePKcz
Gqh:_NumberFormatter_NumberToString_m2481532188
zoa:__ZN9ShaderLab19SerializedSubShader8TransferI19StreamedBinaryWriteILb0EEEEvRT_
xvd:__ZN5physx10NpMaterialC2ERKNS_2Sc12MaterialCoreE
QVh:_ScrollRect_InternalGetBounds_m599803667
FKi:_Enumerator_MoveNext_m76191888_gshared
Arm:_ReadOnlyCollection_1_System_Collections_IList_Add_m1080993190_gshared
BK:__ZN14AudioBehaviour15ThreadedCleanupEv
V6d:__ZN5physx9PxTaskMgr10resolveRowEjb
Xyn:_Rigidbody_set_angularVelocity_m4254006699
kKb:__ZN6Camera17RemoveImageFilterERK11ImageFilter
eqa:__ZNSt3__218__insertion_sort_3IR25ValueParameterArraySorterPN20GpuProgramParameters14ValueParameterEEEvT0_S6_T_
uSc:__ZN10ClipperLib7Clipper27ProcessEdgesAtTopOfScanbeamEx
Hck:__ZL67EditorBrowsableAttribute_t1475454531_CustomAttributesCacheGeneratorP21CustomAttributesCache
vNf:_Comparer__cctor_m3311686689
itn:_PlayerController_InvokeCmdCmdLayManyBlocks_m554639517
DQe:__ZZN2UI11CanvasGroup15InitializeClassEvEN38FunctorImpl_117kTransformParentChanged4CallEPviR11MessageData
Eef:_UIBehaviour_OnDidApplyAnimationProperties_m2143584361
xfk:__ZL102SystemInfo_t3561985952_CustomAttributesCacheGenerator_SystemInfo_get_operatingSystemFamily_m4256884728P21CustomAttributesCache
YSm:_DataResponseDelegate_1_BeginInvoke_m3252082414_gshared
xle:__ZN8Collider12GetIsTriggerEv
aMm:_Uri__ctor_m3040793867
hWk:_TimeZone__ctor_m1831364098
LRn:__ZNK10KeyWrapperINSt3__24pairIPK9EventInfoP11Il2CppClassEEE14EqualsComparerINS0_8equal_toIS7_EEEclERKS8_SE_
gbh:_InternalEnumerator_1_get_Current_m3500427238_AdjustorThunk
rQe:__ZN2UI26InitializeDeviceForOverlayEi
Fee:__ZNK5physx13NpClothFabric13getRestvaluesEPfj
Wba:__Z27LogRepeatingStringWithFlagsRKN4core12basic_stringIcNS_20StringStorageDefaultIcEEEE15LogMessageFlagsi
o0c:__ZN5physx2Gu16_gjkLocalRayCastINS0_9TriangleVENS0_11ConvexHullVEEEbRT_RT0_RKNS_6shdfnd3aos6FloatVERKNS9_5Vec3VESF_RSA_RSD_SH_f
cNi:_KeyCollection_System_Collections_Generic_IEnumerableU3CTKeyU3E_GetEnumerator_m525473090_gshared
LQj:_Enum_IsDefined_m1442314461
KTk:_Thread__cctor_m817723615
Brn:_AudioExtensionManager_RegisterBuiltinDefinitions_m2742744104
Xv:__ZN17AnimationPlayable28ComputeNeedsBindingRebuildedEv
Ltl:_Dictionary_2_pick_key_m303747890_gshared
cv:__ZN17AnimationPlayable23RequestAllocateBindingsEv
Jed:__ZN5physx6shdfnd8PoolBaseINS_2Cm5BlockIPvLj32EEENS0_19ReflectionAllocatorIS5_EEE17releaseEmptySlabsEv
ezm:_Predicate_1_EndInvoke_m3884403745_gshared
g0d:__ZN5physx23PxsBroadPhaseContextSap21batchUpdateFewUpdatesEjRPNS_17PxcBroadPhasePairERjS4_
yOk:_DecoderReplacementFallbackBuffer_Fallback_m1261056214
Zlk:__ZL112StackTraceUtility_t3465565809_CustomAttributesCacheGenerator_StackTraceUtility_PostprocessStacktrace_m1043256299P21CustomAttributesCache
F3c:__ZN5physx3Cct17getSceneTimestampEPKNS0_30InternalCBData_FindTouchedGeomE
dTb:__ZNSt3__227__insertion_sort_incompleteIRPFbP10GUIElementS2_EPS2_EEbT0_S7_T_
$5m:_NetworkTransport_StartBroadcastDiscovery_m3499887629
pth:_Binder_get_DefaultBinder_m950908649
qzg:__Z78RuntimeInvoker_Void_t1185182177_BooleanU5BU5DU26_t3454195888_Int32_t2950945753PFvvEPK10MethodInfoPvPS4_
T8j:__ZL59ArgumentException_t132251570_CustomAttributesCacheGeneratorP21CustomAttributesCache
VXe:__ZN18UnityConnectClient33OnPlayerSessionStateChangedStaticEPS_jyy
qoh:_Comparer_1__cctor_m298632577_gshared
Qcj:_RSA_ToXmlString_m2922661427
ZW:__ZNK11UnityEngine15CloudWebService23WebRequestUploadHandler11GetProgressEv
Kgi:_HashSet_1_GetLinkHashCode_m1038140788_gshared
Kxa:__ZN7ApiGLES4LoadE16GfxDeviceLevelGL
Q9a:__ZN18StreamedBinaryReadILb0EE21TransferSTLStyleArrayI13dynamic_arrayI31EnlightenSystemAtlasInformationLj8EEEEvRT_17TransferMetaFlags
W_h:_ASN1_Add_m2431139999
_Bg:__Z39RuntimeInvoker_PendingOwner_t3340073490PFvvEPK10MethodInfoPvPS4_
Gud:__ZN5physx9NpPhysics15createAggregateEjb
Vrk:__ZL61GUIContent_t3050628031_CustomAttributesCacheGenerator_m_ImageP21CustomAttributesCache
EAa:__ZN4crnd12crn_unpacker22decode_color_endpointsEv
wQh:_U3CDelayedSetDirtyU3Ec__Iterator0_Reset_m160466733
scc:__ZZL31RegisterOtherRendererPropertiesR22GenericPropertyBindingEN30Wrapper_RendererReceiveShadows13GetFloatValueEPv
r3n:__ZNSt3__218uninitialized_fillIPNS_4pairIK10KeyWrapperINS1_IPKcS4_EEEiEES8_EEvT_SA_RKT0_
XNm:_Predicate_1_Invoke_m2709021824_gshared
ype:__ZN9Rigidbody5ResetEv
eri:_Array_InternalArray__ICollection_Contains_TisSlot_t384495010_m688761886_gshared
nxf:_AddPlayerMessage_Deserialize_m186926774
h8a:__ZN17SharedTextureDataC2E10MemLabelIdii13TextureFormatjiibb
Crg:__Z114RuntimeInvoker_RuntimeObject_RuntimeObject_Int32_t2950945753_Int32_t2950945753_Int32_t2950945753_Int32_t2950945753PFvvEPK10MethodInfoPvPS4_
rNb:__ZN8Material11SetPassFastEPN9ShaderLab4PassER17ShaderPassContextP6Shaderib
Wuc:__Z31Renderer_Set_Custom_PropEnabledP12Il2CppObjectb
Yab:__ZNK13ScreenManager13GetLockCursorEv
TXe:__ZN11UnityEngine7Connect20BasePersistentValues10SaveValuesER9JSONWrite
Zem:_Collection_1_IsFixedSize_m3748602684_gshared
kIj:_DateTime_System_IConvertible_ToDouble_m2116720007
arj:_Display_GetSystemExtImpl_m2808197389
V7f:__Z114RuntimeInvoker_Int32_t2950945753_RuntimeObject_RuntimeObject_Int32_t2950945753_Int32_t2950945753_Int32_t2950945753PFvvEPK10MethodInfoPvPS4_
uhb:__ZN14SafeBinaryRead21TransferSTLStyleArrayINSt3__26vectorI17SubstanceEnumItemNS1_9allocatorIS3_EEEEEEvRT_17TransferMetaFlags
mAf:_X509Certificate_PEM_m1177570576
frh:_NumberFormatter_AppendExponent_m1258666517
r4g:_ArrayReadOnlyList_1_GetEnumerator_m1835926958_gshared
TZm:_TextEditor_Cut_m1289908069
M6d:__ZN5physx9PxTaskMgr12addReferenceEj
oQc:__ZNSt3__27__sort4IR24RayHitsByDepthComparitorP12RaycastHit2DEEjT0_S5_S5_S5_T_
Djc:__Z14ScaleCurveTimeR17AnimationCurveTplIfEf
jfa:__ZN22VirtualJoystickManagerC2Ev
jFm:_X509Stores_Open_m1037335183
Lea:__ZN20GlobalCachingManager7DisposeEv
jUb:__Z12SetupLODFadeR9GfxDeviceR17ShaderPassContextf
$5a:__ZNK14PlayableOutput7GetTypeEv
pOc:__ZN26b2PolygonAndCapsuleContact6CreateEP9b2FixtureiS1_iP16b2BlockAllocator
CYj:__ZL69Type_t_CustomAttributesCacheGenerator_Type_GetConstructors_m576905011P21CustomAttributesCache
RDk:__ZL77NetworkServer_t2920297688_CustomAttributesCacheGenerator_U3CU3Ef__mgU24cache4P21CustomAttributesCache
p2m:_ResponseBase_ParseJSONBool_m1289868847
JZb:__ZL24CollectForwardObjectsJobP27CollectForwardObjectsHeader
KYl:_List_1_get_Item_m1378751541_gshared
E$b:__Z13IsNodeVisibleRK9SceneNodeRK4AABBRK22SceneCullingParameters
big:__Z54RuntimeInvoker_LayerMask_t3493934918_Int32_t2950945753PFvvEPK10MethodInfoPvPS4_
h7f:__Z44RuntimeInvoker_RuntimeTypeHandle_t3027515415PFvvEPK10MethodInfoPvPS4_
$lh:__ZN21InterfaceFuncInvoker1IibE6InvokeEjP11Il2CppClassP12Il2CppObjectb
QAh:__ZN30GenericInterfaceActionInvoker1IP20Delegate_t1188392813E6InvokeEPK10MethodInfoP12Il2CppObjectS1_
PEh:_SortKeyBuffer_AppendCJKExtension_m2591091991
Yig:__Z36RuntimeInvoker_HideFlags_t4250555765PFvvEPK10MethodInfoPvPS4_
lSe:__Z57RectTransformUtility_CUSTOM_INTERNAL_CALL_PixelAdjustRectP12Il2CppObjectS0_R5RectTIfE
h_m:_GUIStyle_Internal_GetCursorStringIndex_m1958709211
qSk:_UTF8Encoding_GetByteCount_m4153686982
L8g:_InternalEnumerator_1_MoveNext_m2556495271_AdjustorThunk
sxe:__Z52Register_UnityEngine_Rigidbody_INTERNAL_get_positionv
E0b:__Z24ScheduleCullingAllGroupsR8JobFenceRK22SceneCullingParametersiRK13CullingOutputRK13dynamic_arrayIP12CullingGroupLj4EERKS_
qCo:_emscripten_glStencilMask__wrapper
L5f:__Z49RuntimeInvoker_Void_t1185182177_Double_t594665363PFvvEPK10MethodInfoPvPS4_
LFn:__ZN15dense_hashtableI10KeyWrapperIPK19Il2CppGenericMethodES4_N6il2cpp8metadata23Il2CppGenericMethodHashEN14dense_hash_setIS4_S7_NS4_14EqualsComparerINS6_26Il2CppGenericMethodCompareEEENSt3__29allocatorIS4_EEE8IdentityESB_SE_EC2ERKSH_j
tvk:__ZL78Request_t2696089890_CustomAttributesCacheGenerator_U3CdomainU3Ek__BackingFieldP21CustomAttributesCache
zlm:_ReadOnlyCollection_1_System_Collections_IList_Remove_m2902997569_gshared
bEn:__ZNK15dense_hashtableINSt3__24pairIK10KeyWrapperIPK11Il2CppClassEPKcEES6_N6il2cpp5utils11PointerHashIS3_EEN14dense_hash_mapIS6_S9_SE_NS6_14EqualsComparerINS0_8equal_toIS5_EEEENS0_9allocatorISA_EEE9SelectKeyESJ_SL_E8min_sizeEjj
JWa:__ZN15RenderNodeQueue7CleanupEv
Fui:_Array_InternalArray__IEnumerable_GetEnumerator_TisByte_t1134296376_m1979205379_gshared
jQa:__ZNK17ArchiveFileSystem8PositionERK13FileEntryData
G8c:__ZN16NovodexAllocator8allocateEjPKcS1_i
FYi:_Transform_1_EndInvoke_m1916505551_gshared
S4a:__ZN39DeprecatedFastPropertyNameSerialization8TransferI14SafeBinaryReadEEvRT_
NCm:_DeriveBytes_DeriveIV_m973925711
G0i:_Int32_System_IConvertible_ToSByte_m3133688512
yji:_KeyValuePair_2__ctor_m2550832551_AdjustorThunk
IFl:_List_1_System_Collections_IList_Add_m1681258361_gshared
Q5n:__ZN15dense_hashtableINSt3__24pairIK10KeyWrapperIP12Il2CppObjectEN6il2cpp2gc9CachedCCWEEES5_NS7_5utils11PointerHashIS3_EEN14dense_hash_mapIS5_S9_SD_NS5_14EqualsComparerINS0_8equal_toIS4_EEEENS0_9allocatorISA_EEE9SelectKeyESI_SK_E12expand_arrayEjN21dense_hash_map_traits17integral_constantIbLb0EEE
Ptm:_ReadOnlyCollection_1_System_Collections_IList_IndexOf_m848971554_gshared
uyk:__ZL102ListMatchResponse_t3200990838_CustomAttributesCacheGenerator_ListMatchResponse_set_matches_m2209334367P21CustomAttributesCache
GZb:__ZN9ShaderLab10GrabPassesD2Ev
ZVh:_ScrollRect_CalculateOffset_m927043599
mdb:__ZN14Texture2DArray13UploadTextureEv
ORh:_MaskableGraphic_UpdateCull_m2805101913
dEe:_tt_cmap14_done
Fmb:__ZN18AwakeFromLoadQueue25RegisterObjectInstanceIDsEv
ble:__ZN5physx21PxProfileNameProviderD2Ev
QCl:_Array_InternalArray__set_Item_TisColor32_t2600501292_m1891325855_gshared
Ulh:_ArraySegment_1_Equals_m3304116411_gshared
Fdf:_StandaloneInputModule_set_forceModuleActive_m2237222402
Sy:__ZNK27AnimationLayerMixerPlayable11DerivesFromE17ScriptingClassPtr
pKe:__ZN20TextRenderingPrivate19NativeTextGenerator15InsertCharacterEiPj
Cpn:__ZL25UnresolvedVirtualCall_403P12Il2CppObjecti20UICharInfo_t75501106PK10MethodInfo
_Pd:__ZN5physx2Sc5Scene22removeBroadPhaseRegionEj
w8f:__Z77RuntimeInvoker_Void_t1185182177_RuntimeObject_SByte_t1669577662_RuntimeObjectPFvvEPK10MethodInfoPvPS4_
c9f:__Z81RuntimeInvoker_Void_t1185182177_RuntimeObject_SByte_t1669577662_SByte_t1669577662PFvvEPK10MethodInfoPvPS4_
G7c:__ZN5physx2Cm12RenderBuffer5clearEv
Nyf:_NetworkTransform_set_clientMoveCallback3D_m645399186
jUl:_List_1_System_Collections_ICollection_get_SyncRoot_m2140068359_gshared
MBd:__ZNK5physx2Sc9ClothCore21getStiffnessFrequencyEv
lLc:__ZN11b2RopeJoint24SolveVelocityConstraintsERK12b2SolverData
Com:_ReadOnlyCollection_1_System_Collections_Generic_ICollectionU3CTU3E_Add_m1513301489_gshared
hbj:_MonoType_get_attributes_m1332507727
r$m:_GUIContent_ClearStaticCache_m1205116045
cKk:__ZL66InputField_t3762917431_CustomAttributesCacheGenerator_m_CaretWidthP21CustomAttributesCache
qYd:__ZN5physx13PxsCCDContext14postCCDAdvanceEPNS_10PxBaseTaskE
Nhj:_WindowsIdentity_Dispose_m3466258450
zx:__ZN17AnimationPlayableD0Ev
$Cb:__Z18Transfer_BlittableI19StreamedBinaryWriteILb0EELb0EyEvRK29SerializationCommandArgumentsR31RuntimeSerializationCommandInfo
GUg:_BinaryCommon__cctor_m2978407547
IIf:_Char_System_IConvertible_ToByte_m2347554595
xtm:_ReadOnlyCollection_1_GetEnumerator_m1017886827_gshared
Cgl:_Dictionary_2_System_Collections_Generic_ICollectionU3CSystem_Collections_Generic_KeyValuePairU3CTKeyU2CTValueU3EU3E_Contains_m2599845875_gshared
DZj:__ZL47ASN1_t2114160832_CustomAttributesCacheGeneratorP21CustomAttributesCache
y1m:_HostTopology__ctor_m1320382600
E0n:__ZN6il2cpp6icalls8mscorlib6System2IO6MonoIO20GetFileSystemEntriesEP12Il2CppStringS6_iiPi
YLe:__ZN20TextRenderingPrivate15DynamicFontData21GetFontMetricsForFaceERK13dynamic_arrayIN4core17string_with_labelILi35EEELj4EEiRKS1_I4PPtrIN13TextRendering4FontEELj4EEPfSF_
DVm:_IndexedSet_1__ctor_m2250384602_gshared
Rwl:_DefaultComparer__ctor_m1306123661_gshared
Ayf:_NetworkTransform_get_syncSpin_m3846305034
l8n:__ZN6il2cpp5utils13dynamic_arrayIPNS_2os6ThreadELj4EE9push_backEv
Bpn:__ZL25UnresolvedVirtualCall_402P12Il2CppObjectiPK10MethodInfo
ePk:_Encoding__ctor_m2997749867
quj:_ManagedStreamHelpers_ManagedStreamSeek_m3158782053
wfl:_Dictionary_2_System_Collections_Generic_IDictionaryU3CTKeyU2CTValueU3E_get_Values_m2912230850_gshared
OKm:_ExpressionAssertion_Compile_m2166597834
DJb:__ZN16ScriptingManagerD0Ev
_ij:_Single_System_IConvertible_ToSByte_m1208276900_AdjustorThunk
Tuc:__Z29Register_UnityEngine_GL_Beginv
Sco:__ZN6il2cpp6icalls8mscorlib6System7Convert24InternalFromBase64StringEP12Il2CppStringb
H2d:__ZNK5physx10BPWorkTask7getNameEv
Sqd:__ZN5physx2Sc8ShapeSim16onResetFilteringEv
uwf:_NetworkServer_OnCommandMessage_m683442624
e3j:__ZL58ChannelServices_t3942013484_CustomAttributesCacheGeneratorP21CustomAttributesCache
n3n:__ZN30dense_hashtable_const_iteratorINSt3__24pairIK10KeyWrapperINS1_IPKcS4_EEEiEES6_24NamespaceAndNamePairHashN14dense_hash_mapIS6_iS9_NS6_14EqualsComparerI26NamespaceAndNamePairEqualsEENS0_9allocatorIS8_EEE9SelectKeyESD_SF_EppEv
Joc:__Z44Register_UnityEngine_Component_get_transformv
Nzi:_Array_InternalArray__ICollection_Add_TisTableRange_t3332867892_m1428005761_gshared
TD:__ZN12_GLOBAL__N_120ProcessPlayableGraphERN8Animator11AnimatorJobER35AnimationPlayableEvaluationConstantR32AnimationPlayableEvaluationInputR33AnimationPlayableEvaluationOutputPFvS4_R17AnimationPlayableEPFvS4_S6_S8_EPFvS8_S4_S6_S8_fESE_MS9_FvPS3_PS5_PS7_E
dWj:__ZL48Double_t594665363_CustomAttributesCacheGeneratorP21CustomAttributesCache
SUj:_TextInfo_ToLower_m2744057472
ted:__ZN5physx2Sc16ActorInteractionD2Ev
nQb:__ZN17ArchiveFileSystem12MountArchiveEPKcS1_
cdi:_EqualityComparer_1_System_Collections_IEqualityComparer_Equals_m3977314386_gshared
cEc:__Z18Transfer_BlittableI9JSONWriteLb1E8Vector4fEvRK29SerializationCommandArgumentsR31RuntimeSerializationCommandInfo
To:FUNCTION_TABLE_viififiii
ZRj:_CCGregorianCalendar_year_from_fixed_m463929682
xOe:__ZN2UI13CanvasManagerD0Ev
H_:__ZThn32_NK8Renderer14GetSubsetIndexEi
YZi:_Transform_1_Invoke_m2894530070_gshared
yrd:__ZN5physx2Sc16ArticulationCore26setExternalDriveIterationsEj
bim:_ReadOnlyCollection_1_System_Collections_IEnumerable_GetEnumerator_m2123446296_gshared
T$h:_MD2Managed_Initialize_m2341076836
Mtm:_ReadOnlyCollection_1_System_Collections_IList_Add_m4240023232_gshared
zua:__ZN9GfxDevice15ImmediateVertexEfff
Z8b:__Z13RegisterClassI8MaterialEvv
$8a:__ZNK16LightmapSettings22GetTypeVirtualInternalEv
pXa:__ZN16GraphicsSettings13AwakeFromLoadE17AwakeFromLoadMode
A1k:_Array_Sort_TisUIVertex_t4057497605_TisUIVertex_t4057497605_m4243853890_gshared
Sr:__ZN6Object13AwakeFromLoadE17AwakeFromLoadMode
Rra:__ZN13GfxDeviceGLES15SetStencilStateEPK18DeviceStencilStatei
NWf:_NetworkBehaviour_GetInvokerForHashSyncList_m1253515114
P5i:__ZN28GenericInterfaceFuncInvoker3IiP22ByteU5BU5D_t4116647657iiE6InvokeEPK10MethodInfoP12Il2CppObjectS1_ii
wHf:_Buffer_BlockCopyInternal_m418318694
$mo:_cycle
dnj:_AssetBundleCreateRequest_t3119663542_marshal_pinvoke
Ico:__ZN6il2cpp2vm8Profiler7GCEventE13Il2CppGCEvent
w7f:__Z76RuntimeInvoker_Void_t1185182177_RuntimeObject_RuntimeFieldHandle_t1871169219PFvvEPK10MethodInfoPvPS4_
Wem:_Collection_1_ConvertItem_m4023613763_gshared
cDm:_PKCS12_Finalize_m507756088
ve:_emscripten_glUniform1iv
iUk:_Thread_get_ManagedThreadId_m1068113671
UNc:__ZN15b2DistanceProxy3SetEPK7b2Shapei
xsb:__ZN16MemoryFileSystemD2Ev
N7f:__Z150RuntimeInvoker_Int32_t2950945753_RuntimeObject_Int32_t2950945753_Int32_t2950945753_RuntimeObject_Int32_t2950945753_Int32_t2950945753_Int32_t2950945753PFvvEPK10MethodInfoPvPS4_
aGf:_BitConverter_DoubleToInt64Bits_m3574395137
OJj:_DateTime_Parse_m3729096069
uLl:_List_1_System_Collections_IList_Add_m1540114404_gshared
d5g:_InternalEnumerator_1_System_Collections_IEnumerator_Reset_m81420524_AdjustorThunk
roc:__Z37Register_UnityEngine_Camera_get_depthv
_5h:_TlsClientFinished_ProcessAsTls1_m2429863130
tGg:__Z92RuntimeInvoker_RuntimeObject_SByte_t1669577662_SByte_t1669577662_RuntimeObject_RuntimeObjectPFvvEPK10MethodInfoPvPS4_
m8i:_StringReader_Read_m3322058819
SMg:_CrossAppDomainChannel_get_ChannelPriority_m3418073750
D8h:_EqualityComparer_1__ctor_m1860346363_gshared
KOh:_Selectable_StartColorTween_m3618813981
O1d:__ZNK5physx16PxsBroadPhaseMBP18getNumDeletedPairsEv
J9e:_BaseInputModule_HandlePointerExitAndEnter_m1705532066
HAh:_EventInfo__ctor_m3033129999
lre:__ZN5physx7profile8ZoneImplINS_28PxProfileNameProviderForwardEE10startEventEty
Kin:__ZL24UnresolvedVirtualCall_33P12Il2CppObjectiS0_S0_PK10MethodInfo
KYd:__ZN5physx10PxsCCDPair17sweepAdvanceToToiEfb
v8b:__ZN15ApplicationInfo16GetInstallerNameEv
a6b:__Z23ConvertIntegerToTypePtrItEbPvR14SafeBinaryRead
wOj:_Delegate_CombineImpl_m3572135514
Hqh:_NumberFormatter_IntegerToString_m1679294587
aej:_SHA256Managed_AddLength_m1060552216
Gmm:_ReadOnlyCollection_1_System_Collections_IList_RemoveAt_m422909114_gshared
yE:__ZN7mecanim5human29HumanGetGoalOrientationOffsetENS0_4GoalE
Me:_emscripten_glStencilFunc
cNk:__ZL78LayoutRebuilder_t541313304_CustomAttributesCacheGenerator_U3CU3Ef__amU24cache2P21CustomAttributesCache
Bhl:_Dictionary_2_System_Collections_IEnumerable_GetEnumerator_m3993325289_gshared
Upd:__ZN5physx6shdfnd8PoolBaseINS_2Cm5BlockIhLj384EEENS0_19ReflectionAllocatorIS4_EEE17releaseEmptySlabsEv
Mce:__ZN5physx16PxsIslandManager11freeBuffersEv
jin:__ZL23UnresolvedVirtualCall_6P12Il2CppObjectiPK10MethodInfo
cjn:__ZL24UnresolvedVirtualCall_53P12Il2CppObjectPK10MethodInfo
SPi:_KeyCollection_System_Collections_Generic_ICollectionU3CTKeyU3E_Add_m188985167_gshared
kdl:_ValueCollection__ctor_m2414914028_gshared
Did:__ZN5physx2Cm12DelegateTaskINS_2Sc17ParticleSystemSimEXadL_ZNS3_21prepareCollisionInputEPNS_10PxBaseTaskEEEE11runInternalEv
S2e:__Z46il2cpp_codegen_get_marshal_directive_exceptionPKc
sqa:__ZN9ShaderLab20SerializedSubProgram14AddMatrixParamEPKcii15ShaderParamTypei
V$a:__ZN24GenerateTypeTreeTransfer8TransferI13dynamic_arrayI8Vector3fLj4EEEEvRT_PKc17TransferMetaFlags
Te:_glGetActiveUniformBlockName
GGk:__ZL90PointerEventData_t3807901092_CustomAttributesCacheGenerator_U3CpointerIdU3Ek__BackingFieldP21CustomAttributesCache
Xx:__ZN7mecanim13CopyValueMaskILb0EEEvPKNS_14ValueArrayMaskEPS1_
Eg:_emscripten_glUniform1fv
hLm:_Parser_IsIgnoreCase_m2210120858
$0f:_NetworkHash128_Parse_m1438543136
sYm:_GUI_HandleTextFieldEventForTouchscreen_m1092737262
Vqc:__Z39Quaternion_CUSTOM_INTERNAL_CALL_InverseRK11QuaternionfRS_
ZWa:__ZNK4PPtrI5FlareEcvPS0_Ev
aM:__ZN4FMOD7Channel20set3DConeOrientationEP11FMOD_VECTOR
ANi:_KeyCollection_System_Collections_Generic_ICollectionU3CTKeyU3E_Add_m577143496_gshared
Ko:FUNCTION_TABLE_iiifii
Blc:__Z22scripting_string_chars18ScriptingStringPtr
suh:_AssemblyBuilder_not_supported_m1735277432
pgh:_InternalEnumerator_1_MoveNext_m1344185775_AdjustorThunk
d7n:__ZN6il2cpp2vm12GenericClass11SetupEventsEP11Il2CppClass
bHe:_tt_delta_interpolate
BEe:_tt_cmap12_get_info
wOl:_List_1_System_Collections_IList_get_IsFixedSize_m76157206_gshared
cgm:_Collection_1_Contains_m1707523067_gshared
qoi:_Enumerator__ctor_m2029608698_AdjustorThunk
Qyl:_Array_InternalArray__ICollection_CopyTo_TisKeyValuePair_2_t1624526043_m2709634105_gshared
yQn:__ZNK15dense_hashtableINSt3__24pairIK10KeyWrapperINS1_IPK11Il2CppImageP11Il2CppClassEEEjEES9_17ReflectionMapHashIS8_EN14dense_hash_mapIS9_jSD_NS9_14EqualsComparerINS0_8equal_toIS8_EEEENS0_9allocatorISB_EEE9SelectKeyESI_SK_E23find_position_with_hashERSA_j
Axn:__ZN6il2cpp6icalls8mscorlib6System7Decimal14decimalCompareEP19il2cpp_decimal_reprS5_
Thl:_Dictionary_2_OnDeserialization_m4209543208_gshared
pdo:__ZThn4_N6il2cpp2vm13CachedCCWBaseINS0_13ManagedObjectEE7ReleaseEv
ald:__ZN5physx26PxcFsComputeJointLoadsSimdERKNS_9PxcFsDataEPKNS_12PxcFsInertiaEPNS_6shdfnd3aos6Mat33VEPKfjjNS_21PxcFsScratchAllocatorE
VYm:_GUIUtility_set_textFieldInput_m4036087722
xOl:_List_1_System_Collections_IList_get_IsReadOnly_m2742884712_gshared
DKd:__ZN5physx6shdfnd8SyncImpl7getSizeEv
Zsj:_GameObject_AddComponent_m136524825
xgg:__Z100RuntimeInvoker_Void_t1185182177_RuntimeObject_Int32_t2950945753_Int32_t2950945753_UInt16_t2177724958PFvvEPK10MethodInfoPvPS4_
ZFg:__Z37RuntimeInvoker_Enumerator_t3667694113PFvvEPK10MethodInfoPvPS4_
U5a:__ZNSt3__26__treeINS_12__value_typeIN9ShaderLab16FastPropertyNameE10ColorRGBAfEENS_19__map_value_compareIS3_S5_NS_4lessIS3_EELb1EEENS_9allocatorIS5_EEE12__find_equalIS3_EERPNS_16__tree_node_baseIPvEENS_21__tree_const_iteratorIS5_PNS_11__tree_nodeIS5_SF_EEiEESI_RKT_
fzo:_glCopyTexImage2D__wrapper
Ykl:_Dictionary_2_System_Collections_Generic_IDictionaryU3CTKeyU2CTValueU3E_get_Values_m3852160865_gshared
_Uc:__ZN16PhysicsManager2D11CreateWorldERK8Vector2f
CPj:_Double_System_IConvertible_ToUInt32_m271206838
$_f:_NetworkClient_GenerateError_m2436110477
mXg:_Dns_GetHostAddresses_m878956259
lQl:_List_1_System_Collections_IList_Contains_m4232737923_gshared
CBk:__ZL75ClientScene_t3640716971_CustomAttributesCacheGenerator_U3CU3Ef__mgU24cacheDP21CustomAttributesCache
p5c:__ZN5physx11PxHitBufferINS_12PxRaycastHitEED0Ev
Laa:__GLOBAL__sub_I_runtime_graphics_billboard_0_cpp
Zki:_Enumerator__ctor_m113707524_gshared
CNb:__Z18ClearByDrawingQuad13GfxClearFlagsRK10ColorRGBAffjR17ShaderPassContext
zDa:__ZN6prcoreL17RemapGenericFloatI14TexFormatRHalf15TexFormatRFloatEEvPKNS_9InnerInfoE
drh:_NumberFormatter_FormatExponential_m2139559983
_Tb:__Z16ShouldUseShadowsb
gha:__ZN15DirectorManager21RebuildStageCallbacksEv
PNb:__ZN19RuntimeSceneManager9LoadSceneERKN4core12basic_stringIcNS0_20StringStorageDefaultIcEEEES6_S6_RK9UnityGUIDiNS_11LoadingModeE
SUl:_List_1_get_Item_m3893562651_gshared
Rwa:__ZN7ApiGLES10DrawArraysE16GfxPrimitiveTypejjj
pRg:_MethodCall_get_TypeName_m3873929301
KIl:_List_1_System_Collections_IList_get_IsReadOnly_m2500128275_gshared
NWc:__ZN5physx3Cct13BoxController15getPxControllerEv
xJ:__ZN10SampleClip13LoadBaseSoundEv
Z0c:__ZN5physx2Gu22gjkRelativePenetrationINS0_17ShrunkConvexHullVES2_EEjRKT_RKT0_RKNS_6shdfnd3aos15PsMatTransformVERKNSA_6FloatVERNSA_5Vec3VESI_SI_RSE_PhSK_Rh
EBf:_SmallXmlParser_SkipWhitespaces_m4243606597
hAk:__ZL75GlobalConfig_t833512557_CustomAttributesCacheGenerator_m_ThreadAwakeTimeoutP21CustomAttributesCache
BOi:_KeyCollection__ctor_m2113245510_gshared
ldm:_Collection_1_ClearItems_m258906244_gshared
NSj:_CompareInfo_IndexOf_m2631915198
sSl:_List_1_Add_m4223079847_gshared
Zuh:_ConstructorBuilder_GetCustomAttributes_m2495332786
xQg:_MethodCall__ctor_m3669645
jIf:_Byte_CompareTo_m4285128861
_af:_TriggerEvent__ctor_m87299207
Sgg:__Z48RuntimeInvoker_ExchangeAlgorithmType_t1320888206PFvvEPK10MethodInfoPvPS4_
fT:__Z57AudioSource_CUSTOM_INTERNAL_CALL_ClearExtensionPropertiesP12Il2CppObjectRK12PropertyName
r6n:__ZN15dense_hashtableINSt3__24pairIK10KeyWrapperIP12Il2CppObjectEN6il2cpp2gc9CachedCCWEEES5_NS7_5utils11PointerHashIS3_EEN14dense_hash_mapIS5_S9_SD_NS5_14EqualsComparerINS0_8equal_toIS4_EEEENS0_9allocatorISA_EEE9SelectKeyESI_SK_E15insert_noresizeERKSA_
Kde:__ZN5physx2Sc19ParticlePacketShapeC2ERNS0_17ParticleSystemSimEjPNS_16PxvParticleShapeE
e2f:_NetworkLobbyManager_set_lobbyPlayerPrefab_m1908147124
E8h:_EqualityComparer_1__cctor_m3962593840_gshared
W5a:__ZN22DeviceMVPMatricesStateC2ER9GfxDevice
r8h:_SslClientStream_Finalize_m1251363641
Iud:__ZN5physx9NpPhysics18createTriangleMeshERNS_13PxInputStreamE
_o:FUNCTION_TABLE_iiiiifiiiif
po:FUNCTION_TABLE_iifii
cuj:_Logger_set_logEnabled_m1180597166
Ibb:__ZNSt3__26vectorI13dynamic_arrayI8Vector2fLj4EENS_9allocatorIS3_EEE6assignINS_11__wrap_iterIPS3_EEEENS_9enable_ifIXaasr21__is_forward_iteratorIT_EE5valuesr16is_constructibleIS3_NS_15iterator_traitsISC_E9referenceEEE5valueEvE4typeESC_SC_
g9a:__ZN21EnlightenSceneMapping8TransferI14SafeBinaryReadEEvRT_
evf:_NetworkServerSimple_get_listenPort_m4143065365
F9d:__ZN5physx2Cm12DelegateTaskINS_2Sc5SceneEXadL_ZNS3_14updateDynamicsEPNS_10PxBaseTaskEEEED0Ev
HUn:__ZN6il2cpp2vm10Reflection12HasAttributeEP9FieldInfoP11Il2CppClass
_n:FUNCTION_TABLE_iiffi
Wc:invoke_viiifi
RHg:_MonoProperty_GetCustomAttributes_m3619796755
jMn:__ZNSt3__214__split_bufferIP11Il2CppClassRNS_9allocatorIS2_EEEC2EjjS5_
Uhe:__ZN5physx6shdfnd5ArrayIPNS_7PxActorENS0_19ReflectionAllocatorIS3_EEE8recreateEj
KRg:_MethodDictionary_System_Collections_IEnumerable_GetEnumerator_m4169036899
JBf:__ZN23InterfaceActionInvoker2IP8String_tP12Il2CppObjectE6InvokeEjP11Il2CppClassS3_S1_S3_
_Oa:__ZNK11AssetBundle14GetPreloadDataEiR13dynamic_arrayIiLj4EE
qcj:_RIPEMD160Managed_JJJ_m4161373884
LMg:_CrossContextChannel__ctor_m3755842292
sul:_DefaultComparer_Equals_m3257444875_gshared
dg:_JS_Sound_SetPosition
Q1a:__ZN19RenderBufferManager13GetTempBufferEii17DepthBufferFormat19RenderTextureFormatj22RenderTextureReadWrite14VRTextureUsagei23RenderTextureMemoryless
t2l:_Collection_1_System_Collections_IList_get_IsFixedSize_m4038894826_gshared
GIn:__ZL13GetSharedInstPK17Il2CppGenericInst
iHk:__ZL98PointerEventData_t3807901092_CustomAttributesCacheGenerator_PointerEventData_get_delta_m1062010255P21CustomAttributesCache
KUl:_List_1_Reverse_m3354188158_gshared
rIl:_List_1_get_Count_m634446588_gshared
DEn:__ZNK15dense_hashtableINSt3__24pairIK10KeyWrapperIPKcEP11Il2CppClassEES5_N6il2cpp5utils11StringUtils12StringHasherIS4_EEN14dense_hash_mapIS5_S8_SE_NS5_14EqualsComparerINSB_13VmStringUtils21CaseSensitiveComparerEEENS0_9allocatorIS9_EEE9SelectKeyESJ_SL_E3endEv
Mll:_Dictionary_2__ctor_m2253601317_gshared
sVe:__ZN22BaseUnityConnectClient17SaveSessionValuesEv
aqm:_ReadOnlyCollection_1_System_Collections_IList_get_IsReadOnly_m3794490900_gshared
a0:__Z63ThreadAndSerializationSafeCheckSetMonoBehaviourBeingTransferredP13MonoBehaviour
$xd:__ZNK5physx7NpCloth14getNbParticlesEv
Dad:__ZN5physx2Sc10NPhaseCore24releaseShapeInstancePairEPNS0_19ShapeInstancePairLLEjj
aNl:_List_1_Sort_m4240158523_gshared
SDl:_Array_qsort_TisInternalMsg_t2371755407_TisInternalMsg_t2371755407_m3694568916_gshared
eHj:_WaitForEndOfFrame__ctor_m1381314187
MZb:__Z24SetupActiveLightsContextR21ActiveLightingContextRK12ActiveLightsRK11CullResultsP14ShadowMapCacheRK10MinMaxAABB
Qef:_AnimationTriggers_set_disabledTrigger_m933056574
Asc:__Z38Sprite_CUSTOM_INTERNAL_get_textureRectP12Il2CppObjectP5RectTIfE
wUl:_List_1_Contains_m2938053620_gshared
tTn:__ZNK15dense_hashtableINSt3__24pairIK10KeyWrapperIPK22Il2CppGenericParameterEPK24MonoGenericParameterInfoEES6_N6il2cpp5utils11PointerHashIS4_EEN14dense_hash_mapIS6_SA_SF_NS6_14EqualsComparerINS0_8equal_toIS5_EEEENS0_9allocatorISB_EEE9SelectKeyESK_SM_E3endEv
rrk:__ZL104GUIUtility_t1868551600_CustomAttributesCacheGenerator_GUIUtility_Internal_SetKeyboardControl_m4077915422P21CustomAttributesCache
Nlc:__ZN9TextAsset7SetTextERKN4core12basic_stringIcNS0_20StringStorageDefaultIcEEEE
HVa:__ZN6Camera8TransferI24GenerateTypeTreeTransferEEvRT_
Wa:invoke_iiiiiiif
Oa:invoke_iiiiiiii
QBl:_Array_InternalArray__set_Item_TisByte_t1134296376_m3104140039_gshared
Esf:_NetworkMigrationManager_RemovePendingPlayer_m3502706858
acg:__Z194RuntimeInvoker_Int32_t2950945753_RuntimeObject_Int32_t2950945753_Int32_t2950945753_RuntimeObject_Int32_t2950945753_SByte_t1669577662_Int32U26_t1369213839_BooleanU26_t4125257963_SByte_t1669577662PFvvEPK10MethodInfoPvPS4_
pDm:_PKCS12_GetBytes_m415958948
l4h:_Context_get_HandshakeState_m2425796590
c1b:__ZN8Renderer17PendingAddToSceneEv
Bqd:__ZN5physx7NpActor18releaseConstraintsERNS_12PxRigidActorE
M7c:__ZN5physx6shdfnd5ArrayINS_11PxDebugLineENS0_19ReflectionAllocatorIS2_EEE8recreateEj
oBo:b125
dBo:b124
sBo:b127
rBo:b126
vBo:b129
Drc:__Z52Register_UnityEngine_RectTransform_INTERNAL_get_rectv
wGd:__ZNK5physx22NpParticleBaseTemplateINS_16PxParticleSystemENS_16NpParticleSystemEE20getMaxMotionDistanceEv
w1:__Z21PostprocessStacktracePKcRN4core12basic_stringIcNS1_20StringStorageDefaultIcEEEE
d2n:__ZN15dense_hashtableINSt3__24pairIK10KeyWrapperIP14Il2CppIUnknownEjEES5_N6il2cpp5utils11PointerHashIS3_EEN14dense_hash_mapIS5_jSB_NS5_14EqualsComparerINS0_8equal_toIS4_EEEENS0_9allocatorIS7_EEE9SelectKeyESG_SI_E12expand_arrayEjN21dense_hash_map_traits17integral_constantIbLb0EEE
ruj:_ManagedStreamHelpers_ManagedStreamLength_m2930872960
Akb:__ZN18StreamedBinaryReadILb0EE21TransferSTLStyleArrayI13dynamic_arrayI16SplashScreenLogoLj4EEEEvRT_17TransferMetaFlags
oId:__ZNK5physx14NpRigidDynamic25getContactReportThresholdEv
X5i:_FileStreamAsyncResult_CBWrapper_m1670848754
Coc:__Z47Register_UnityEngine_Camera_get_allCamerasCountv
CUm:_SyncList_1_IndexOf_m682632108_gshared
HCd:__ZN5physx22NpParticleBaseTemplateINS_15PxParticleFluidENS_15NpParticleFluidEE16releaseParticlesEv
vVe:__ZN22BaseUnityConnectClient20StartEventDispatcherEv
Hic:__ZNSt3__26vectorIj13stl_allocatorIjL18MemLabelIdentifier1ELi16EEE6assignIPKtEENS_9enable_ifIXaasr21__is_forward_iteratorIT_EE5valuesr16is_constructibleIjNS_15iterator_traitsIS9_E9referenceEEE5valueEvE4typeES9_S9_
jD:__ZN7mecanim9animation16EvaluateAvatarIKEPKNS0_14AvatarConstantEPKNS0_11AvatarInputEPNS0_12AvatarOutputEPNS0_12AvatarMemoryEPNS0_15AvatarWorkspaceEb
fFa:__ZL25ProgramUniformMatrix4x3fvPK7ApiGLESjiihPKv
t5b:__Z29StdTemplateConversionFunctionIsiEbPvR14SafeBinaryRead
m9d:__Z22updateIslandsToProcessRKN5physx2Cm10BitMapBaseINS_6shdfnd9AllocatorEEEPKjRKNS_11NodeManagerERS4_
iCk:__ZL107NetworkBehaviour_t204670959_CustomAttributesCacheGenerator_NetworkBehaviour_RegisterRpcDelegate_m1780902272P21CustomAttributesCache
Gpg:__Z84RuntimeInvoker_Vector3_t3722313464_RuntimeObject_Int32_t2950945753_Int32_t2950945753PFvvEPK10MethodInfoPvPS4_
zRb:__ZN12InputManager13InputEndFrameEv
nMc:__ZN15b2RevoluteJointC2EPK18b2RevoluteJointDef
wLn:__ZNSt3__26__treeIP11Il2CppClassNS_4lessIS2_EENS_9allocatorIS2_EEE25__emplace_unique_key_argsIS2_JRKS2_EEENS_4pairINS_15__tree_iteratorIS2_PNS_11__tree_nodeIS2_PvEEiEEbEERKT_DpOT0_
ani:_Enumerator_VerifyState_m2802951281_gshared
awj:_Object_get_name_m4211327027
CHm:_PatternCompiler_EmitPosition_m2959691703
Jle:__ZN8Collider30GetRelativePositionAndRotationERK9TransformR10Matrix4x4f
QYd:__ZN5physx35PxcSweepEstimateAnyShapeHeightfieldERKNS_11PxsCCDShapeES2_PKNS_12PxsRigidBodyES5_RKNS_11PxTransformES8_f
sjm:_ReadOnlyCollection_1_System_Collections_IList_get_IsReadOnly_m1248651675_gshared
nFi:_Enumerator_System_Collections_IDictionaryEnumerator_get_Key_m2500634048_gshared
f8c:__ZN5physx3Cct13BoxControllerC2ERKNS_16PxControllerDescERNS_9PxPhysicsEPNS_7PxSceneE
zsn:_Billboard__ctor_m2350229019
p8k:_Enumerator_System_Collections_IEnumerator_get_Current_m249480546_AdjustorThunk
Ntn:_TextGenerator_t3211863866_marshal_pinvoke_back
eoo:___munmap
pih:_InternalEnumerator_1_Dispose_m3747969397_AdjustorThunk
bKh:_RSAManaged_get_PublicOnly_m595121416
Xg:_localtime_r
FSb:__ZN22RenderingCommandBuffer13GetAndCheckRTE24BuiltinRenderTextureTypeRKN9ShaderLab16FastPropertyNameEPKcPP13RenderTexture
Ifa:__ZN14GfxDoubleCacheIyP17VertexDeclaration14GfxGenericHashIyENSt3__28equal_toIyEEN31GfxDoubleCacheConcurrencyPolicy11LocklessGetE42GfxDoubleCacheDefaultEmptyDeletedGeneratorIyEEC2Ev
fch:_InternalEnumerator_1_System_Collections_IEnumerator_Reset_m3619766341_AdjustorThunk
SZ:__Z19free_alloc_internalPv10MemLabelId
X3j:__ZL56ReturnMessage_t1376985608_CustomAttributesCacheGeneratorP21CustomAttributesCache
SRk:_UTF32Decoder_GetChars_m1925558948
_g:_strftime
YHa:__ZN7Texture33SetStoredColorSpaceNoDirtyNoApplyE17TextureColorSpace
_Jg:_ResourceSet__ctor_m3618395942
yMj:_Decimal_System_IConvertible_ToDouble_m3125524987_AdjustorThunk
w4:__ZN12FileAccessorD2Ev
faa:__ZN10ColorRGBAf8TransferI18StreamedBinaryReadILb0EEEEvRT_
UZa:__ZN14VertexDataInfoC2Ev
V9n:__ZN6il2cpp2gc16GarbageCollector14CollectALittleEv
Vik:__ZL87Sprite_t280657092_CustomAttributesCacheGenerator_Sprite_INTERNAL_get_border_m3728071101P21CustomAttributesCache
Tfc:__ZNK9HPlayable15GetPlayableTypeEv
vzg:__Z117RuntimeInvoker_Void_t1185182177_CustomAttributeTypedArgumentU5BU5DU26_t2503877664_Int32_t2950945753_Int32_t2950945753PFvvEPK10MethodInfoPvPS4_
iFb:__ZL17Transfer_GUIStyleI18StreamedBinaryReadILb1EELb1EEvRK29SerializationCommandArgumentsR31RuntimeSerializationCommandInfo
_Sh:_RectMask2D_IsRaycastLocationValid_m1652308696
Wcl:_ValueCollection_GetEnumerator_m3080751550_gshared
WYd:__ZNK5physx18PxcConvexTriangles16getPolygonNormalEj
tBj:_RectTransform_add_reapplyDrivenProperties_m1374850920
Tca:__ZN9shadertag10InitializeEv
Ztg:__Z69RuntimeInvoker_Void_t1185182177_Int32_t2950945753_Color32_t2600501292PFvvEPK10MethodInfoPvPS4_
tdo:__ZThn8_N6il2cpp2vm13CachedCCWBaseINS0_13ManagedObjectEE7DestroyEv
lUb:__ZN13BatchRenderer20RenderSingleWithPassER17ShaderPassContextPK18SharedMaterialDataP6ShaderPN9ShaderLab4PassEiPKNS7_10GrabPassesEjib15BatchBreakCause
Cse:__ZN5physx24NpPtrTableStorageManager8canReuseEjj
OEn:__ZN15dense_hashtableINSt3__24pairIK10KeyWrapperIPK19Il2CppGenericMethodEPK26Il2CppGenericMethodIndicesEES6_N6il2cpp8metadata23Il2CppGenericMethodHashEN14dense_hash_mapIS6_SA_SE_NS6_14EqualsComparerINSD_26Il2CppGenericMethodCompareEEENS0_9allocatorISB_EEE9SelectKeyESI_SK_ED2Ev
wab:__ZN15QualitySettings14QualitySetting8TransferI24GenerateTypeTreeTransferEEvRT_
sjo:__ZN6il2cpp5utils6Memory11AlignedFreeEPv
ufn:_UnityWebRequest_get_isHttpError_m797082501
eNd:__ZN5physx2Sc27ConstraintProjectionManager33processConstraintForGroupBuildingEPNS0_13ConstraintSimERNS0_20ScratchAllocatorListIS3_Lj64EEE
T2h:_Context_get_ClientWriteKey_m3174706656
sBl:_Array_InternalArray__Insert_TisPendingPlayer_t306375494_m4026642822_gshared
iGk:__ZL77ExecuteEvents_t3484638744_CustomAttributesCacheGenerator_U3CU3Ef__mgU24cache7P21CustomAttributesCache
eam:_Collection_1_System_Collections_IList_Add_m1647927606_gshared
sMh:_InputField_get_textComponent_m948764648
vuc:__Z44Register_UnityEngine_Object_DestroyImmediatev
$al:_Enumerator_System_Collections_IEnumerator_Reset_m3454730711_AdjustorThunk
oKc:__ZL34CleanupModule_PerformanceReportingv
cTf:_Convert_ToSingle_m835189399
khc:__ZN22BlockMemoryCacheWriter14LockCacheBlockEjPPhS1_
Ayc:__ZNSt3__218__insertion_sort_3IRPFbPKN5IMGUI9GUIWindowES4_EPPS2_EEvT0_SA_T_
B5e:_CryptographicUnexpectedOperationException__ctor_m69881930
uFd:__ZN5physx22NpParticleBaseTemplateINS_15PxParticleFluidENS_15NpParticleFluidEED2Ev
c2l:_Collection_1_SetItem_m1218178236_gshared
CJi:_Enumerator_MoveNext_m1574460676_gshared
bAk:__ZL67HostTopology_t4059263395_CustomAttributesCacheGenerator_m_DefConfigP21CustomAttributesCache
iLd:__ZN5physx2Cm29ConstraintImmediateVisualizer19visualizeDoubleConeERKNS_11PxTransformEfb
OHc:__Z22TransferField_NonArrayI8JSONRead27Converter_SimpleNativeClassI8GUIStyleEEvRK23StaticTransferFieldInfoR31RuntimeSerializationCommandInfoRT0_
yXc:__ZN5physx6shdfnd5ArrayINS_13PxExtendedBoxENS0_19ReflectionAllocatorIS2_EEE8recreateEj
z2d:__ZN5physx20ProcessBPResultsTask11runInternalEv
Oed:__ZN5physx6shdfnd5ArrayIPvNS0_19ReflectionAllocatorINS_2Cm5BlockIS2_Lj16EEEEEE4copyINS0_15InlineAllocatorILj256ES7_EEEEvRKNS1_IS2_T_EE
cmk:__ZL89ArgumentCache_t2187958399_CustomAttributesCacheGenerator_m_ObjectArgumentAssemblyTypeNameP21CustomAttributesCache
Gh:_llvm_eh_typeid_for
O8b:__Z13RegisterClassI10GameObjectEvv
kNf:_CollectionBase_OnClear_m883003723
DCi:_Enumerator__ctor_m2609246966_gshared
sRg:_RemotingServices_FindInterfaceMethod_m2125212568
lB:__ZNK23AnimationPlayableOutput7GetTypeEv
MNd:__ZN5physx7NpScene19getActiveTransformsERjh
V7i:_StreamWriter__cctor_m1229272693
Ead:__ZN5physx2Sc10NPhaseCore39pool_deleteParticleElementRbElementPairEPNS0_35ParticleElementRbElementInteractionEjj
$rg:__Z109RuntimeInvoker_RuntimeObject_Ray_t3785851493_Single_t1397266774_Int32_t2950945753_RuntimeObject_RuntimeObjectPFvvEPK10MethodInfoPvPS4_
nji:_KeyValuePair_2__ctor_m57868108_gshared
jW:__Z7ToUpperIN4core12basic_stringIcNS0_20StringStorageDefaultIcEEEEET_RKS5_
k7g:_InternalEnumerator_1_MoveNext_m1543390728_gshared
wHb:__Z18Transfer_BlittableI18StreamedBinaryReadILb0EELb1E8Vector4fEvRK29SerializationCommandArgumentsR31RuntimeSerializationCommandInfo
GUj:_SortKey_get_OriginalString_m1428586816
y7k:_Transform_1_Invoke_m750912323_gshared
Ppg:__Z51RuntimeInvoker_Void_t1185182177_Vector4_t3319028937PFvvEPK10MethodInfoPvPS4_
xol:_Dictionary_2_U3CCopyToU3Em__0_m2023886030_gshared
Eug:__Z64RuntimeInvoker_Boolean_t97287965_RefEmitPermissionSet_t484390987PFvvEPK10MethodInfoPvPS4_
SBo:_glBindVertexArray__wrapper
pke:__ZN5physx6shdfnd5ArrayINS_11RTreeNodeNQENS0_19ReflectionAllocatorIS2_EEE19resizeUninitializedEj
zbd:__ZNK5physx2Sc16InteractionScene18getLLIslandManagerEv
M1e:_SerializationInfo__ctor_m2923079689
$Xg:_HttpWebRequest_get_ServicePoint_m1080482337
x4a:__ZN8Material8TransferI14SafeBinaryReadEEvRT_
tYd:__ZN5physx17PxcNpMemBlockPool34acquireExceptionalConstraintMemoryEj
J6a:__ZN12CubemapArray17UploadToGfxDeviceEv
aym:_Func_2__ctor_m1150804732_gshared
_$i:_Int32_JumpOverWhite_m208298144
PUm:_SyncList_1_set_Callback_m4131937959_gshared
Xzm:_X509CertificateCollection_get_Item_m3285563224
Ofi:_HashSet_1_GetLinkHashCode_m1964626652_gshared
TMi:_KeyCollection_System_Collections_Generic_ICollectionU3CTKeyU3E_get_IsReadOnly_m934788774_gshared
FZd:__ZN5physxL23PxcSweepConvexTrianglesERKNS_11PxsCCDShapeES2_RKNS_11PxTransformES5_S5_S5_fRNS_6PxVec3ES7_RNS_10PxcNpCacheERNS_18PxcNpThreadContextERKNS_2Cm23FastVertex2ShapeScalingERNS_2Gu9TriangleVEf
ewd:__ZNK5physx7NpShape16getPlaneGeometryERNS_15PxPlaneGeometryE
exg:__Z53RuntimeInvoker_Int32_t2950945753_UIVertex_t4057497605PFvvEPK10MethodInfoPvPS4_
IAo:_emscripten_glGetUniformiv__wrapper
ido:__ZN6il2cpp2vm13ManagedObject14QueryInterfaceERK10Il2CppGuidPPv
zke:__ZN5physx27InternalTriangleMeshBuilder14fillRemapTableEv
VJ:__ZN11AudioSource4StopEb
zxk:__ZL103ListMatchRequest_t1588429355_CustomAttributesCacheGenerator_ListMatchRequest_get_nameFilter_m1921865349P21CustomAttributesCache
$id:__ZN5physx6shdfnd8PoolBaseINS_13NpRigidStaticENS0_19ReflectionAllocatorIS2_EEE17releaseEmptySlabsEv
cxb:__ZN14SafeBinaryRead21TransferSTLStyleArrayI13dynamic_arrayI10Matrix4x4fLj4EEEEvRT_17TransferMetaFlags
kSl:_List_1_System_Collections_IList_Remove_m2779010448_gshared
tWa:__ZN15LODGroupManager26CollectAllLODGroupManagersERK16CoreCameraValuesR13dynamic_arrayIPS_Lj4EEb
l2m:_ResponseBase_ParseJSONString_m1155503459
DFg:__Z37RuntimeInvoker_Enumerator_t3221072498PFvvEPK10MethodInfoPvPS4_
Uho:__ZN6il2cpp2os14WindowsRuntime13DeleteHStringEP15Il2CppHString__
pZk:_UInt32_System_IConvertible_ToUInt32_m1744564280_AdjustorThunk
yKa:__ZN18GlslGpuProgramGLESD2Ev
s3b:__ZN13RenderTexture14SetVolumeDepthEi
wre:__ZThn116_NK5physx7profile8ZoneImplINS_28PxProfileNameProviderForwardEE10hasClientsEv
O5d:__ZN5physx2Gu20pcmContactCapsuleBoxERKNS0_13GeometryUnionES3_RKNS_11PxTransformES6_RKfRNS0_5CacheERNS0_13ContactBufferE
Pfg:__Z86RuntimeInvoker_Void_t1185182177_UInt16_t2177724958_SByte_t1669577662_SByte_t1669577662PFvvEPK10MethodInfoPvPS4_
Upa:__Z22LoadGpuProgramFromDataPKhS0_Rj
sIc:__ZN10Matrix4x4f8TransferI8JSONReadEEvRT_
lJe:__ZN14SafeBinaryRead21TransferSTLStyleArrayI13dynamic_arrayIN4core17string_with_labelILi35EEELj4EEEEvRT_17TransferMetaFlags
s0i:_Int32_System_IConvertible_ToByte_m3832391412_AdjustorThunk
KSh:_PositionAsUV1_ModifyMesh_m4231919476
QNf:_Hashtable__ctor_m1941859523
g$m:_WindowFunction__ctor_m2544237635
soh:_Comparer_1_get_Default_m1947376189_gshared
yVh:_ScrollRect_set_horizontalScrollbarSpacing_m2209919081
P$:__ZN17PersistentManager18ReadObjectThreadedEi
nHa:__ZN25TransformFeedbackSkinning31CleanupTransformFeedbackShadersEv
hWa:__Z22scripting_object_unbox18ScriptingObjectPtr
mQg:_AsyncResult_get_NextSink_m1844209137
rKe:__ZNK20TextRenderingPrivate8FontImpl19GetCharacterAdvanceEjijfPj
Rxl:_Array_InternalArray__ICollection_Add_TisUriScheme_t722425697_m3142345403_gshared
Cmo:_fmt_u
X2k:_Dictionary_2_Do_CopyTo_TisDictionaryEntry_t3123975638_TisDictionaryEntry_t3123975638_m1126292988_gshared
jcb:__ZN10VertexData8TransferI18StreamedBinaryReadILb0EEEEvRT_
Pid:__ZN5physx2Sc5Scene9addStaticERNS0_10StaticCoreEPKPvjj
Blo:__ZN6il2cpp8metadata25Il2CppGenericClassCompare7CompareEPK18Il2CppGenericClassS4_
nsl:_Dictionary_2__ctor_m2512722766_gshared
Kbj:_MonoType_get_Assembly_m4290914179
oXj:__ZL70RuntimeArray_CustomAttributesCacheGenerator_Array_GetValue_m1062368071P21CustomAttributesCache
g8l:__ZN21InterfaceFuncInvoker1I25ChannelPacket_t1579824718iE6InvokeEjP11Il2CppClassP12Il2CppObjecti
Oqa:__ZN9ShaderLab7ProgramC2E10MemLabelIdi10ShaderType
E3b:__ZN14PreloadManager16UpdatePreloadingEv
i5:__ZN12BaseRendererD2Ev
z$a:__ZN14SafeBinaryRead21TransferSTLStyleArrayI19StaticArrayTransferIiLi4EEEEvRT_17TransferMetaFlags
aEk:__ZL79NetworkTransformChild_t2600331682_CustomAttributesCacheGenerator_m_SendIntervalP21CustomAttributesCache
sUd:__ZN5physx2Sc5Scene9addShapesEPKPvjjRNS0_8RigidSimEPNS_12PxsRigidBodyERPNS0_8ShapeSimEPNS_9PxBounds3E
oDl:_Array_InternalArray__set_Item_TisUILineInfo_t4195266810_m2313892078_gshared
xfh:_InternalEnumerator_1_System_Collections_IEnumerator_Reset_m3355902602_AdjustorThunk
Jxj:_PlayableAsset__ctor_m2395156306
IHk:__ZL79StandaloneInputModule_t2760469101_CustomAttributesCacheGenerator_m_SubmitButtonP21CustomAttributesCache
QLh:_InputField_SendOnValueChanged_m2560301445
E4d:__ZN5physx23PxcPCMContactConvexMeshERKNS_2Gu13GeometryUnionES3_RKNS_11PxTransformES6_RKfRNS_10PxcNpCacheERNS0_13ContactBufferE
vog:__Z81RuntimeInvoker_Void_t1185182177_Int16_t2552820387_RuntimeObject_Int32_t2950945753PFvvEPK10MethodInfoPvPS4_
RY:__ZNK21UnityDefaultAllocatorI17LowLevelAllocatorE8ContainsEPKv
_Jn:__ZNSt3__213__vector_baseI6pollfdNS_9allocatorIS1_EEED2Ev
Y3e:_RuntimeTypeHandle_Equals_m2857439487
Ti:_emscripten_get_main_loop_timing
P8g:_InternalEnumerator_1_System_Collections_IEnumerator_Reset_m2270178034_AdjustorThunk
Jen:_UploadHandler__ctor_m1351468229
BLg:_SafeHandle_Finalize_m3866180675
vab:__ZN24GenerateTypeTreeTransfer21TransferSTLStyleArrayINSt3__26vectorIN15QualitySettings14QualitySettingENS1_9allocatorIS4_EEEEEEvRT_17TransferMetaFlags
Ehb:__ZNSt3__26vectorI14SubstanceInputNS_9allocatorIS1_EEE8__appendEj
y6i:_MemoryStream_ToArray_m3911744835
jwg:__Z59RuntimeInvoker_Int32_t2950945753_KeyValuePair_2_t2530217319PFvvEPK10MethodInfoPvPS4_
Yrg:__Z72RuntimeInvoker_Boolean_t97287965_RaycastHitU26_t2429360258_RuntimeObjectPFvvEPK10MethodInfoPvPS4_
JUm:_SyncList_1_GetEnumerator_m3827928661_gshared
Lji:_KeyValuePair_2_set_Key_m4156968905_AdjustorThunk
aj:_JS_UNETWebSockets_Init
plo:__ZN6il2cpp2os5Event4WaitEjb
eXk:_Type_GetHashCode_m1947148725
Dyl:_Array_InternalArray__ICollection_CopyTo_TisLink_t3080106562_m1272044969_gshared
xTm:_SyncList_1_get_Count_m1619578576_gshared
Dbg:__Z91RuntimeInvoker_Void_t1185182177_RuntimeObject_RuntimeObject_RuntimeObject_SByte_t1669577662PFvvEPK10MethodInfoPvPS4_
W8l:_Collection_1_Clear_m877535858_gshared
Lpb:__ZNK2UI13RectTransform22GetTypeVirtualInternalEv
aVi:__ZN28GenericInterfaceFuncInvoker2IP12Il2CppObjectS1_bE6InvokeEPK10MethodInfoS1_S1_b
br:getTempRet0
Hkg:__Z64RuntimeInvoker_UnityWebRequestError_t359680823_Int32_t2950945753PFvvEPK10MethodInfoPvPS4_
Fhj:_StrongName_get_Version_m4243032012
jon:__ZL25UnresolvedVirtualCall_330P12Il2CppObjectPK10MethodInfo
uch:_InternalEnumerator_1_MoveNext_m2234422530_gshared
O4d:__ZN5physx2Gu33MultiplePersistentContactManifold24addManifoldContactPointsEPNS0_21MeshPersistentContactEjPPNS0_15PCMContactPatchEjRKNS_6shdfnd3aos6FloatVESB_h
qZg:_SocketException__ctor_m480722159
Yan:_U3CGetGetMethodByReflectionU3Ec__AnonStorey2__ctor_m4260698338
QNn:__ZN6il2cpp2gc19AppendOnlyGCHashMapINSt3__24pairIPK14Il2CppAssemblyP11Il2CppClassEEP24Il2CppReflectionAssembly17ReflectionMapHashIS9_ENS2_8equal_toIS9_EEE10CopyValuesEPv
$9e:_BaseRaycaster_OnEnable_m2678466030
XCi:_Enumerator_get_CurrentKey_m627428048_AdjustorThunk
lsj:_UnityEventBase__ctor_m1851535676
L1k:_Array_Sort_TisVector4_t3319028937_m2797285308_gshared
p9i:_UnexceptionalStreamWriter_Write_m1834931241
Pem:_Collection_1_RemoveAt_m1496527686_gshared
Svm:_Comparison_1__ctor_m3503947093_gshared
Yfm:_Collection_1_System_Collections_IList_get_Item_m3314684800_gshared
Mzk:__ZL83ConnectionConfig_t4173981269_CustomAttributesCacheGenerator_m_OverflowDropThresholdP21CustomAttributesCache
o$n:__ZN6il2cpp6icalls8mscorlib6System9ThreadingL21lookup_cached_cultureEP12Il2CppThreadi
tho:__ZN6il2cpp2os11EventHandleD2Ev
Irj:_NetFxCoreExtensions_CreateDelegate_m751211712
D_b:__ZN18DeferredRenderLoopD2Ev
Xcl:_ValueCollection_get_Count_m1579255131_gshared
I5:__ZNK16TypeTreeIterator4NameEv
_am:_Collection_1_System_Collections_IList_get_IsReadOnly_m2012928856_gshared
w2k:_Array_swap_TisUICharInfo_t75501106_m3934244159_gshared
W3:__ZN15FileSystemEntry3SetEPKc
fSi:_ShimEnumerator_get_Current_m779445424_gshared
Ibe:__ZN5physx6shdfnd5ArrayIPNS_13PxcNpMemBlockENS0_19ReflectionAllocatorIS3_EEE6resizeEjRKS3_
nrf:_NetworkReader_ReadUInt16_m2326281171
O8l:_Collection_1_System_Collections_ICollection_get_IsSynchronized_m3151232233_gshared
sId:__ZN5physx14NpRigidDynamic8requiresERNS_23PxProcessPxBaseCallbackE
yim:_ReadOnlyCollection_1_System_Collections_Generic_IListU3CTU3E_Insert_m568455025_gshared
LL:__ZN20SoundChannelInstance15ParameterBuffer5ApplyEPN4FMOD7ChannelE
dEg:__Z80RuntimeInvoker_KeyValuePair_2_t442960997_NetworkSceneId_t717048590_RuntimeObjectPFvvEPK10MethodInfoPvPS4_
cXg:_IPv6Address__ctor_m4117281080
CFl:_List_1__ctor_m1328752868_gshared
Zgk:__ZL88GameObject_t1113636619_CustomAttributesCacheGenerator_GameObject_SendMessage_m3720186693P21CustomAttributesCache
oKe:__ZN20TextRenderingPrivate19NativeTextGenerator9InsertTabEv
Wqo:_sbrk
cng:__Z66RuntimeInvoker_Boolean_t97287965_Vector2_t2156229523_RuntimeObjectPFvvEPK10MethodInfoPvPS4_
L5l:_Collection_1_System_Collections_Generic_ICollectionU3CTU3E_get_IsReadOnly_m1032650589_gshared
fpi:_Enumerator_VerifyState_m3474272061_AdjustorThunk
cre:__ZN5physx7profile8ZoneImplINS_28PxProfileNameProviderForwardEE21setProfileZoneManagerEPNS_20PxProfileZoneManagerE
IWj:__ZL70IntPtr_t_CustomAttributesCacheGenerator_IntPtr_op_Explicit_m2520637223P21CustomAttributesCache
Ej:_glIsEnabled
jpb:__ZN15CacheWriterBaseD2Ev
H5c:__ZN5physx3Cct17CapsuleController15setFootPositionERKNS_14PxExtendedVec3E
d3c:__ZN5physx2Gu33PCMCapsuleVsMeshContactGeneration13generateEEMTDERKNS_6shdfnd3aos5Vec3VES6_RKNS3_6FloatVES6_jS6_S6_PNS0_21MeshPersistentContactERj
xuh:_DerivedType__ctor_m1853298054
Tvb:__Z25scripting_class_get_image17ScriptingClassPtr
vsd:__ZN18MultiQueryCallbackIN5physx10PxSweepHitEED0Ev
UMi:_KeyCollection_System_Collections_ICollection_get_IsSynchronized_m1208716752_gshared
nGl:_List_1_RemoveAt_m2730968292_gshared
hmb:__ZNSt3__26vectorIN4core12basic_stringIcNS1_20StringStorageDefaultIcEEEE13stl_allocatorIS5_L18MemLabelIdentifier13ELi16EEEC2INS_11__wrap_iterIPS5_EEEET_SE_RKS8_PNS_9enable_ifIXaasr21__is_forward_iteratorISE_EE5valuesr16is_constructibleIS5_NS_15iterator_traitsISE_E9referenceEEE5valueEvE4typeE
Ij:_emscripten_glDrawElementsInstanced
_z:__ZN26AnimatorControllerPlayable27SetupStateMachineBehavioursEv
avi:_Array_InternalArray__IEnumerable_GetEnumerator_TisSlot_t3975888750_m1869932007_gshared
Kvi:_Array_InternalArray__IEnumerable_GetEnumerator_TisChannelPacket_t1579824718_m2893203998_gshared
Ywm:__ZN28GenericInterfaceFuncInvoker2Ii25PeerInfoPlayer_t607460057S0_E6InvokeEPK10MethodInfoP12Il2CppObjectS0_S0_
Pgl:_Dictionary_2_make_pair_m749139242_gshared
YPh:_LayoutGroup_get_preferredWidth_m3816902260
$am:_Collection_1_System_Collections_IList_get_Item_m398366932_gshared
$Xa:__ZN18JobBatchDispatcherD2Ev
Gpb:__ZN9Transform17MainThreadCleanupEv
$fo:_GC_clear_hdr_marks
OCo:_emscripten_glCreateShader__wrapper
MBm:_TlsStream_Flush_m3793197834
yye:_cff_fd_select_get
GYh:_Text_set_resizeTextForBestFit_m4095249125
hen:_NetworkReader_ReadMessage_TisRuntimeObject_m2215483864_gshared
Kzl:_Array_InternalArray__ICollection_CopyTo_TisNetworkInstanceId_t786350175_m2654017837_gshared
M_g:_OidEnumerator_MoveNext_m3138911739
Rug:__Z53RuntimeInvoker_Boolean_t97287965_Keyframe_t4206410242PFvvEPK10MethodInfoPvPS4_
Tj:_emscripten_glGetShaderiv
nPm:_InvokableCall_1_add_Delegate_m1011133128_gshared
LM:__ZN4FMOD6System10getVersionEPj
Dce:__ZN5physx2Sc7BodySim10sleepCheckEffb
f2f:_NetworkLobbyManager_get_gamePlayerPrefab_m2196759525
CNe:__ZN2UI6Canvas23VirtualRedirectTransferER24GenerateTypeTreeTransfer
Uto:dynCall_viiiififfi
PWh:_Selectable_set_animationTriggers_m2970345687
c1f:_NetworkIdentity__ctor_m2362372770
Iem:_Collection_1_CopyTo_m4271769704_gshared
WFc:__ZN9JSONWrite8TransferIN4math12int2_storageEEEvRT_PKc17TransferMetaFlags
ZIe:__ZN13TextRendering4Font13AwakeFromLoadE17AwakeFromLoadMode
TSj:_CompareInfo_LastIndexOf_m2688553706
erg:__Z55RuntimeInvoker_Boolean_t97287965_Navigation_t3049316579PFvvEPK10MethodInfoPvPS4_
mCo:_emscripten_glCullFace__wrapper
dta:__ZN9GfxDevice21ReleaseSharedMeshDataEP14SharedMeshData
FNl:__ZN23InterfaceActionInvoker2IP31ChannelPacketU5BU5D_t3567636667iE6InvokeEjP11Il2CppClassP12Il2CppObjectS1_i
OOi:_KeyCollection_get_Count_m4013018115_gshared
mpn:__ZL25UnresolvedVirtualCall_387P12Il2CppObjectiPK10MethodInfo
dZm:_GUISettings_Internal_GetCursorFlashSpeed_m2762316906
Qcf:_MouseState__ctor_m1467839005
_Lm:_Uri_IsDomainAddress_m2867513594
qjb:__ZNSt3__27__sort5IRNS_6__lessINS_4pairIPKN5Unity4TypeE7Hash128EES8_EEPS8_EEjT0_SC_SC_SC_SC_T_
v9j:__ZL79Convert_t2465617642_CustomAttributesCacheGenerator_Convert_ToDouble_m2949593046P21CustomAttributesCache
tUf:_ChannelPacket_SendToTransport_m2626401131
Hjf:_Dropdown_CreateItem_m2954407740
gfo:_GC_unreachable_finalize_mark_proc
h0g:_X509Chain_ProcessCrlExtensions_m236234529
Vg:___syscall192
emn:__ZL25UnresolvedVirtualCall_217P12Il2CppObject20UIVertex_t4057497605S1_PK10MethodInfo
qKl:_List_1__ctor_m369633558_gshared
EDn:__ZN6il2cpp2vm5Class40GetInterfaceInvokeDataFromVTableSlowPathEPK12Il2CppObjectPK11Il2CppClassj
Dyi:_Array_InternalArray__IndexOf_TisLabelData_t360167391_m1826525656_gshared
vrc:__Z43RectTransform_CUSTOM_INTERNAL_get_anchorMaxP12Il2CppObjectP13Vector2fIcall
jrd:__ZN5physx14NpShapeManagerC2Ev
xxk:__ZL100ListMatchRequest_t1588429355_CustomAttributesCacheGenerator_ListMatchRequest_get_pageNum_m3084306515P21CustomAttributesCache
IOg:_RealProxy_get_ObjectIdentity_m2790771985
M9f:__Z49RuntimeInvoker_Void_t1185182177_Int16_t2552820387PFvvEPK10MethodInfoPvPS4_
XLj:_Decimal_Parse_m942471224
S8a:__ZN8Material28UpdateHashesOnPropertyChangeEN9ShaderLab16FastPropertyNameE
e3l:_Collection_1_System_Collections_IList_get_Item_m1368877441_gshared
M8m:_SyncListBool_WriteInstance_m2961228772
nZh:_Locale_GetText_m3520169047
tsc:__Z53Register_UnityEngine_SortingLayer_GetLayerValueFromIDv
ovl:_DefaultComparer_GetHashCode_m111737345_gshared
c$h:_ASN1_GetBytes_m1968380955
qhk:__ZL85RectOffset_t1369453676_CustomAttributesCacheGenerator_RectOffset_set_right_m807318764P21CustomAttributesCache
uCj:_SceneManager_LoadSceneAsync_m3146814238
Lub:__Z18Transfer_BlittableI14SafeBinaryReadLb1E8Vector4fEvRK29SerializationCommandArgumentsR31RuntimeSerializationCommandInfo
uMn:_SessionStateChanged_EndInvoke_m3128001178
WO:__ZN11AudioSource12AddToManagerEv
Mu:__ZN8Animator23VirtualRedirectTransferER19StreamedBinaryWriteILb0EE
HB:__ZN11UnityEngine9Animation32CreateAnimatorGenericBindingsOptERKNS0_20AnimationSetBindingsER9TransformPKN7mecanim9animation14AvatarConstantEPKNS0_21AvatarBindingConstantEbRNS6_6memory9AllocatorER8Animator
s3n:__ZN6il2cpp2vm5Image13ClassFromNameEPK11Il2CppImagePKcS6_
Rro:dynCall_vdddddd
Dna:__ZN24GenerateTypeTreeTransfer21TransferSTLStyleArrayINSt3__26vectorIN9ShaderLab14SerializedPassENS1_9allocatorIS4_EEEEEEvRT_17TransferMetaFlags
ffd:__ZN5physx6shdfnd8internal8HashBaseIPNS_2Sc13ConstraintSimES5_NS0_4HashIS5_EENS1_11HashSetBaseIS5_S7_NS0_9AllocatorELb1EE6GetKeyES9_Lb1EE6createERKS5_Rb
rda:__ZL32MarkLevelGameManagerDependenciesR27GarbageCollectorThreadState
Vkn:__ZL25UnresolvedVirtualCall_152P12Il2CppObjectPK10MethodInfo
Bva:__ZNK13GfxDeviceGLES26HasActiveRandomWriteTargetEv
EZn:__GLOBAL__sub_I_Thread_cpp
Wmd:__ZNK5physx15NpActorTemplateINS_18PxArticulationLinkEE7getNameEv
GYj:__ZL54_MemberInfo_t3922476713_CustomAttributesCacheGeneratorP21CustomAttributesCache
mxo:_glGetActiveUniformsiv__wrapper
qsc:__Z43Register_UnityEngine_Material_EnableKeywordv
aXc:__ZNK5physx3Cct10Controller16getInternalStateERNS_17PxControllerStateE
ewj:_Mesh_GetIndices_m2873123901
h1:__ZN13MonoBehaviour19SetupScriptingCacheE17ScriptingClassPtrP10MonoScript
rKn:__ZNSt3__214__split_bufferIP12Il2CppThreadRNS_9allocatorIS2_EEED2Ev
gQi:_ShimEnumerator_get_Key_m2953441853_gshared
au:__Z20AnimationEventToMonoRK14AnimationEventR18MonoAnimationEvent
xXf:_LocalClient_InvokeBytesOnClient_m4098541965
jjg:__Z106RuntimeInvoker_Void_t1185182177_Single_t1397266774_Single_t1397266774_Single_t1397266774_Int32_t2950945753PFvvEPK10MethodInfoPvPS4_
Vhf:_FloatTween_set_targetValue_m3604919944_AdjustorThunk
w0:__ZN17PersistentManager29ReadAndActivateObjectThreadedEiRK26SerializedObjectIdentifierP14SerializedFilebb
hKf:_ArrayList_get_IsReadOnly_m913775115
kAk:__ZL83GlobalConfig_t833512557_CustomAttributesCacheGenerator_m_ReactorMaximumSentMessagesP21CustomAttributesCache
Ecf:_PointerEventData_get_dragging_m746831934
RWk:_Type_get_TypeHandle_m160082026
sTd:__ZN5physx10PxsContext15setScratchBlockEPvj
Ltm:_ReadOnlyCollection_1_System_Collections_IEnumerable_GetEnumerator_m2781605075_gshared
eqc:__Z52Register_UnityEngine_RectOffset_INTERNAL_CALL_Removev
Wga:__ZZN15DirectorManager15InitializeClassEvEN52PreLateUpdateDirectorUpdateAnimationBeginRegistrator7ForwardEv
L3m:_MatchDesc_get_matchAttributes_m481045601
jqi:_Array_get_swapper_TisCustomAttributeNamedArgument_t287865710_m4254011335_gshared
Klf:_Graphic_RegisterDirtyMaterialCallback_m106898453
w$m:_GUILayoutEntry_get_margin_m3174861737
mNa:__ZN4PPtrI6SpriteE8TransferI14SafeBinaryReadEEvRT_
_8h:_EqualityComparer_1_System_Collections_IEqualityComparer_Equals_m1672604045_gshared
CYn:__ZN15dense_hashtableINSt3__24pairIK10KeyWrapperIP11Il2CppClassES4_EES5_N6il2cpp8metadata16SZArrayClassHashEN14dense_hash_mapIS5_S4_SA_NS5_14EqualsComparerINS9_19SZArrayClassCompareEEENS0_9allocatorIS7_EEE9SelectKeyESE_SG_E16reset_thresholdsEv
xWl:_List_1_GetEnumerator_m2095602005_gshared
aad:__ZN5physx2Cm27getDynamicGlobalPoseAlignedERKNS_11PxTransformES3_S3_RS1_
f_i:__ZN23GenericVirtFuncInvoker2I27DictionaryEntry_t312397563825NetworkSceneId_t717048590P12Il2CppObjectE6InvokeEPK10MethodInfoS3_S1_S3_
Vma:__ZNSt3__26vectorIN9ShaderLab14SerializedPassENS_9allocatorIS2_EEE8__appendEj
hie:__ZN5physx6shdfnd5ArrayIPvNS0_19ReflectionAllocatorIN17PxcPoolMallocData10PoolData32EEEE15growAndPushBackERKS2_
ema:__ZNSt3__26vectorIN9ShaderLab20SerializedSubProgram13BufferBindingENS_9allocatorIS3_EEEC2INS_11__wrap_iterIPS3_EEEET_SB_RKS5_PNS_9enable_ifIXaasr21__is_forward_iteratorISB_EE5valuesr16is_constructibleIS3_NS_15iterator_traitsISB_E9referenceEEE5valueEvE4typeE
iyg:__Z76RuntimeInvoker_Void_t1185182177_Int32_t2950945753_KeyValuePair_2_t3373118172PFvvEPK10MethodInfoPvPS4_
fyj:_PlayableOutputHandle_op_Equality_m388301694
JPk:_Encoding_get_ISOLatin1_m2107621369
uNc:__ZNK16PhysicsManager2D21GetAutoSyncTransformsEv
ydc:__ZZL23RegisterLightPropertiesR22GenericPropertyBindingEN20Wrapper_LightColorb213GetFloatValueEPv
lbb:__ZNK13ScreenManager21IsMultiDisplayEnabledEv
kik:__ZL89Mathf_t3464937446_CustomAttributesCacheGenerator_Mathf_SmoothDamp_m394423605____maxSpeed4P21CustomAttributesCache
ULc:__ZN12b2WheelJoint24SolveVelocityConstraintsERK12b2SolverData
EWj:__ZL72IntPtr_t_CustomAttributesCacheGenerator_IntPtr_op_Inequality_m3063970704P21CustomAttributesCache
hDm:_SafeBag_get_ASN1_m2293701606
z8a:__ZN9Texture2D23VirtualRedirectTransferER18StreamedBinaryReadILb0EE
Xra:__ZN13GfxDeviceGLES12SetWireframeEb
AMf:_BitArrayEnumerator__ctor_m2359341397
Eli:_Enumerator_MoveNext_m1177880931_gshared
C6a:__ZNK12CubemapArray12GetDataWidthEv
dmh:_DefaultComparer__ctor_m3288720761_gshared
NDk:__ZL77NetworkServer_t2920297688_CustomAttributesCacheGenerator_U3CU3Ef__mgU24cache0P21CustomAttributesCache
Uvg:__Z102RuntimeInvoker_Int32_t2950945753_RuntimeObject_Vector2_t2156229523_Int32_t2950945753_Int32_t2950945753PFvvEPK10MethodInfoPvPS4_
HEn:__ZN30dense_hashtable_const_iteratorINSt3__24pairIK10KeyWrapperIPKcEP11Il2CppClassEES5_N6il2cpp5utils11StringUtils12StringHasherIS4_EEN14dense_hash_mapIS5_S8_SE_NS5_14EqualsComparerINSB_13VmStringUtils21CaseSensitiveComparerEEENS0_9allocatorIS9_EEE9SelectKeyESJ_SL_E30advance_past_empty_and_deletedEv
Nnk:__ZL73g_UnityEngine_TextRenderingModule_Assembly_CustomAttributesCacheGeneratorP21CustomAttributesCache
tel:_ValueCollection_System_Collections_IEnumerable_GetEnumerator_m3313607007_gshared
E2:__ZN16ScriptingManager27NativeTypeForScriptingClassE17ScriptingClassPtr
TZk:_UInt64_System_IConvertible_ToDateTime_m3434604642
MWk:_Type_get_IsSerializable_m1040556850
mDe:_get_sfnt_table
e0k:_Array_Resize_TisUIVertex_t4057497605_m1219201596_gshared
H$j:__ZL55StreamWriter_t1266378904_CustomAttributesCacheGeneratorP21CustomAttributesCache
mzf:_NetworkTransform_SerializeRotation2D_m2242062180
kjl:_Dictionary_2_System_Collections_ICollection_get_IsSynchronized_m256515291_gshared
W8b:__Z13RegisterClassI5LightEvv
SBb:__Z29Transfer_Blittable_ArrayFieldI24GenerateTypeTreeTransferiEvRT_R9ArrayInfoRK23StaticTransferFieldInfo
t_:__ZN8Renderer20RendererAddedToSceneEv
Y$b:__ZL22ScheduleSceneNodesJobsP25ScheduleSceneNodesJobDataj
Z$d:__ZN5physx22concludeContactCoulombERKNS_23PxcSolverConstraintDescERNS_16PxcSolverContextE
Nl:_emscripten_set_canvas_size
Pkf:_Graphic_SetVerticesDirty_m2124914069
qDd:__ZNK5physx15NpParticleFluid12getStiffnessEv
WSj:_CultureInfo__ctor_m3285927757
SVc:__ZN11Rigidbody2D11SetPositionERK8Vector2f
J$k:_Array_Resize_TisRaycastResult_t3360306849_m1811054291_gshared
sKn:__ZNSt3__214__split_bufferIP17Il2CppAsyncResultRN6il2cpp2gc9AllocatorIS2_EEEC2EjjS7_
fjm:_ReadOnlyCollection_1_System_Collections_Generic_ICollectionU3CTU3E_get_IsReadOnly_m3152485890_gshared
zma:__ZNSt3__26vectorIN9ShaderLab20SerializedSubProgramENS_9allocatorIS2_EEE8__appendEj
zZ:__ZN20DynamicHeapAllocatorI17LowLevelAllocatorE8AllocateEji
ETe:__ZN11UnityEngine9Analytics15UserCustomEvent12ToJsonStringER9JSONWrite
Dbn:_Locale_GetText_m2427493201
BGi:_Enumerator_VerifyCurrent_m220886300_AdjustorThunk
SUb:__ZN20DynamicPropertySheet15SetVectorQueuedERKN9ShaderLab16FastPropertyNameERK8Vector4fN19ShaderPropertySheet8SetFlagsE
aHg:__Z82RuntimeInvoker_RuntimeObject_PeerInfoPlayer_t607460057_RuntimeObject_RuntimeObjectPFvvEPK10MethodInfoPvPS4_
uC:__ZN7mecanim9animation22EvaluateAvatarRetargetEPKNS0_14AvatarConstantEPKNS0_11AvatarInputEPNS0_12AvatarOutputEPNS0_12AvatarMemoryEPNS0_15AvatarWorkspaceEb
Hfh:_InternalEnumerator_1_System_Collections_IEnumerator_Reset_m996811230_AdjustorThunk
J0a:__ZN14RenderSettings23VirtualRedirectTransferER19StreamedBinaryWriteILb0EE
Juh:_ConstructorBuilder_get_TypeBuilder_m2755629087
tEc:__ZL26Transfer_SimpleNativeClassI9JSONWrite10RectOffsetLb0EEvRK29SerializationCommandArgumentsR31RuntimeSerializationCommandInfo
Afo:_GC_push_conditional
RTe:__ZN21UnityAnalyticsManager23VirtualRedirectTransferER24GenerateTypeTreeTransfer
Eza:__ZN17GenericDynamicVBO10AllocateVBEjR21DynamicVBOChunkHandle
F3h:_ClientContext_get_SslStream_m1583577309
c4d:__ZL27PxcTestFacesSepAxesBackfaceRKN5physx2Gu13PolygonalDataES3_RKNS_2Cm8Matrix34ES7_RKNS4_23FastVertex2ShapeScalingESA_S7_RKNS_6PxVec3ERfRSB_RjPjSG_fSD_
MLj:_DBNull_ToString_m3638608738
v4n:__ZN30dense_hashtable_const_iteratorI10KeyWrapperIP18Il2CppGenericClassES3_N6il2cpp8metadata22Il2CppGenericClassHashEN14dense_hash_setIS3_S6_NS3_14EqualsComparerINS5_25Il2CppGenericClassCompareEEENSt3__29allocatorIS3_EEE8IdentityESA_SD_EppEv
xMf:_BitArray_Clone_m3537018332
g1e:_ObjectRecord_UnchainFixup_m3191243952
Fwn:_Animator_GetInteger_m2539041872
wBm:_TlsStream_get_CanWrite_m16389328
Nhg:__Z65RuntimeInvoker_RuntimeObject_RuntimeObject_Vector3U26_t3464235976PFvvEPK10MethodInfoPvPS4_
qPl:_List_1_System_Collections_IList_Remove_m3066072886_gshared
lm:_glMapBufferRange
r8a:__ZN9Texture2D8TransferI18StreamedBinaryReadILb0EEEEvRT_
lqc:__Z31Input_CUSTOM_GetMouseButtonDowni
$fc:__ZN13PlayableGraph4PlayEv
tfc:__Z29AddCanvasIntermediateRendererPN2UI6CanvasEPNS_13CanvasBuffersEP17VertexDeclarationjRK10Matrix4x4ftRK4AABB4PPtrI8MaterialEi17ShadowCastingModebP6Camerab
eTb:__ZNK9Transform16GetLocalPositionEv
IOk:_EncoderExceptionFallbackBuffer_get_Remaining_m1573636148
Nbj:_MonoType_get_BaseType_m1098640416
sOa:__ZN13LoadOperation19IntegrateTimeSlicedEi
PBm:_TlsStream_Read_m3392972801
$Fg:__Z37RuntimeInvoker_Enumerator_t1457651980PFvvEPK10MethodInfoPvPS4_
gKk:__ZL97InputField_t3762917431_CustomAttributesCacheGenerator_InputField_MouseDragOutsideRect_m1055889050P21CustomAttributesCache
x1d:__ZN5physx16PxsBroadPhaseMBP9updatePPUEPNS_10PxBaseTaskE
Mva:__ZN13GfxDeviceGLES22DispatchComputeProgramE12ObjectHandleI18ComputeProgram_TagPvE15ComputeBufferIDj
_Pb:__ZN20DefaultGfxDeviceImpl32InitStereoGlobalsBuffersPlatformEiijPKv
uQk:_Latin1Encoding_GetString_m254210343
Nnb:__Z17TransformAABBSlowRK4AABBRK10Matrix4x4fRS_
fPl:_List_1__ctor_m834009713_gshared
UEf:_Array_combsort_m4052486289
Tbb:__ZN15SerializeTraitsI13dynamic_arrayI12SpriteVertexLj4EEE19ResizeSTLStyleArrayERS2_i
MGl:_List_1_System_Collections_ICollection_get_SyncRoot_m314215814_gshared
Wka:__ZN9ShaderLab21SerializedShaderState8TransferI14SafeBinaryReadEEvRT_
jRj:_Environment_GetWindowsFolderPath_m1738399646
T$l:_Queue_1_System_Collections_Generic_IEnumerableU3CTU3E_GetEnumerator_m2263220760_gshared
jKj:_DateTime_op_LessThan_m2497205152
Lln:__ZL25UnresolvedVirtualCall_196P12Il2CppObject19Color32_t2600501292PK10MethodInfo
fhe:__ZN5physx2Gu13RTreeMidphaseC2Ev
Swl:_DefaultComparer_GetHashCode_m77036565_gshared
zze:_cf2_stack_pushInt
FF:__ZN7mecanim9animation20DestroyLayerConstantEPNS0_13LayerConstantERNS_6memory9AllocatorE
lC:__ZN8Animator19FireAnimationEventsERNS_11AnimatorJobE
zFd:__ZN5physx6shdfnd8PoolBaseINS_16NpParticleSystemENS0_19ReflectionAllocatorIS2_EEE12allocateSlabEv
zHh:_ASN1_Add_m3468571571
NBh:_Module_GetCustomAttributes_m76573271
t5e:_CryptoConfig_EncodeOID_m2635914623
aWf:_NetworkIdentity_SetNetworkInstanceId_m1266349722
Fna:__ZN15SerializeTraitsINSt3__24pairIN4core12basic_stringIcNS2_20StringStorageDefaultIcEEEES6_EEE8TransferI24GenerateTypeTreeTransferEEvRS7_RT_
SGm:_Match_get_Groups_m841244970
Bxo:b89
Axo:b88
gwo:b81
fwo:b80
iIa:__ZN7ApiGLES19CreateSparseTextureEjj14GraphicsFormatiiiiRiS1_S1_
m3:__ZN18ResourceImageGroup7CleanupEv
vxo:b85
Scd:__ZN5physx2Gu36closestPtPointTetrahedronTesselationEPNS_6shdfnd3aos5Vec3VES4_S4_RjRS3_S6_
zxo:b87
Rlj:_String_CharCopy_m3838781968
xr:__ZN11Quaternionf8TransferI24GenerateTypeTreeTransferEEvRT_
r4d:__ZN5physx25PxcPCMContactSphereConvexERKNS_2Gu13GeometryUnionES3_RKNS_11PxTransformES6_RKfRNS_10PxcNpCacheERNS0_13ContactBufferE
xSg:_RemotingSurrogateSelector_GetSurrogate_m3900875713
j6h:_TlsServerCertificate_validateCertificates_m4242999387
Vde:__ZN5physx2Cm18DelegateFanoutTaskINS_2Sc5SceneEXadL_ZNS3_20particlePostShapeGenEPNS_10PxBaseTaskEEEED0Ev
Kmm:_ReadOnlyCollection_1_System_Collections_IList_get_IsReadOnly_m3626439112_gshared
T1h:_CertificateValidationCallback_Invoke_m1014111289
H1a:__ZN8Playable19SetOutputConnectionEPS_i
Nvc:__Z42Rigidbody2D_Get_Custom_PropAngularVelocityP12Il2CppObject
hVf:_ClientScene_InternalAddPlayer_m1935558233
an:_glDeleteShader
IL:__ZN11SoundHandle8Instance15UpdateLoadStateEv
HDa:__ZN6prcoreL17RemapGenericFloatI15TexFormatRGHalf16TexFormatRGFloatEEvPKNS_9InnerInfoE
w1k:_Array_Sort_TisUICharInfo_t75501106_m128665067_gshared
SBe:_otv_GSUB_validate
rdj:_RSAPKCS1SignatureDeformatter_SetHashAlgorithm_m1602190713
mQj:_Enum_System_IConvertible_ToByte_m1219166845
Atd:__ZN5physx6shdfnd8PoolBaseINS_10NpMaterialENS0_19ReflectionAllocatorIS2_EEE15disposeElementsEv
Jhl:_Dictionary_2_CopyToCheck_m45332585_gshared
dWl:_List_1_System_Collections_ICollection_get_IsSynchronized_m3630704857_gshared
b8g:_InternalEnumerator_1_System_Collections_IEnumerator_Reset_m4239728915_AdjustorThunk
XVm:_U3CStartU3Ec__Iterator0_System_Collections_Generic_IEnumeratorU3CobjectU3E_get_Current_m2852443338_gshared
Ulc:__Z27scripting_add_internal_callPKcPKv
Wzg:__Z78RuntimeInvoker_Void_t1185182177_QosTypeU5BU5DU26_t3320682561_Int32_t2950945753PFvvEPK10MethodInfoPvPS4_
efm:__ZN21InterfaceFuncInvoker1Ib20UIVertex_t4057497605E6InvokeEjP11Il2CppClassP12Il2CppObjectS0_
ECf:_AppDomain_Load_m4174353770
BEi:_Enumerator_Dispose_m1360775770_gshared
b8:__Z17GetPlayerSettingsv
d6k:_Array_InternalArray__get_Item_TisLink_t3080106562_m1916144364_gshared
Lma:__ZNSt3__26vectorIN9ShaderLab20SerializedSubProgram16SamplerParameterENS_9allocatorIS3_EEE6assignIPS3_EENS_9enable_ifIXaasr21__is_forward_iteratorIT_EE5valuesr16is_constructibleIS3_NS_15iterator_traitsISA_E9referenceEEE5valueEvE4typeESA_SA_
UC:__ZN34BlobWriteTransferSTLStyleArrayImplI22OffsetPtrArrayTransferIiEEclERS1_17TransferMetaFlagsR9BlobWrite
c4f:__Z141RuntimeInvoker_Boolean_t97287965_RuntimeObject_Int32_t2950945753_RuntimeObject_SByte_t1669577662_Int64U26_t200113976_ExceptionU26_t3600731591PFvvEPK10MethodInfoPvPS4_
XUh:_ScrollRect_get_content_m2477524320
uEi:_Enumerator_MoveNext_m1556953412_AdjustorThunk
hv:__ZN26AnimatorControllerPlayable18SetLayerAutoWeightEv
SSe:__Z44Register_UnityEngine_Canvas_get_pixelPerfectv
qrk:__ZL104GUIUtility_t1868551600_CustomAttributesCacheGenerator_GUIUtility_Internal_GetKeyboardControl_m2201588114P21CustomAttributesCache
Ybc:__ZN12CubemapArrayC2E10MemLabelId18ObjectCreationMode
Kkk:__ZL101RectTransform_t3704657025_CustomAttributesCacheGenerator_RectTransform_INTERNAL_set_pivot_m1160676233P21CustomAttributesCache
bQe:__ZN2UI14CanvasRenderer12SyncMaterialENS0_8SyncFlagE
f8i:_StreamWriter_Write_m1660535366
Oan:_PocoJsonSerializerStrategy_TrySerializeKnownTypes_m4166187834
QDl:_Array_qsort_TisPendingOwner_t3340073490_TisPendingOwner_t3340073490_m1515448513_gshared
gyg:__Z66RuntimeInvoker_Void_t1185182177_Int32_t2950945753_Link_t3209266973PFvvEPK10MethodInfoPvPS4_
yjo:__ZN6il2cpp2vm9Parameter30GetDefaultParameterValueObjectEPK10MethodInfoPK13ParameterInfoPb
pSk:_UTF8Encoding_GetByteCount_m4152118078
Fxg:__Z71RuntimeInvoker_Void_t1185182177_CustomAttributeNamedArgument_t287865710PFvvEPK10MethodInfoPvPS4_
mSl:_List_1_System_Collections_ICollection_get_IsSynchronized_m2608467503_gshared
mJh:_KeyPairPersistence__CanSecure_m3516574278
Bjl:_Dictionary_2_make_pair_m3116882385_gshared
Ril:_Dictionary_2_TryGetValue_m2113153912_gshared
Kal:_Enumerator__ctor_m3996507977_gshared
T7e:_MD5CryptoServiceProvider_Dispose_m3502499818
Hnd:__ZN5physx19NpRigidBodyTemplateINS_18PxArticulationLinkEE16setRigidBodyFlagENS_15PxRigidBodyFlag4EnumEb
T1j:__ZL53IsVolatile_t2097058663_CustomAttributesCacheGeneratorP21CustomAttributesCache
J6l:_Collection_1_System_Collections_IList_get_Item_m2422562729_gshared
Qjg:__Z87RuntimeInvoker_Void_t1185182177_RuntimeObject_StringU26_t181565287_StringU26_t181565287PFvvEPK10MethodInfoPvPS4_
KXa:__ZN12LightManager28IsLightTransformDataUpToDateEPK5Light
myi:_Array_InternalArray__IndexOf_TisKeyValuePair_2_t1496265288_m3591374435_gshared
rWl:_List_1_Clear_m2003943277_gshared
AXj:__ZL74RuntimeArray_CustomAttributesCacheGenerator_Array_BinarySearch_m3171087170P21CustomAttributesCache
$Wj:__ZL72Enum_t4135868527_CustomAttributesCacheGenerator_Enum_ToObject_m122225012P21CustomAttributesCache
$De:_UNITY_tt_face_done_kern
Y2h:_SecurityParameters_get_ServerWriteMAC_m3430427271
_qk:__ZL90GUIStyle_t3956901511_CustomAttributesCacheGenerator_GUIStyle_get_stretchHeight_m4172805773P21CustomAttributesCache
yon:__ZL25UnresolvedVirtualCall_345P12Il2CppObjectPK10MethodInfo
FEk:__ZL68g_UnityEngine_StandardEvents_Assembly_CustomAttributesCacheGeneratorP21CustomAttributesCache
nhb:__ZN14SafeBinaryRead21TransferSTLStyleArrayINSt3__26vectorI14SubstanceInputNS1_9allocatorIS3_EEEEEEvRT_17TransferMetaFlags
v4g:_ArrayReadOnlyList_1_RemoveAt_m2104218585_gshared
jfb:__ZN12BoneWeights48TransferI24GenerateTypeTreeTransferEEvRT_
rvi:_Array_InternalArray__IEnumerable_GetEnumerator_TisParameterModifier_t1461694466_m3675077728_gshared
rYm:_TextEditor_set_position_m2726739347
eNi:_KeyCollection_System_Collections_IEnumerable_GetEnumerator_m4039044666_gshared
sJm:_Regex_Match_m4145799399
KKk:__ZL60RawImage_t3182918964_CustomAttributesCacheGenerator_m_UVRectP21CustomAttributesCache
FMb:__Z19scripting_gc_enablev
vgh:_InternalEnumerator_1_get_Current_m2907722321_gshared
GQb:__ZZ23InitPlayerLoopCallbacksvEN41InitializationPlayerUpdateTimeRegistrator7ForwardEv
xlc:__ZN11UTF16StringC2ERKS_10MemLabelId
lse:__ZN5physx7profile11EventBufferINS_24PxDefaultContextProviderENS_6shdfnd6MutexTINS0_26WrapperReflectionAllocatorIhEEEENS0_14ScopedLockImplIS7_EENS_24PxProfileNullEventFilterEE9stopEventEty
xWf:_NetworkBehaviour_GetCmdHashHandlerName_m4187767529
pji:_KeyValuePair_2_get_Key_m254469931_gshared
Y4b:__Z29StdTemplateConversionFunctionIihEbPvR14SafeBinaryRead
ijh:_InternalEnumerator_1_System_Collections_IEnumerator_get_Current_m3854084659_gshared
Jif:_DefaultControls__cctor_m3473226132
Keb:__ZN14SafeBinaryRead21TransferSTLStyleArrayI13dynamic_arrayI11ColorRGBA32Lj4EEEEvRT_17TransferMetaFlags
vqi:_Array_get_swapper_TisCRCMessageEntry_t1041239249_m5309117_gshared
kKf:_ArrayList_EnsureCapacity_m3016383533
lxk:__ZL111DropConnectionResponse_t3571632289_CustomAttributesCacheGenerator_DropConnectionResponse_get_nodeId_m1281904853P21CustomAttributesCache
oKk:__ZL118U3CCaretBlinkU3Ec__Iterator0_t2589889038_CustomAttributesCacheGenerator_U3CCaretBlinkU3Ec__Iterator0_Reset_m1547565867P21CustomAttributesCache
LLa:__ZN9GfxDevice22UploadTextureCubeArrayE9TextureIDPKhjii14GraphicsFormati18TextureUploadFlags
Sah:_InternalEnumerator_1_System_Collections_IEnumerator_get_Current_m888718134_gshared
Jah:_InternalEnumerator_1_get_Current_m2894466703_gshared
Wwj:_Object_Destroy_m3118546832
_hm:_ReadOnlyCollection_1_System_Collections_Generic_IListU3CTU3E_set_Item_m519295790_gshared
_Mm:__ZN23GenericVirtFuncInvoker1IbjE6InvokeEPK10MethodInfoP12Il2CppObjectj
Aml:_Dictionary_2_get_Keys_m3477563026_gshared
bJj:_DateTime_FromTicks_m4059645178_AdjustorThunk
_5k:_Array_InternalArray__get_Item_TisClientCertificateType_t1004704908_m2297379651_gshared
XNg:_ConfigHandler_ParseTime_m1787834288
Fpa:__ZN9ShaderLab7Program27CreateFromSerializedProgramERKNS_17SerializedProgramE10ShaderTypeiP16PropertyNamesSetPK6Shader
Lsh:_Assembly_Load_m3487507613
p_a:__ZNSt3__27__sort4IRNS_6__lessIN4core12basic_stringIcNS2_20StringStorageDefaultIcEEEES6_EEPS6_EEjT0_SA_SA_SA_T_
wso:dynCall_viiiifii
DSn:__ZN6il2cpp2gc19AppendOnlyGCHashMapINSt3__24pairIPK11Il2CppImageP11Il2CppClassEEP22Il2CppReflectionModule17ReflectionMapHashIS9_ENS2_8equal_toIS9_EEEC2Ev
M$:__Z20GetPersistentManagerv
pHe:_UNITY_TT_Set_Var_Design
Iai:_EqualityComparer_1_System_Collections_IEqualityComparer_Equals_m858593084_gshared
hba:__ZN21SystemInfoStringCache16StaticInitializeEPv
t9j:__ZL80Convert_t2465617642_CustomAttributesCacheGenerator_Convert_ToDecimal_m1695757674P21CustomAttributesCache
QVg:_NameObjectCollectionBase_FindFirstMatchedItem_m840305173
S2l:_Collection_1__ctor_m3380123530_gshared
wbd:__ZN5physx2Sc7BodySim18internalWakeUpBaseEf
zim:_ReadOnlyCollection_1_System_Collections_Generic_ICollectionU3CTU3E_Remove_m1100818788_gshared
I5n:__ZNK10KeyWrapperIP12Il2CppObjectE14EqualsComparerINSt3__28equal_toIS1_EEEclERKS2_S9_
dcl:_ValueCollection_System_Collections_ICollection_get_IsSynchronized_m3909861602_gshared
_la:__ZNSt3__26vectorIN9ShaderLab20SerializedSubProgram15StructParameterENS_9allocatorIS3_EEE6assignIPS3_EENS_9enable_ifIXaasr21__is_forward_iteratorIT_EE5valuesr16is_constructibleIS3_NS_15iterator_traitsISA_E9referenceEEE5valueEvE4typeESA_SA_
Tgj:_CodeGroup_get_Name_m1187989429
erm:_ReadOnlyCollection_1_System_Collections_ICollection_get_SyncRoot_m895063950_gshared
UJb:__ZNK13MonoBehaviour7GetNameEv
Qob:__ZN19ScriptingInvocation28AdjustArgumentsToMatchMethodEv
KVm:_IndexedSet_1_Contains_m1525966688_gshared
wJ:__Z15_CheckFMODError11FMOD_RESULTPKciS1_
A_n:__ZN6il2cpp6icalls8mscorlib6SystemL16ThrowInvalidCastEPK11Il2CppClassS5_
_Ya:__Z20RenderMultipleMeshesRK15RenderNodeQueueRK18RenderMultipleData17ShaderChannelMask
cci:_EqualityComparer_1_get_Default_m79107703_gshared
Fni:_Enumerator_MoveNext_m478147538_AdjustorThunk
qJi:_Enumerator_Dispose_m4126741791_AdjustorThunk
rZe:__ZN11UnityEngine15PlatformWrapper20GetPlayerPrefsStringERKN4core12basic_stringIcNS1_20StringStorageDefaultIcEEEES5_
JRh:_MaskableGraphic_get_maskable_m1260382606
MPk:_Latin1Encoding__ctor_m498920120
gzf:_NetworkTransform_VerifySerializeComponentExists_m3529188128
NVn:__ZN6il2cpp2vm4Type19GetGenericParameterEPK10Il2CppType
F7i:_StreamReader_Peek_m2272511193
XJj:_DateTimeFormatInfo_FillAllDateTimePatterns_m2683124783
sRe:__Z51Register_UnityEngine_CanvasGroup_get_blocksRaycastsv
OJd:__ZN5physx20NpRigidActorTemplateINS_13PxRigidStaticEE15exportExtraDataERNS_22PxSerializationContextE
uqh:_NumberFormatter_get_IsFloatingSource_m3714711779
Wng:__Z123RuntimeInvoker_Void_t1185182177_Int32_t2950945753_Int32_t2950945753_Int32_t2950945753_Int32_t2950945753_ByteU26_t1992107912PFvvEPK10MethodInfoPvPS4_
UUm:_SyncList_1_AddInternal_m3876800740_gshared
Hvc:__Z40Rigidbody2D_CUSTOM_set_position_InjectedP12Il2CppObjectRK13Vector2fIcall
som:_ReadOnlyCollection_1_System_Collections_IList_get_IsReadOnly_m1140240619_gshared
Idm:_Collection_1_System_Collections_IList_Add_m1403891193_gshared
Bfe:__ZN5physx13BigConvexData5VLoadERNS_13PxInputStreamE
xah:_InternalEnumerator_1_System_Collections_IEnumerator_Reset_m169899350_AdjustorThunk
uXk:_Type_GetConstructor_m1195697116
je:_glBeginQuery
muf:_NetworkReader_ReadRect_m1298681867
Y_j:__ZL104RegionInfo_t1090270226_CustomAttributesCacheGenerator_RegionInfo_t1090270226____DisplayName_PropertyInfoP21CustomAttributesCache
CVd:__ZN5physx11NodeManager6resizeEj
tUc:__ZN10Effector2D25CheckEffectorColliderMaskEP10Collider2DS1_
fSb:__ZN6Camera12RenderStereoENS_10RenderFlagE8CullFlagPNS_24PerformEyeRenderFunctionE
Urb:__ZN20LocalFileSystemPosix10ToAbsoluteEPKc
PYa:__ZN20TierGraphicsSettings8TransferI19StreamedBinaryWriteILb0EEEEvRT_
uzo:b111
Oaa:__GLOBAL__sub_I_runtime_input_0_cpp
yco:__ZN6il2cpp2vm13ComObjectBase16DisconnectObjectEj
aPd:__ZNK5physx7NpScene28getSceneQueryStaticTimestampEv
Hdi:_GenericComparer_1__ctor_m3652072706_gshared
Jn:f0
Rr:__ZN6Object17MainThreadCleanupEv
Fzk:__ZL79ConnectionConfig_t4173981269_CustomAttributesCacheGenerator_m_DisconnectTimeoutP21CustomAttributesCache
pYa:__Z32TransferEnumWithNameForceIntSizeI14SafeBinaryRead7HDRModeEvRT_RT0_PKc17TransferMetaFlags
tcm:_Collection_1_System_Collections_ICollection_get_IsSynchronized_m316913510_gshared
yno:_getcwd
cpe:__ZNSt3__26vectorI9CollisionNS_9allocatorIS1_EEE21__push_back_slow_pathIKS1_EEvRT_
lOc:__ZN16b2CapsuleContact6CreateEP9b2FixtureiS1_iP16b2BlockAllocator
DNa:__ZN25ThreadsafeLinearAllocatorD2Ev
hlc:__ZL50GetAndClearChangedTransformsForMultilpleSystemsJobP45GetChangedTransformsForMultipleSystemsJobDatajPK23TransformAccessReadOnlyPKyj
cXd:__ZN5physx2Sq10AABBPruner11preallocateEj
cnb:__Z21SendMessageToEveryoneRK17MessageIdentifier11MessageData
I$l:_Queue_1_Dequeue_m2399924192_gshared
Cfa:__ZN21BillboardBatchManager16StaticInitializeEPv
UHj:_DateTime_AbsoluteDays_m4235097773
uca:__ZN12_GLOBAL__N_138ArchiveRedirectFileSystemStaticDestroyEPv
qYj:__ZL126U3CGetEnumeratorU3Ec__Iterator0_t1202911786_CustomAttributesCacheGenerator_U3CGetEnumeratorU3Ec__Iterator0_Dispose_m2078994225P21CustomAttributesCache
r3f:__Z74RuntimeInvoker_RuntimeObject_RuntimeObject_RuntimeObject_SByte_t1669577662PFvvEPK10MethodInfoPvPS4_
AYj:__ZL69Type_t_CustomAttributesCacheGenerator_Type_GetConstructor_m1195697116P21CustomAttributesCache
Iif:_DefaultControls_CreateScrollView_m3842770629
G6a:__ZN12CubemapArray34UpdateFileTextureUploadInstructionEP26FileAssetUploadInstructionj
BMd:__ZN5physx2Sc19ShapeInstancePairLLC2ERNS0_8ShapeSimES3_RNS0_9ActorPairENS_7PxFlagsINS_10PxPairFlag4EnumEtEE
S$j:__ZL94EnumBuilder_t2400448213_CustomAttributesCacheGenerator_EnumBuilder_GetConstructors_m3294436155P21CustomAttributesCache
hAg:__Z55RuntimeInvoker_TableRange_t3332867892_Int32_t2950945753PFvvEPK10MethodInfoPvPS4_
Kdh:_InternalEnumerator_1_MoveNext_m1020308708_gshared
hIa:__Z23CreateSparseTextureGLES9TextureIDii14GraphicsFormati
yCe:_otv_Anchor_validate
x4l:_Collection_1_System_Collections_ICollection_get_SyncRoot_m4096301159_gshared
H_i:_Guid_CompareTo_m243656946_AdjustorThunk
VRj:_CCMath_mod_m3631663509
WVk:_TimeSpan_Negate_m1889505500_AdjustorThunk
anm:_ReadOnlyCollection_1_System_Collections_ICollection_CopyTo_m2715087453_gshared
tuk:__ZL84Canvas_t3310196443_CustomAttributesCacheGenerator_Canvas_get_scaleFactor_m3314757802P21CustomAttributesCache
iTi:_Transform_1__ctor_m2810088858_gshared
YKe:__ZNSt3__23mapIN20TextRenderingPrivate7FontRefEP11FT_FaceRec_NS_4lessIS2_EENS_9allocatorINS_4pairIKS2_S4_EEEEEixERS9_
ZPa:__ZN17ArchiveFileSystem10AddStorageEP20ArchiveStorageReader
Nnd:__ZN5physx19NpRigidBodyTemplateINS_18PxArticulationLinkEE27setMaxDepenetrationVelocityEf
mBd:__ZN5physx2Sc9ClothCore16setStretchConfigENS_22PxClothFabricPhaseType4EnumERKNS_20PxClothStretchConfigE
Cgn:_AnalyticsEventTracker_Awake_m2780522130
tdl:_ValueCollection_System_Collections_ICollection_get_IsSynchronized_m566761125_gshared
vAg:__Z59RuntimeInvoker_KeyValuePair_2_t3186678459_Int32_t2950945753PFvvEPK10MethodInfoPvPS4_
fue:_PxCreateFoundation
UKc:__ZNK12b2MotorJoint16GetReactionForceEf
gJn:__ZN6il2cpp2vm13MetadataCache37GetParameterDefaultValueDataFromIndexEi
SWn:_il2cpp_class_get_assemblyname
spf:_NetworkServer_get_connections_m435746664
YQj:_Enum_compare_value_to_m1105953270
cdg:__Z50RuntimeInvoker_SByte_t1669577662_SByte_t1669577662PFvvEPK10MethodInfoPvPS4_
tlf:_Graphic_OnFillVBO_m1026749972
gCn:__ZN6il2cpp2vm5Class15GetEnumBaseTypeEP11Il2CppClass
d5h:_Context_set_WriteSequenceNumber_m942577065
Pe:_glVertexAttrib4fv
SUn:__ZN6il2cpp2vm14TypeNameParser27ParseByRefModifiersOptionalEv
Rco:__ZNK6il2cpp5utils13VmStringUtils23CaseInsensitiveComparerclERKNSt3__212basic_stringIcNS3_11char_traitsIcEENS3_9allocatorIcEEEEPKc
Yff:_CanvasScaler_SetScaleFactor_m3006968999
xFg:__Z78RuntimeInvoker_Boolean_t97287965_Navigation_t3049316579_Navigation_t3049316579PFvvEPK10MethodInfoPvPS4_
I7a:__ZNK9Texture2D16GetNpotTexelSizeEv
iqh:_NumberFormatter_Init_m3576155222
vPa:__ZL33FileEntryInfoListToFolderContentsRKN4core12basic_stringIcNS_20StringStorageDefaultIcEEEERK19dynamic_block_arrayI13FileEntryInfoLj32EERNSt3__23setIS3_NSB_4lessIS3_EENSB_9allocatorIS3_EEEE
Pfl:__ZN21InterfaceFuncInvoker2IbssE6InvokeEjP11Il2CppClassP12Il2CppObjectss
_Kf:_ArrayListWrapper_IndexOf_m3692065720
$_k:__ZN23InterfaceActionInvoker1IP39UnhandledExceptionEventArgs_t2886101344E6InvokeEjP11Il2CppClassP12Il2CppObjectS1_
jOl:_List_1__ctor_m1977754254_gshared
haf:_EventSystem_set_sendNavigationEvents_m983981895
Fgh:_InternalEnumerator_1_get_Current_m2810526933_gshared
C3g:_ThreadSafeDictionary_2_Contains_m3369938633_gshared
F0f:_NetworkDiscovery_set_offsetY_m329040946
nGf:__ZN21InterfaceFuncInvoker1ItP12Il2CppObjectE6InvokeEjP11Il2CppClassS1_S1_
Tsa:__ZN9GfxDevice22GetDefaultVertexBufferE26GfxDefaultVertexBufferTypej
kri:_Array_InternalArray__ICollection_Contains_TisInt64_t3736567304_m2911357929_gshared
zuj:_Material_INTERNAL_CALL_SetColorImpl_m4283161378
aSb:__ZNK6Camera16GetTargetDisplayEv
W6l:_Collection_1_Remove_m3022471627_gshared
Uno:___fseeko_unlocked
Krh:_Object_ToString_m1740002499
sdm:_Collection_1_Remove_m2494949642_gshared
Q7c:__ZN5physx3Cct17CapsuleControllerC2ERKNS_16PxControllerDescERNS_9PxPhysicsEPNS_7PxSceneE
o7m:_NetworkTransformChild_FixedUpdate_m1611224862
Gbf:_ExecuteEvents_GetEventChain_m2404658789
ENb:__Z17BeginSplashScreenv
b0k:_Array_Resize_TisUILineInfo_t4195266810_m3763058392_gshared
P4e:_SByte_ToString_m3584531119_AdjustorThunk
woa:__ZN9ShaderLab16SerializedShader8TransferI19StreamedBinaryWriteILb0EEEEvRT_
cRc:__ZNK4PPtrI7Joint2DEcvPS0_Ev
RE:__ZN7mecanim9animation18CreateAvatarMemoryEPKNS0_14AvatarConstantERNS_6memory9AllocatorE
WIf:_Convert_ToInt32_m1876369743
UZh:_ModulusRing__ctor_m2420310199
yRf:_Convert_ToDateTime_m626620011
qwl:_DefaultComparer__ctor_m3289136477_gshared
pFi:_Enumerator_System_Collections_IDictionaryEnumerator_get_Key_m2500634048_AdjustorThunk
DD:__ZN7mecanim8skeleton16SkeletonPoseCopyIN4math4trsXENS2_7affineXEEEvPKNS0_13SkeletonPoseTIT_EEPNS5_IT0_EE
VCb:__Z18Transfer_BlittableI19StreamedBinaryWriteILb0EELb0EaEvRK29SerializationCommandArgumentsR31RuntimeSerializationCommandInfo
oFl:_List_1_Remove_m3037048099_gshared
mza:__ZN18GfxFramebufferGLES18GetFramebufferNameERK20GfxRenderTargetSetup
Ufo:_GC_print_block_list
iYg:_IPAddress__ctor_m921977496
kOh:_InputField_MoveDown_m1455948167
Fzc:__Z30Event_Get_Custom_PropCharacterP12Il2CppObject
pha:__ZN13PlayableGraph27SchedulePlayableDestructionERK9HPlayable
JBe:_cff_get_mm_var
$3c:__ZN5physx6shdfnd5ArrayINS_12PxDebugPointENS0_19ReflectionAllocatorIS2_EEE15growAndPushBackERKS2_
owo:_glGetFramebufferAttachmentParameteriv__wrapper
IMg:_ChannelServices_GetCurrentChannelInfo_m3041604116
MZe:__Z13RegisterClassI20UnityConnectSettingsEvv
NNm:__ZN23GenericVirtFuncInvoker1Ib24PendingPlayer_t306375494E6InvokeEPK10MethodInfoP12Il2CppObjectS0_
Ajh:_InternalEnumerator_1__ctor_m2635640285_AdjustorThunk
Qvb:__Z22scripting_array_length17ScriptingArrayPtr
Kog:__Z100RuntimeInvoker_Void_t1185182177_RuntimeObject_Int32_t2950945753_Int32_t2950945753_Single_t1397266774PFvvEPK10MethodInfoPvPS4_
xFj:__ZN25GenericVirtActionInvoker2IP8String_tP19Action_1_t819399007E6InvokeEPK10MethodInfoP12Il2CppObjectS1_S3_
Ame:__ZN8Collider13AwakeFromLoadE17AwakeFromLoadMode
qlm:_ReadOnlyCollection_1_System_Collections_Generic_IListU3CTU3E_set_Item_m4097446843_gshared
Uym:_Predicate_1_Invoke_m2308795536_gshared
T6a:__ZN14SafeBinaryRead20TransferTypelessDataEjPvi
FKd:__ZN5physx6shdfnd13ReadWriteLockC2Ev
bvo:b34
HIe:_Horizontal_Sweep_Init
pQ:__ZN13dynamic_arrayI12SoundChannelLj4EE9push_backERKS0_
_7:__Z19GetActiveColorSpacev
V4n:__ZN6il2cpp2gc8GCHandle3NewEP12Il2CppObjectb
GHn:__ZNK15dense_hashtableI10KeyWrapperIPK19Il2CppGenericMethodES4_N6il2cpp8metadata23Il2CppGenericMethodHashEN14dense_hash_setIS4_S7_NS4_14EqualsComparerINS6_26Il2CppGenericMethodCompareEEENSt3__29allocatorIS4_EEE8IdentityESB_SE_E23find_position_with_hashERKS4_j
BDe:_UNITY_tt_face_load_kern
tHg:_MonoMethodInfo_GetDeclaringType_m2924452727
QOb:__ZN13sorted_vectorINSt3__24pairIiN17InstancingBatcher12PropertyTypeEEEN10vector_mapIiS3_NS0_4lessIiEE13stl_allocatorIS4_L18MemLabelIdentifier1ELi16EEE13value_compareESA_E21sort_clear_duplicatesEv
B2:__Z6StrCmpPKcS0_
NUh:_Scrollbar_OnInitializePotentialDrag_m3588541308
Nqa:__Z21CheckGpuProgramUsable20ShaderGpuProgramType
Jac:__ZN13ProduceHelperI14Texture2DArrayLb0EE7ProduceE10MemLabelId18ObjectCreationMode
H_k:_UIntPtr__ctor_m4250165422_AdjustorThunk
y9n:__ZN6il2cpp2os9Directory20GetFileSystemEntriesERKNSt3__212basic_stringIcNS2_11char_traitsIcEENS2_9allocatorIcEEEESA_iiPi
EDf:_Array_System_Collections_IList_Add_m1063688101
$pd:__ZN5physx6shdfnd5ArrayIPvNS0_19ReflectionAllocatorINS_2Cm5BlockIhLj128EEEEEE4copyINS0_15InlineAllocatorILj256ES7_EEEEvRKNS1_IS2_T_EE
DKk:__ZL66Navigation_t3049316579_CustomAttributesCacheGenerator_m_SelectOnUpP21CustomAttributesCache
gKe:__ZN20TextRenderingPrivate19NativeTextGenerator5SetupEv
lZb:__ZNK15SharedLightData24GetFinalShadowResolutionEv
aIm:_PatternCompiler_EmitAlternationEnd_m2444359097
Xgk:__ZL91GameObject_t1113636619_CustomAttributesCacheGenerator_GameObject_get_activeSelf_m1767405923P21CustomAttributesCache
Ytf:_NetworkReader_ReadInt32_m3309847898
Gtd:__ZN5physx6shdfnd8PoolBaseINS_16NpConnectorArrayENS0_19ReflectionAllocatorIS2_EEE15disposeElementsEv
xkb:__ZN12AspectRatios8TransferI18StreamedBinaryReadILb0EEEEvRT_
dve:__ZN14PhysicsManager19CreatePvdConnectionEv
mfc:__ZN10GameObject14CopyPropertiesERS_
YAc:__Z44Register_UnityEngine_GUIStyle_get_fixedWidthv
Lsi:_Array_InternalArray__ICollection_Remove_TisLink_t544317964_m1280781374_gshared
W8n:__ZNSt3__214__split_bufferIN6il2cpp2os10ThreadImpl10APCRequestERNS_9allocatorIS4_EEEC2EjjS7_
_Ff:_BitConverter_DoubleWordsAreSwapped_m1474345095
kmg:__Z114RuntimeInvoker_Int32_t2950945753_Vector2_t2156229523_Vector2_t2156229523_ContactFilter2D_t3805203441_RuntimeObjectPFvvEPK10MethodInfoPvPS4_
jbb:__ZNK13ScreenManager12IsFullScreenEv
rLf:_FixedSizeArrayListWrapper_set_Capacity_m4221053039
noo:_rand
Swo:_emscripten_glFramebufferRenderbuffer__wrapper
Yic:__ZN13MeshScripting10CreateMeshE21ScriptingObjectOfTypeI4MeshE
IWm:_ListPool_1__cctor_m3480273184_gshared
Psd:__ZNK5physx12NpConstraint9getActorsERPNS_12PxRigidActorES3_
evo:b37
Hjg:__Z56RuntimeInvoker_Void_t1185182177_PropertyName_t3749835189PFvvEPK10MethodInfoPvPS4_
vtf:_NetworkMigrationManager_OnAuthorityUpdated_m1668597697
mbf:__ZN23InterfaceActionInvoker1IP25BaseEventData_t3903027533E6InvokeEjP11Il2CppClassP12Il2CppObjectS1_
Oyj:_Quaternion_INTERNAL_CALL_Internal_ToEulerRad_m1913372122
Mwb:__ZN14SafeBinaryRead21TransferSTLStyleArrayINSt3__26vectorI17AnimationCurveTplIfE13stl_allocatorIS4_L18MemLabelIdentifier1ELi16EEEEEEvRT_17TransferMetaFlags
Dnc:__Z60Register_UnityEngine_AsyncOperation_set_allowSceneActivationv
bie:__ZN5physx6shdfnd8PoolBaseIN17PxcPoolMallocData10PoolData16ENS0_19ReflectionAllocatorIS3_EEE15disposeElementsEv
bme:__ZN9Rigidbody23UpdateInterpolationNodeEv
Acm:_Collection_1_Add_m3890575440_gshared
ZOe:__ZN2UI15SortForBatchingEPKNS_23RenderableUIInstructionEjPS0_i
jpj:_Color_op_Multiply_m2887457390
ckn:__ZL25UnresolvedVirtualCall_107P12Il2CppObjectS0_S0_iiPK10MethodInfo
v_l:_List_1_Remove_m2092443302_gshared
H$b:__Z22PrepareOptimizedPlanesPK5PlaneiPKN4math7_float4E
Fah:_InternalEnumerator_1__ctor_m1559487635_gshared
$4m:_NetworkAccessToken_GetByteString_m3125030115
nY:__ZN11UnityEngine15CloudWebService17WebFileDownloaderINS0_20WebRequestRestClientENS0_23WebRequestRestHeaderMapEE10InitializeERKN4core12basic_stringIcNS5_20StringStorageDefaultIcEEEE
Afa:__ZN17UniqueIDGenerator15CreatePureIndexEv
yUm:_SyncList_1_Add_m3087268531_gshared
eBc:__Z59Register_UnityEngine_GUIStyle_Internal_GetCursorFlashOffsetv
xt:__ZN11UnityEngine9Animation28GenericAnimationBindingCache15DidReloadDomainEv
E0m:_GUIUtility_TakeCapture_m1130863121
eeb:__ZN16BlitStereoHelper16PrepareEyeRenderEiRK19ShaderPropertySheetRS0_bRK8Vector2fS6_14VRTextureUsage
DNd:__ZN5physx7NpScene8addActorERNS_7PxActorE
nlb:__ZNSt3__26vectorIN15ResourceManager10DependencyE13stl_allocatorIS2_L18MemLabelIdentifier52ELi16EEE6assignINS_11__wrap_iterIPS2_EEEENS_9enable_ifIXaasr21__is_forward_iteratorIT_EE5valuesr16is_constructibleIS2_NS_15iterator_traitsISC_E9referenceEEE5valueEvE4typeESC_SC_
Yal:_Enumerator_System_Collections_IEnumerator_get_Current_m2001645021_gshared
vBn:__ZN15dense_hashtableINSt3__24pairIK10KeyWrapperIPK22Il2CppGenericParameterEP11Il2CppClassEES6_N6il2cpp5utils11PointerHashIS4_EEN14dense_hash_mapIS6_S9_SE_NS6_14EqualsComparerINS0_8equal_toIS5_EEEENS0_9allocatorISA_EEE9SelectKeyESJ_SL_E14squash_deletedEv
M3a:__ZN9ShaderLabL27GetDesiredRenderTextureDescEPK6Camera
ggh:_InternalEnumerator_1_get_Current_m1523142935_AdjustorThunk
JMc:__ZNK12b2MouseJoint17GetReactionTorqueEf
aBl:_Array_InternalArray__Insert_TisMark_t3471605523_m2854535880_gshared
YBa:__ZN6prcoreL29inner_stretch_rgb565_bilinearEPKNS_9InnerInfoE
Jdc:__ZZL23RegisterLightPropertiesR22GenericPropertyBindingEN18Wrapper_LightRange13SetFloatValueEPvf
opk:__ZL52HumanBone_t2465339518_CustomAttributesCacheGeneratorP21CustomAttributesCache
mUm:_SyncList_1_GetEnumerator_m2676317_gshared
CTn:__ZN15dense_hashtableINSt3__24pairIK10KeyWrapperIPK22Il2CppGenericParameterEPK24MonoGenericParameterInfoEES6_N6il2cpp5utils11PointerHashIS4_EEN14dense_hash_mapIS6_SA_SF_NS6_14EqualsComparerINS0_8equal_toIS5_EEEENS0_9allocatorISB_EEE9SelectKeyESK_SM_EC2EjRKSF_RKSK_RKSO_
Jjk:__ZL81Scene_t2348375561_CustomAttributesCacheGenerator_Scene_GetNameInternal_m992487900P21CustomAttributesCache
eSg:_MethodReturnDictionary__cctor_m278392388
u$:__ZNK9Transform18TransformDirectionERK8Vector3f
_de:__ZN5physx21PxsBodyTransformVault6updateEv
LQa:__ZNK17ArchiveFileSystem12GetAssetGUIDERK13FileEntryData
Fqa:__ZNSt3__26vectorIN9ShaderLab20SerializedSubProgram15MatrixParameterENS_9allocatorIS3_EEE21__push_back_slow_pathIKS3_EEvRT_
jMk:__ZL80CanvasScaler_t2767979955_CustomAttributesCacheGenerator_m_ReferencePixelsPerUnitP21CustomAttributesCache
jCe:_otv_MarkLigPos_validate
JGh:_PrimalityTests_RabinMillerTest_m1471415870
UXc:__ZL29GeomMTDCallback_CapsuleConvexRN5physx6PxVec3ERfRKNS_10PxGeometryERKNS_11PxTransformES5_S8_
Txh:_GenericTypeParameterBuilder_GetCustomAttributes_m580748276
Fvk:__ZL87CreateMatchRequest_t2600446299_CustomAttributesCacheGenerator_U3CnameU3Ek__BackingFieldP21CustomAttributesCache
Zgn:_AnalyticsTracker_get_TP_m2800669040
QHn:__ZN15dense_hashtableINSt3__24pairIK10KeyWrapperIPK11Il2CppClassEPKcEES6_N6il2cpp5utils11PointerHashIS3_EEN14dense_hash_mapIS6_S9_SE_NS6_14EqualsComparerINS0_8equal_toIS5_EEEENS0_9allocatorISA_EEE9SelectKeyESJ_SL_E12resize_deltaEjj
cfg:__Z75RuntimeInvoker_TimeSpan_t881159249_DateTime_t3738529785_TimeSpan_t881159249PFvvEPK10MethodInfoPvPS4_
qXg:__ZN23GenericVirtFuncInvoker1IP26IPAddressU5BU5D_t596328627P8String_tE6InvokeEPK10MethodInfoP12Il2CppObjectS3_
fnl:_Dictionary_2_set_Item_m3500796589_gshared
NCg:__Z37RuntimeInvoker_Enumerator_t4059800587PFvvEPK10MethodInfoPvPS4_
ZZh:_Kernel_LeftShift_m4140742987
ysh:_Assembly_GetManifestResourceInternal_m1224391897
Iza:__Z30AddDefaultStreamsToMeshBuffersR9GfxDeviceR11MeshBuffersj17ShaderChannelMaskS3_
dca:__ZL16GetInterfaceImpl18UnityInterfaceGUID
zCn:__ZN6il2cpp2vmL17SetupFieldOffsetsENS0_15FieldLayoutKindEP11Il2CppClassjRKNSt3__26vectorIjNS4_9allocatorIjEEEE
San:_PocoJsonSerializerStrategy__cctor_m40283078
nco:__ZN6il2cpp6icalls8mscorlib6System15MonoCustomAttrs27GetCustomAttributesInternalEP12Il2CppObjectP20Il2CppReflectionTypeb
Wdh:_InternalEnumerator_1_get_Current_m1408339225_AdjustorThunk
MHe:_UNITY_TT_Set_MM_Blend
Jam:_Collection_1_ConvertItem_m2025955473_gshared
Paa:__GLOBAL__sub_I_runtime_math_random_0_cpp
KFi:_Enumerator_System_Collections_IEnumerator_Reset_m2807617604_gshared
Czm:_InternalAsyncResult_get_FromWrite_m4228047810
qag:__Z53RuntimeInvoker_MonoEventInfo_t346866618_RuntimeObjectPFvvEPK10MethodInfoPvPS4_
sfm:_Collection_1_CopyTo_m955200729_gshared
iWc:__ZNK5physx3Cct13BoxController11getPositionEv
CYi:__ZN23GenericVirtFuncInvoker1I34NetworkBroadcastResult_t2174414888S0_E6InvokeEPK10MethodInfoP12Il2CppObjectS0_
RNb:__ZN14PreloadManager35WaitForAllAsyncOperationsToCompleteEv
VGd:__ZN5physx14NpRigidDynamicC2ERKNS_11PxTransformE
Qbi:_EqualityComparer_1__ctor_m1138336971_gshared
H$c:__Z27sweepCCTBox_HeightFieldGeomRKN5physx10PxGeometryERKNS_11PxTransformERKNS_2Gu3BoxERKNS_6PxVec3EfRNS_10PxSweepHitENS_7PxFlagsINS_9PxHitFlag4EnumEtEEf
B1:__ZNK18ScriptingObjectPtr17ToScriptingStringEv
dL:__ZL31InitializeAudioScriptingClassesv
xPg:_ContextAttribute_IsNewContextOK_m2778900898
$Sb:__Z14SortGUIByDepthP10GUIElementS0_
dOk:_DecoderExceptionFallback_GetHashCode_m1820789965
zba:__ZN13RuntimeStaticI13dynamic_arrayIPK31TransferFunctionScriptingTraitsLj4EELb0EE16StaticInitializeEPv
aln:__ZL25UnresolvedVirtualCall_159P12Il2CppObject17Color_t2555686324faaaPK10MethodInfo
x8l:_Collection_1_set_Item_m3174689125_gshared
Hgg:__Z69RuntimeInvoker_UInt32_t2560061978_Int32_t2950945753_SByte_t1669577662PFvvEPK10MethodInfoPvPS4_
pBl:_Array_InternalArray__Insert_TisNetworkBroadcastResult_t2174414888_m3263428797_gshared
oE:__ZN12_GLOBAL__N_120ProcessRootMotionMixER33AnimationPlayableEvaluationOutputR35AnimationPlayableEvaluationConstantR32AnimationPlayableEvaluationInputS1_f
MMm:_UriParser__cctor_m3655686731
CXc:__ZN5physx3Cct9SweepTest18updateTouchedGeomsEPKNS0_30InternalCBData_FindTouchedGeomERKNS0_13UserObstaclesERKNS_17PxExtendedBounds3ERKNS_19PxControllerFiltersERKNS_6PxVec3E
LFg:__Z36RuntimeInvoker_Enumerator_t463618097PFvvEPK10MethodInfoPvPS4_
Muj:_Material_SetColor_m355160541
OQh:_LayoutRebuilder_U3Cs_RebuildersU3Em__0_m589488547
Xwk:__ZL111JoinMatchResponse_t845270609_CustomAttributesCacheGenerator_JoinMatchResponse_get_accessTokenString_m2145669779P21CustomAttributesCache
sse:_PxCloseExtensions
dDg:__Z53RuntimeInvoker_KeyValuePair_2_t71524366_RuntimeObjectPFvvEPK10MethodInfoPvPS4_
usb:__ZNK20LocalFileSystemPosix21GetAvailableDiskSpaceEPKcRy
nba:__ZNSt3__26__treeIiNS_4lessIiEENS_9allocatorIiEEE7destroyEPNS_11__tree_nodeIiPvEE
msa:__ZNK9GfxDevice14GetWorldMatrixEv
E7g:_InternalEnumerator_1_MoveNext_m3619293991_gshared
_1m:_CreateMatchResponse_get_domain_m2386171851
VEj:_Transform_set_parent_m786917804
KVa:__ZN6Camera8TransferI19StreamedBinaryWriteILb0EEEEvRT_
fbo:__ZN15dense_hashtableINSt3__24pairIK10KeyWrapperIPK19Il2CppGenericMethodEP10MethodInfoEES6_N6il2cpp8metadata23Il2CppGenericMethodHashEN14dense_hash_mapIS6_S9_SD_NS6_14EqualsComparerINSC_26Il2CppGenericMethodCompareEEENS0_9allocatorISA_EEE9SelectKeyESH_SJ_E13set_empty_keyERKSA_
IXh:_Slider_get_value_m739683640
Kqb:__Z19scripting_array_new17ScriptingClassPtrjj
$tf:_NetworkReader_ReadUInt64_m1416258655
dQ:__ZN11SoundHandle13CreateChannelEb
fxk:__ZL109DropConnectionRequest_t2647317937_CustomAttributesCacheGenerator_DropConnectionRequest_get_nodeId_m2375409994P21CustomAttributesCache
pUk:_WaitCallback_BeginInvoke_m3012509827
i9a:__ZN14SafeBinaryRead21TransferSTLStyleArrayI13dynamic_arrayI12LightmapDataLj4EEEEvRT_17TransferMetaFlags
Hma:__ZNSt3__26vectorIN9ShaderLab20SerializedSubProgram16TextureParameterENS_9allocatorIS3_EEE6assignIPS3_EENS_9enable_ifIXaasr21__is_forward_iteratorIT_EE5valuesr16is_constructibleIS3_NS_15iterator_traitsISA_E9referenceEEE5valueEvE4typeESA_SA_
VFg:__Z37RuntimeInvoker_Enumerator_t2406424813PFvvEPK10MethodInfoPvPS4_
rGn:__ZN13Il2CppHashMapIN6il2cpp5utils13dynamic_arrayIPK10Il2CppTypeLj4EEEPFvvENS0_8metadata19Il2CppSignatureHashENS9_22Il2CppSignatureCompareENSt3__29allocatorINSC_4pairIK10KeyWrapperIS6_ES8_EEEEEC2EjRKSA_RKSB_
Wqc:__Z51Quaternion_CUSTOM_INTERNAL_CALL_Internal_ToEulerRadRK11QuaternionfR8Vector3f
B7f:__Z122RuntimeInvoker_Void_t1185182177_RuntimeObject_RuntimeObject_ContractionU5BU5DU26_t2277527001_Level2MapU5BU5DU26_t359320357PFvvEPK10MethodInfoPvPS4_
jTn:__ZN15dense_hashtableINSt3__24pairIK10KeyWrapperIPK22Il2CppGenericParameterEPK24MonoGenericParameterInfoEES6_N6il2cpp5utils11PointerHashIS4_EEN14dense_hash_mapIS6_SA_SF_NS6_14EqualsComparerINS0_8equal_toIS5_EEEENS0_9allocatorISB_EEE9SelectKeyESK_SM_E15set_deleted_keyERKSB_
N4e:_SByte_TryParse_m2431806379
YTk:_Thread_set_IsBackground_m3868016371
Ibk:__ZL64ObjectDisposedException_t21392786_CustomAttributesCacheGeneratorP21CustomAttributesCache
S7b:__ZN6prcoreL11inner_clearILj2EEEvPhjjj
iXf:_ConnectionArray_ContainsPlayer_m3799629025
Dgk:__ZL92Debug_t3317548046_CustomAttributesCacheGenerator_Debug_LogWarningFormat_m1153215311____args2P21CustomAttributesCache
p6e:_DSACryptoServiceProvider_get_KeySize_m786836990
VLc:__ZN12b2WheelJoint24SolvePositionConstraintsERK12b2SolverData
_Ad:__ZNK5physx2Sc9ClothCore20getNbCollisionPlanesEv
Dh:_emscripten_exit_fullscreen
tUd:__ZN5physx6shdfnd5ArrayINS_9PxBounds3ENS0_15InlineAllocatorILj192ENS0_19ReflectionAllocatorIS2_EEEEE8recreateEj
Q0d:__ZNK5physx23PxsBroadPhaseContextSap7getTypeEv
cge:__ZNK5physx13GuMeshFactory17getNbHeightFieldsEv
qvf:_NetworkServerSimple_set_useWebSockets_m1361388853
uDl:_Array_qsort_TisBoolean_t97287965_TisBoolean_t97287965_m214793583_gshared
Sji:_Enumerator_System_Collections_IEnumerator_Reset_m1564381721_gshared
gve:__ZN14PhysicsManager19CreateDynamicsSceneEbb14BroadphaseType16ContactPairsModeRK4AABBi
Drh:_Object_MemberwiseClone_m1474068832
Eok:__ZL113ReflectionUtils_t3359723746_CustomAttributesCacheGenerator_ReflectionUtils_GetContructor_m3504171333____argsType1P21CustomAttributesCache
o1m:_ConnectionConfig_get_UsePlatformSpecificProtocols_m1183726116
UIc:__Z29Transfer_Blittable_ArrayFieldI8JSONRead11QuaternionfEvRT_R9ArrayInfoRK23StaticTransferFieldInfo
nEf:_Array_SetValue_m282347242
qXd:__ZNK5physx2Gu12OBBAABBTestsILb1EEclENS_6shdfnd3aos5Vec3VES5_
PJn:__ZN6il2cpp6icalls6System6System3Net7Sockets6Socket8ShutdownEiNS4_14SocketShutdownEPi
xoc:__Z45Register_UnityEngine_Camera_get_targetDisplayv
Jcc:__ZNK24RendererAnimationBinding15GenerateBindingERKN4core12basic_stringIcNS0_20StringStorageDefaultIcEEEEbRN11UnityEngine9Animation14GenericBindingE
DYg:_IPv6Address__ctor_m3704187391
uTb:__Z15GetFlareManagerv
t8b:__ZN15ApplicationInfo24GetApplicationIdentifierEv
XWc:__ZN5physx3Cct9SweepTestD2Ev
XMa:__ZN9Behaviour8TransferI18StreamedBinaryReadILb0EEEEvRT_
FB:__ZN8Animator13GetAvatarRootEv
k4c:__ZN26IntersectAnyVsMeshCallbackILi0ELb0EED2Ev
Lvg:__Z107RuntimeInvoker_Int32_t2950945753_RuntimeObject_PendingOwner_t3340073490_Int32_t2950945753_Int32_t2950945753PFvvEPK10MethodInfoPvPS4_
nmo:___toread
YLb:__ZNSt3__26vectorI10vector_mapIiiNS_4lessIiEE13stl_allocatorINS_4pairIiiEEL18MemLabelIdentifier38ELi16EEES4_IS9_LS7_38ELi16EEE26__swap_out_circular_bufferERNS_14__split_bufferIS9_RSA_EE
vfk:__ZL109AsyncOperation_t1445031843_CustomAttributesCacheGenerator_AsyncOperation_set_allowSceneActivation_m1414760251P21CustomAttributesCache
vZh:_BigInteger_get_Rng_m3283260184
wmi:_Enumerator_Dispose_m1817009752_AdjustorThunk
RG:__ZN8Animator22ScriptingStringToCRC32ERK11ICallString
rck:__ZL55EventHandler_t1348719766_CustomAttributesCacheGeneratorP21CustomAttributesCache
qE:__ZN7mecanim9animation16EvaluateAvatarDXEPKNS0_14AvatarConstantEPKNS0_11AvatarInputEPNS0_12AvatarMemoryEPNS0_15AvatarWorkspaceEPNS0_12AvatarOutputE
DGa:__ZN4gles20DestroyRenderSurfaceEP7ApiGLESP17RenderSurfaceGLES
p6k:_Array_InternalArray__get_Item_TisKeyValuePair_2_t2530217319_m2886833132_gshared
bWh:_ScrollRect_OnEndDrag_m3202230060
Ktc:__Z34Transform_CUSTOM_SetAsFirstSiblingP12Il2CppObject
RIi:_Enumerator__ctor_m1280792063_AdjustorThunk
P_c:__ZN12_GLOBAL__N_141SphereMeshContactGenerationCallback_ScaleD0Ev
P5c:__ZN5physx3Cct17CapsuleController16setContactOffsetEf
u7f:__Z63RuntimeInvoker_Void_t1185182177_RuntimeObject_SByte_t1669577662PFvvEPK10MethodInfoPvPS4_
slk:__ZL57SetupCoroutine_t2062820429_CustomAttributesCacheGeneratorP21CustomAttributesCache
$Nh:_InputField_Delete_m3471899192
Jak:__ZL79Convert_t2465617642_CustomAttributesCacheGenerator_Convert_ToUInt64_m1627266664P21CustomAttributesCache
d3j:__ZL91UrlAttribute_t221584584_CustomAttributesCacheGenerator_UrlAttribute_IsContextOK_m1228378186P21CustomAttributesCache
VMg:_RemotingConfiguration_get_ProcessId_m2180277012
k6:__ZN17PersistentManager40GlobalToLocalSerializedFileIndexInternalERK26SerializedObjectIdentifier
kV:__ZN11UnityEngine15CloudWebService17SessionEventQueue14ParseEventDataERKN4core12basic_stringIcNS2_20StringStorageDefaultIcEEEE
j5m:_DelegatePInvokeWrapper_BasicResponseDelegate_t2196726690
$jl:_Dictionary_2_System_Collections_Generic_IDictionaryU3CTKeyU2CTValueU3E_get_Keys_m2206597267_gshared
zxe:__Z62Register_UnityEngine_CharacterController_INTERNAL_get_velocityv
psd:__ZN12GeomQueryAnyIN5physx10PxSweepHitEE7geomHitERKNS0_2Sq17SceneQueryManagerERKNS0_15MultiQueryInputERKNS3_9ShapeDataERKNS0_10PxGeometryERKNS0_11PxTransformENS0_7PxFlagsINS0_9PxHitFlag4EnumEtEEjPS1_fbPNS0_9PxBounds3E
OSi:_Transform_1_BeginInvoke_m4058251461_gshared
Vpi:_List_1_Remove_m2605758101_gshared
Mxa:__ZN13TranslateGLES4InitERK12GraphicsCaps16GfxDeviceLevelGL
fug:__Z48RuntimeInvoker_Boolean_t97287965_Link_t915510984PFvvEPK10MethodInfoPvPS4_
RIb:__Z29Transfer_Blittable_ArrayFieldI18StreamedBinaryReadILb0EE10ColorRGBAfEvRT_R9ArrayInfoRK23StaticTransferFieldInfo
ZZc:__ZN43CapsuleHeightfieldContactGenerationCallback7onEventEjPj
Coe:__ZThn4_N12MemoryStream4readEPvj
hNn:_NativeTypeAttribute_set_CodegenOptions_m3839252515
o9h:_EqualityComparer_1_get_Default_m180770000_gshared
N1i:_Int64_System_IConvertible_ToUInt16_m848637338_AdjustorThunk
FUe:__Z32CustomEventData_CUSTOM_AddUInt32P12Il2CppObjectP12Il2CppStringj
bXi:__ZN28GenericInterfaceFuncInvoker2IxP12Il2CppObjectxE6InvokeEPK10MethodInfoS1_S1_x
sMm:_Uri_get_PathAndQuery_m2396197970
Bgl:_Dictionary_2_System_Collections_Generic_ICollectionU3CSystem_Collections_Generic_KeyValuePairU3CTKeyU2CTValueU3EU3E_Add_m2414635523_gshared
qyi:_Array_InternalArray__IndexOf_TisLink_t544317964_m455584088_gshared
j$l:_Enumerator_get_Current_m2282646120_AdjustorThunk
Qmm:_ReadOnlyCollection_1_IndexOf_m2539022912_gshared
gTe:__ZN4UNET16ScriptingUpdater16SetUpdatePointerEv
CKd:__ZN5physx6shdfnd8internal8HashBaseIPNS_13NpVolumeCacheES4_NS0_4HashIS4_EENS1_11HashSetBaseIS4_S6_NS0_9AllocatorELb0EE6GetKeyES8_Lb0EE15reserveInternalEj
OLi:_Enumerator_System_Collections_IEnumerator_get_Current_m2966107030_gshared
rLk:__ZL66Selectable_t3250028441_CustomAttributesCacheGenerator_m_TransitionP21CustomAttributesCache
ipg:__Z92RuntimeInvoker_Boolean_t97287965_NetworkInstanceId_t786350175_NetworkIdentityU26_t3162731479PFvvEPK10MethodInfoPvPS4_
dko:__ZN6il2cpp2os6Memory12AlignedAllocEjj
TIl:_List_1_AsReadOnly_m3745969689_gshared
rvd:__ZN5physx6shdfnd8internal8HashBaseIPKNS_6PxBaseES5_NS0_4HashIS5_EENS1_11HashSetBaseIS5_S7_NS0_9AllocatorELb0EE6GetKeyES9_Lb0EE6createERKS5_Rb
aki:_Enumerator_get_Current_m2305210644_AdjustorThunk
v$d:__ZN5physx28solveFrictionCoulombPreBlockEPKNS_23PxcSolverConstraintDescEjRNS_16PxcSolverContextE
OYh:_Text_set_alignByGeometry_m3828822280
b8l:_Collection_1_System_Collections_ICollection_get_IsSynchronized_m333075945_gshared
Ndo:__ZN6il2cpp8metadataL7CompareEPK10Il2CppTypeS3_
Myb:__Z18Transfer_BlittableI17RemapPPtrTransferLb0E11ColorRGBA32EvRK29SerializationCommandArgumentsR31RuntimeSerializationCommandInfo
OUg:_HybridDictionary__ctor_m1681134385
X4:__ZN21ScalableBufferManager11GetInstanceEv
hHb:__Z18Transfer_BlittableI18StreamedBinaryReadILb0EELb1E10ColorRGBAfEvRK29SerializationCommandArgumentsR31RuntimeSerializationCommandInfo
y6a:__ZN12CubemapArray23VirtualRedirectTransferER17RemapPPtrTransfer
eWk:_TimeSpan_op_LessThan_m1594498345
_lc:__ZL27GetComponentsImplementationILb0ELi0EEbR10GameObjectbRK17CompareParametersRK39GetComponentsImplementation_ReturnValue
Uom:_ReadOnlyCollection_1_System_Collections_ICollection_get_SyncRoot_m817448888_gshared
PZi:_Transform_1_EndInvoke_m1634731927_gshared
hem:_Collection_1_set_Item_m2355850893_gshared
UDi:_Enumerator_MoveNext_m2790337466_gshared
GKb:__ZN9Scripting36IsSystemCollectionsGenericDictionaryE17ScriptingClassPtr
YRm:_UnityEvent_1_FindMethod_Impl_m322741469_gshared
L5m:_NetworkTransport_ReceiveFromHost_m245759866
H3j:__ZL92ConstructionCallDictionary_t686578562_CustomAttributesCacheGenerator_U3CU3Ef__switchU24map24P21CustomAttributesCache
qpn:__ZL25UnresolvedVirtualCall_391P12Il2CppObjecti24PendingPlayer_t306375494PK10MethodInfo
$qd:__ZN5physx12NpConstraint12actorDeletedEPNS_12PxRigidActorE
LYm:_TextEditor_SelectCurrentWord_m2393978600
wwc:__Z54Register_UnityEngine_Networking_UnityWebRequest_Createv
NLk:__ZL64Slider_t3903728902_CustomAttributesCacheGenerator_m_WholeNumbersP21CustomAttributesCache
rFj:_Enumerator_get_Current_m2591725252
Ghk:__ZL108TouchScreenKeyboard_t731888065_CustomAttributesCacheGenerator_TouchScreenKeyboard_Open_m231964201____secure4P21CustomAttributesCache
Q3:__ZL16ReadTypeTreeImplILb0EEbR8TypeTreeRK16TypeTreeIteratorRPKhS6_i
_Fm:_Interval_Contains_m110351300_AdjustorThunk
qSf:_Convert_ToInt32_m3048308591
rNk:__ZL77LayoutUtility_t2745813735_CustomAttributesCacheGenerator_U3CU3Ef__amU24cache6P21CustomAttributesCache
bTh:_RectMask2D_OnCanvasHierarchyChanged_m3195492255
ZKj:_DateTimeOffset_Equals_m3030958070
K9c:__ZN5physx2Sc8ShapeSim18reinsertBroadPhaseEv
_0a:__ZNK22BuiltinResourceManager21GetResourceInstanceIDEPKN5Unity4TypeERKN4core12basic_stringIcNS4_20StringStorageDefaultIcEEEE
bqc:__Z42Register_UnityEngine_RectOffset_set_bottomv
bhn:_AnalyticsTracker_BuildParameters_m43920649
rAc:__Z28GUIStyleState_CUSTOM_CleanupP12Il2CppObject
JIj:_DateTimeFormatInfo_GetMonthName_m2034512315
eVb:__ZN28LightProbeProxyVolumeContext8CopyFromERKS_
VFb:__ZN18StreamedBinaryReadILb1EE8TransferI13dynamic_arrayI8BitFieldLj4EEEEvRT_PKc17TransferMetaFlags
Wrm:_ReadOnlyCollection_1_System_Collections_Generic_IListU3CTU3E_Insert_m2489506856_gshared
z9:__ZN23TransformChangeDispatch32QueueTransformChangeIfHasChangedER18TransformHierarchy
BEh:_SimpleCollator_ToDashTypeValue_m6184468
EGa:__ZN7ApiGLES18DeleteRenderbufferERj
vdd:__ZN5physx6shdfnd5ArrayIPvNS0_15InlineAllocatorILj256ENS0_19ReflectionAllocatorINS_16NpConnectorArrayEEEEEE15growAndPushBackERKS2_
gFa:__ZL23ProgramUniformMatrix4fvPK7ApiGLESjiihPKv
uRl:_List_1_Add_m3969593257_gshared
Nji:_KeyValuePair_2_get_Value_m925869397_AdjustorThunk
NGa:__ZN7ApiGLES13CreateTextureEjj14GraphicsFormatiiiii
ZEf:_Array_new_gap_m262136975
IPc:__Z10b2DistanceP16b2DistanceOutputP14b2SimplexCachePK15b2DistanceInput
c3d:__ZN5physx14SingleAABBTaskC2Ev
lma:__ZN9ShaderLab20SerializedSubProgram15MatrixParameter8TransferI14SafeBinaryReadEEvRT_
Eln:__ZL25UnresolvedVirtualCall_189P12Il2CppObjectffPK10MethodInfo
amc:__ZL27GetComponentsImplementationILb0ELi1EEbR10GameObjectbRK17CompareParametersRK39GetComponentsImplementation_ReturnValue
m0g:_X509Store__ctor_m275383717
gFh:_SimpleCollator_LastIndexOfOrdinalIgnoreCase_m2984667899
vGe:_Round_Down_To_Grid
hSi:_Transform_1__ctor_m511519073_gshared
zHa:__ZN13RenderTexture7ReleaseEv
rGc:__Z18Transfer_BlittableI8JSONReadLb1EN4math12int3_storageEEvRK29SerializationCommandArgumentsR31RuntimeSerializationCommandInfo
egb:__ZN10MeshFilter23VirtualRedirectTransferER14SafeBinaryRead
SMk:__ZL64LayoutGroup_t2436138090_CustomAttributesCacheGenerator_m_PaddingP21CustomAttributesCache
r0m:_GUIStyle_DrawWithTextSelection_m394506342
_Af:_X509CertificateEnumerator_MoveNext_m2269241175
ogb:__ZN12MeshRenderer17MainThreadCleanupEv
kCn:__ZN6il2cpp2vmL10InitLockedEP11Il2CppClassRKNS_2os12FastAutoLockE
znc:__Z36AsyncOperation_Get_Custom_PropIsDoneP12Il2CppObject
tKa:__ZN22CreateGpuProgramOutput12CreateParamsEv
oM:__ZN10ObjectPoolIN4FMOD7ChannelENS0_8ChannelIEE7GetFreeEi
QGg:__Z96RuntimeInvoker_RuntimeObject_CustomAttributeNamedArgument_t287865710_RuntimeObject_RuntimeObjectPFvvEPK10MethodInfoPvPS4_
akf:_FontData_get_font_m2720086288
Snd:__ZNK5physx18NpArticulationLink11getChildrenEPPNS_18PxArticulationLinkEj
ubh:_InternalEnumerator_1_System_Collections_IEnumerator_get_Current_m548105685_gshared
Cxa:__ZNK14GfxContextGLES13GetDefaultFBOEv
Zzg:__Z99RuntimeInvoker_Void_t1185182177_UILineInfoU5BU5DU26_t2468919161_Int32_t2950945753_Int32_t2950945753PFvvEPK10MethodInfoPvPS4_
xHf:_Byte_System_IConvertible_ToType_m2251112646
kpf:_NetworkManager_get_matchHost_m914043082
W_j:__ZL77RegionInfo_t1090270226_CustomAttributesCacheGenerator_U3CU3Ef__switchU24map1BP21CustomAttributesCache
$qg:__Z81RuntimeInvoker_Char_t3634460470_RuntimeObject_Int32_t2950945753_Int16_t2552820387PFvvEPK10MethodInfoPvPS4_
xbe:__Z15atomIntegrationfPKPN5physx11PxsBodyCoreEPKPNS_12PxsRigidBodyEjPKNS_2Cm13SpatialVectorEPNS_13PxcSolverBodyEPNS_17PxcSolverBodyDataEPS9_RjSH_
gJj:_DateTime_get_Hour_m4153505178_AdjustorThunk
Vrn:_AudioExtensionManager_WriteExtensionProperties_m3028464154
ghj:_Evidence_Equals_m1478353107
wGm:_CostDelegate__ctor_m4027655829
HJd:__ZN5physx13NpRigidStatic11createShapeERKNS_10PxGeometryEPKPNS_10PxMaterialEtNS_7PxFlagsINS_11PxShapeFlag4EnumEhEE
Dhc:__Z13GetImagePixelI10ColorRGBAfET_PKhii13TextureFormat15TextureWrapModeS5_ii
DMl:_List_1_System_Collections_IList_set_Item_m1842844683_gshared
k$j:__ZL91BinaryReader_t2428077293_CustomAttributesCacheGenerator_BinaryReader_ReadUInt64_m4059726988P21CustomAttributesCache
ESm:_EventFunction_1__ctor_m4292798223_gshared
UZn:__ZN6il2cpp2vm6Thread49CheckCurrentThreadForInterruptAndThrowIfNecessaryEv
XQj:_Enum_ToObject_m1136033697
g8:__ZNSt3__23mapIN9ShaderLab16FastPropertyNameEN18UnityPropertySheet11UnityTexEnvENS_4lessIS2_EENS_9allocatorINS_4pairIKS2_S4_EEEEEixERS9_
HFa:__ZNK13TranslateGLES25GetTextureTargetDimensionEj
ksh:_RankException__ctor_m3453633632
RJl:_List_1_AsReadOnly_m4259911973_gshared
xhd:__ZN5physx11NpAggregate22removeActorAndReinsertERNS_7PxActorEb
dAg:__Z96RuntimeInvoker_Void_t1185182177_Vector3U5BU5DU26_t3038522815_Int32_t2950945753_Int32_t2950945753PFvvEPK10MethodInfoPvPS4_
Rjm:_ReadOnlyCollection_1_System_Collections_IList_Remove_m1842121503_gshared
Vie:__ZZL19ExtractHullPolygonsRjRN5physx2Gu9ContainerERKNS0_17ConvexHullBuilderEPS2_S3_EN5Local9FloodFillES3_PKNS0_11AdjTriangleEjPb
_rl:_Dictionary_2_Remove_m2305312133_gshared
y4i:_File_OpenRead_m2936789020
Wsc:__Z47Texture2D_CUSTOM_INTERNAL_CALL_GetPixelBilinearP12Il2CppObjectffR10ColorRGBAf
K7g:_InternalEnumerator_1_System_Collections_IEnumerator_get_Current_m2889979481_gshared
o1:__ZN9Scripting12LogExceptionE21ScriptingExceptionPtriPKcb
Ivl:_DefaultComparer__ctor_m531754450_gshared
YNj:_Decimal_op_Implicit_m3873897383
ikg:__Z94RuntimeInvoker_Void_t1185182177_RuntimeObject_PlayableGraph_t3515989261_RuntimeObject_IntPtr_tPFvvEPK10MethodInfoPvPS4_
Jj:_emscripten_glVertexAttrib4f
Hkh:_InternalEnumerator_1_System_Collections_IEnumerator_Reset_m4072625129_AdjustorThunk
iqa:__ZNSt3__26vectorIN20GpuProgramParameters14ConstantBufferENS_9allocatorIS2_EEE8__appendEj
W0g:_X509CertificateCollection_AddRange_m3683116910
OYm:_TextEditor_SelectToPosition_m2765508349
veh:_InternalEnumerator_1_Dispose_m1837758743_AdjustorThunk
iil:_Dictionary_2_System_Collections_Generic_IDictionaryU3CTKeyU2CTValueU3E_get_Keys_m346371704_gshared
QAn:_CustomEventData_t317522481_marshal_pinvoke_cleanup
j$f:_NetworkClient_OnCRC_m4000482700
azm:_Predicate_1_Invoke_m2315049893_gshared
xp:FUNCTION_TABLE_vf
cNg:_SinkProviderData__ctor_m1624738837
qWb:__ZN11HaloManager21ReleaseGeometryJobMemEP25DynamicVBOGeometryJobData
m4i:_DirectoryNotFoundException__ctor_m1689636868
lpg:__Z87RuntimeInvoker_Boolean_t97287965_NetworkHash128_t2391674535_SpawnDelegateU26_t922908056PFvvEPK10MethodInfoPvPS4_
fkd:__ZN5physx14NpArticulation26setMaxProjectionIterationsEj
f7c:__ZN5physx3Cct15ObstacleContext14removeObstacleEj
jkm:_ReadOnlyCollection_1_System_Collections_Generic_IListU3CTU3E_get_Item_m978644313_gshared
Cfm:_Collection_1_get_Item_m2253972692_gshared
bAh:_RefEmitPermissionSet_t484390987_marshal_pinvoke_cleanup
_th:_CustomAttributeTypedArgument_Equals_m2261980307
Ez:__ZN7mecanim12statemachine24CreateStateMachineMemoryEPKNS0_20StateMachineConstantERNS_6memory9AllocatorE
Uua:__ZN9GfxDevice18SetGlobalDepthBiasEff
QKn:__ZN6il2cpp6icalls8mscorlib6System8MonoType12get_AssemblyEP20Il2CppReflectionType
f6i:_IsolatedStorageException__ctor_m3386787868
vAh:_TypeBuilder_MakeGenericType_m2799607032
Hzl:_Array_InternalArray__ICollection_CopyTo_TisInternalMsg_t2371755407_m1508147863_gshared
X_f:_NetworkConnection_InvokeHandlerNoData_m4224731998
Eum:_ReadOnlyCollection_1_IndexOf_m3669095250_gshared
Xj:_emscripten_glGetPointerv
H0k:_Array_Sort_TisSingle_t1397266774_TisSingle_t1397266774_m1233431437_gshared
gHd:__ZNK5physx15NpActorTemplateINS_14PxRigidDynamicEE13getActorFlagsEv
Yzh:_PropertyBuilder_SetValue_m3164486317
B3k:_Dictionary_2_Do_CopyTo_TisKeyValuePair_2_t3842366416_TisRuntimeObject_m1564656153_gshared
dE:__ZN8Animator22ApplyBuiltinRootMotionEv
p4n:__ZN15dense_hashtableI10KeyWrapperIP18Il2CppGenericClassES3_N6il2cpp8metadata22Il2CppGenericClassHashEN14dense_hash_setIS3_S6_NS3_14EqualsComparerINS5_25Il2CppGenericClassCompareEEENSt3__29allocatorIS3_EEE8IdentityESA_SD_E5clearEv
sNb:__Z26ApplyMaterialPassWithCacheRK18SharedMaterialDataR17ShaderPassContextP6ShaderPN9ShaderLab4PassEibPKNS6_10GrabPassesEPNS6_11SubProgramsEPK22DeviceRenderStateBlock
Zqe:__ZN5physx7profile8ZoneImplINS_28PxProfileNameProviderForwardEE17handleBufferFlushEPKhj
Jdg:__Z55RuntimeInvoker_DateTime_t3738529785_TimeSpan_t881159249PFvvEPK10MethodInfoPvPS4_
bbi:_EqualityComparer_1_get_Default_m3617210716_gshared
u4k:_Dictionary_2_Do_CopyTo_TisDictionaryEntry_t3123975638_TisDictionaryEntry_t3123975638_m1880746376_gshared
uhd:__ZN5physx2Sc5ActorC2ERNS0_16InteractionSceneEhNS0_14IslandNodeInfo4TypeE
zph:_MulticastDelegate_KPM_m22863605
afh:_InternalEnumerator_1_get_Current_m1897120917_AdjustorThunk
Hbj:_MonoType_ReorderParamArrayArguments_m2458683451
CUg:_FormatterConverter_ToInt16_m4282804414
rbg:__Z81RuntimeInvoker_Void_t1185182177_Int64_t3736567304_RuntimeObject_Int64_t3736567304PFvvEPK10MethodInfoPvPS4_
def:_StandaloneInputModule_ProcessTouchPress_m4019232747
t4i:_FileStream__ctor_m3151488352
YEf:_Array_swap_m547389985
x6:__ZN8Renderer23VirtualRedirectTransferER14SafeBinaryRead
KZk:_UInt32_ToString_m2420423038
DHl:_List_1_System_Collections_IList_Add_m634558835_gshared
xum:_ReadOnlyCollection_1_System_Collections_IList_get_IsFixedSize_m1923250479_gshared
_uk:__ZL105CanvasRenderer_t2598313366_CustomAttributesCacheGenerator_CanvasRenderer_set_popMaterialCount_m1224846275P21CustomAttributesCache
Q1i:_Int64_System_IConvertible_ToUInt64_m2815650160
X4i:_FileStream_get_Length_m426703983
CAd:__ZN5physx2Sc9ClothCore16setRestPositionsEPKNS_6PxVec4E
L8k:_Enumerator__ctor_m1558933899_AdjustorThunk
_dk:__ZL88BigInteger_t2902905090_CustomAttributesCacheGenerator_BigInteger_op_Implicit_m3414367033P21CustomAttributesCache
Qge:__ZN5physx2Gu12TriangleMesh4loadERNS_13PxInputStreamE
zYl:_List_1_Remove_m2092085040_gshared
z6b:__ZL13MotionHandleriPK27EmscriptenDeviceMotionEventPv
LK:__ZN12AudioManager5ResetEv
z4f:__Z67RuntimeInvoker_Boolean_t97287965_RuntimeObject_SByteU26_t3619038962PFvvEPK10MethodInfoPvPS4_
E5f:__Z143RuntimeInvoker_Boolean_t97287965_RuntimeObject_Int32_t2950945753_RuntimeObject_SByte_t1669577662_DoubleU26_t1739162597_ExceptionU26_t3600731591PFvvEPK10MethodInfoPvPS4_
Kfc:__ZN15DirectorManager18ScheduleGraphStartERK14HPlayableGraph
bkm:_ReadOnlyCollection_1_get_Count_m1336304542_gshared
zNk:__ZL111LayoutUtility_t2745813735_CustomAttributesCacheGenerator_LayoutUtility_U3CGetPreferredHeightU3Em__6_m3049688934P21CustomAttributesCache
LD:__ZN7mecanim5human14RetargetToTDoFEPKNS0_5HumanEPNS0_9HumanPoseEPNS_8skeleton13SkeletonPoseTIN4math4trsXEEESB_
nyf:_RemovePlayerMessage_Serialize_m3532277549
YSn:__ZNK15dense_hashtableINSt3__24pairIK10KeyWrapperIPK14Il2CppAssemblyEPK22Il2CppMonoAssemblyNameEES6_N6il2cpp5utils11PointerHashIS4_EEN14dense_hash_mapIS6_SA_SF_NS6_14EqualsComparerINS0_8equal_toIS5_EEEENS0_9allocatorISB_EEE9SelectKeyESK_SM_E10test_emptyEj
oao:__ZN6il2cpp6icalls8mscorlib6System11Environment20GetWindowsFolderPathEi
UQf:_Convert_ToBoolean_m2833752130
sy:__ZN7mecanim5human18HumanPoseBlendNodeERNS0_9HumanPoseEPS1_f
EAe:_UNITY_FT_RoundFix
wU:__ZN23CloudWebServicesManager23VirtualRedirectTransferER17RemapPPtrTransfer
$go:_GC_is_heap_ptr
Q$c:__ZNK5physx2Gu15HeightFieldUtil12traceSegmentI24ConvexVsHeightfieldSweepLb0ELb0ELb1EEEvRKNS_6PxVec3ES6_PT_PS5_
yHh:_ASN1_DecodeTLV_m1200977460
ssj:_UnityEventBase_PrepareInvoke_m1785382128
jNl:_List_1__ctor_m2360469168_gshared
Hfe:__ZNK5physx12PxConvexMesh19getConcreteTypeNameEv
_rm:_ReadOnlyCollection_1_System_Collections_Generic_IListU3CTU3E_set_Item_m1584697503_gshared
PAh:__ZN23InterfaceActionInvoker2IP12Il2CppObjectP20Delegate_t1188392813E6InvokeEjP11Il2CppClassS1_S1_S3_
qgb:__ZNK12MeshRenderer22GetTypeVirtualInternalEv
hJf:_Char_System_IConvertible_ToUInt32_m3901815580
nkc:__Z32SetPlayerSettingsRunInBackgroundb
dLi:_Enumerator_get_Current_m1454958684_AdjustorThunk
p0c:__ZN5physx2Gu19gjkLocalPenetrationINS0_9TriangleVENS0_17ShrunkConvexHullVEEEjRKT_RKT0_RKNS_6shdfnd3aos6FloatVERNSB_5Vec3VESG_SG_RSC_PhSI_Rhb
Rdg:__Z157RuntimeInvoker_Int32_t2950945753_RuntimeObject_Int32_t2950945753_Int32_t2950945753_Int32_t2950945753_SByte_t1669577662_SByte_t1669577662_Int32U26_t1369213839PFvvEPK10MethodInfoPvPS4_
n4m:_MatchInfo_get_domain_m3216876147
vWm:_ListPool_1_Release_m957266927_gshared
t4j:__ZL105ConfigHandler_t4192437216_CustomAttributesCacheGenerator_ConfigHandler_ValidatePath_m3895556516____paths1P21CustomAttributesCache
rN:__ZN4FMOD6System17setSoftwareFormatEi17FMOD_SOUND_FORMATii18FMOD_DSP_RESAMPLER
XBm:_AuthorityKeyIdentifierExtension_get_Identifier_m548598067
tvl:_DefaultComparer__ctor_m2235988452_gshared
Y1c:__ZN5physx2Gu15GJKLocalRayCastERNS0_9TriangleVERNS0_4BoxVERKNS_6shdfnd3aos6FloatVERKNS6_5Vec3VESC_RS7_RSA_SE_fb
fje:__ZN5physx18AdjacenciesBuilderC2Ev
I9c:__ZN5physx2Sc13ShapeIterator4initERKNS0_8ActorSimE
Oka:__ZN14SafeBinaryRead19TransferSTLStyleMapINSt3__23mapIN4core12basic_stringIcNS3_20StringStorageDefaultIcEEEES7_NS1_4lessIS7_EE13stl_allocatorINS1_4pairIKS7_S7_EEL18MemLabelIdentifier1ELi16EEEEEEvRT_17TransferMetaFlags
FPe:__ZN2UI6Canvas27UpdateEventIndexesRecursiveERi
qV:__ZN11UnityEngine15CloudWebService16SessionContainer21PrepareDataErrorEventERN4core12basic_stringIcNS2_20StringStorageDefaultIcEEEE
ubf:_ExecuteEvents_get_pointerUpHandler_m3515704212
cKf:_ArrayList_set_Item_m2003485935
dbo:__ZNSt3__218uninitialized_copyIPNS_4pairIK10KeyWrapperIPK19Il2CppGenericMethodEP10MethodInfoEESB_EET0_T_SD_SC_
nKg:_SatelliteContractVersionAttribute__ctor_m3630863995
Gak:__ZL79Convert_t2465617642_CustomAttributesCacheGenerator_Convert_ToUInt64_m3102114524P21CustomAttributesCache
mdf:_MouseButtonEventData_PressedThisFrame_m1060658845
X8e:_AxisEventData_get_moveVector_m270528189
pDb:__Z19TransferField_ArrayI19StreamedBinaryWriteILb0EE27Converter_SimpleNativeClassI8GUIStyleEEvRK23StaticTransferFieldInfoR31RuntimeSerializationCommandInfoRT0_
ikm:_ReadOnlyCollection_1_System_Collections_Generic_IListU3CTU3E_RemoveAt_m3969985996_gshared
Obn:_SymmetricTransform_CFB_m1755507252
Dvd:__ZN5physx14NpArticulationC2Ev
xfn:_UnityWebRequest_SetUploadHandler_m2465141380
jul:_DefaultComparer_Equals_m3970343537_gshared
cbb:__ZNK13ScreenManager12GetIsFocusedEv
Ego:_maybe_finalize
Xlf:_GraphicRegistry_GetGraphicsForCanvas_m4219276355
W5i:__ZN23InterfaceActionInvoker3IP22ByteU5BU5D_t4116647657iiE6InvokeEjP11Il2CppClassP12Il2CppObjectS1_ii
Uph:_NumberFormatter_FastToDecHex_m699829267
fGc:__Z35Transfer_Blittable_FixedBufferFieldI8JSONReadiEvRK29SerializationCommandArgumentsR31RuntimeSerializationCommandInfo
Uoa:__ZN15SerializeTraitsIN9ShaderLab16FastPropertyNameEE8TransferI19StreamedBinaryWriteILb0EEEEvRS1_RT_
_Xi:__ZN23GenericVirtFuncInvoker1I27DictionaryEntry_t312397563834NetworkBroadcastResult_t2174414888E6InvokeEPK10MethodInfoP12Il2CppObjectS1_
a5j:__ZL59StreamingContext_t3711869237_CustomAttributesCacheGeneratorP21CustomAttributesCache
JJn:__ZNSt3__213__vector_baseIN6il2cpp2os19SocketHandleWrapperENS_9allocatorIS3_EEED2Ev
Oji:_KeyValuePair_2_set_Value_m159686920_AdjustorThunk
Ipf:_NetworkServer_set_useWebSockets_m2013369192
IYj:__ZL48_Type_t3588564251_CustomAttributesCacheGeneratorP21CustomAttributesCache
iJk:__ZL81FontUpdateTracker_t1839077620_CustomAttributesCacheGenerator_U3CU3Ef__mgU24cache0P21CustomAttributesCache
Qc:invoke_viiffi
__j:__ZL103RegionInfo_t1090270226_CustomAttributesCacheGenerator_RegionInfo_t1090270226____NativeName_PropertyInfoP21CustomAttributesCache
j4b:__ZN13sorted_vectorINSt3__24pairIN4core12basic_stringIcNS2_20StringStorageDefaultIcEEEEPK17MessageIdentifierEEN10vector_mapIS6_S9_NS0_4lessIS6_EENS0_9allocatorISA_EEE13value_compareESF_E10insert_oneERKSA_
Dof:_NetworkManager_get_sendPeerInfo_m794301038
cE:__ZNSt3__227__insertion_sort_incompleteIRPFbPKN8Animator11AnimatorJobES4_EPS4_EEbT0_S9_T_
bV:__ZNSt3__26__treeINS_12__value_typeIN4core12basic_stringIcNS2_20StringStorageDefaultIcEEEEjEENS_19__map_value_compareIS6_S7_NS_4lessIS6_EELb1EEE13stl_allocatorIS7_L18MemLabelIdentifier88ELi16EEE4findIS6_EENS_15__tree_iteratorIS7_PNS_11__tree_nodeIS7_PvEEiEERKT_
Qll:_Dictionary_2__ctor_m244146876_gshared
gKg:_ResourceSet_ReadResources_m3663669011
avj:_Mathf_CeilToInt_m432108984
v6a:__ZNK12CubemapArray20GetRuntimeMemorySizeEv
oGk:__ZL77ExecuteEvents_t3484638744_CustomAttributesCacheGenerator_U3CU3Ef__mgU24cacheDP21CustomAttributesCache
ULa:__ZN9GfxDevice5FlushEv
jna:__Z14resize_trimmedINSt3__26vectorIN9ShaderLab18SerializedPropertyENS0_9allocatorIS3_EEEEEvRT_j
hyb:__Z18Transfer_BlittableI17RemapPPtrTransferLb0EN4math12int3_storageEEvRK29SerializationCommandArgumentsR31RuntimeSerializationCommandInfo
QMd:__ZN5physx6shdfnd8PoolBaseINS_2Sc9ActorPairENS0_19ReflectionAllocatorIS3_EEE12allocateSlabEv
xHn:__ZN6il2cpp2vm13MetadataCache38GetMethodInfoFromMethodDefinitionIndexEi
faf:_EventSystem_set_current_m38955169
pek:__ZL74X509Crl_t1148767388_CustomAttributesCacheGenerator_U3CU3Ef__switchU24map13P21CustomAttributesCache
pLk:__ZL53Selectable_t3250028441_CustomAttributesCacheGeneratorP21CustomAttributesCache
yGm:_CostDelegate_EndInvoke_m2797921932
acb:__ZN10VertexData8TransferI24GenerateTypeTreeTransferEEvRT_
p$f:_NetworkClient_RegisterHandler_m3216283282
OPj:_Double_IsInfinity_m820013146
sGf:__ZN21InterfaceFuncInvoker1I19Decimal_t2948259380P12Il2CppObjectE6InvokeEjP11Il2CppClassS2_S2_
Kao:__ZN13Il2CppHashMapIPK19Il2CppGenericMethodP10MethodInfoN6il2cpp8metadata23Il2CppGenericMethodHashENS6_26Il2CppGenericMethodCompareENSt3__29allocatorINS9_4pairIK10KeyWrapperIS2_ES4_EEEEEC2EjRKS7_RKS8_
qHl:_List_1_TrimExcess_m440552561_gshared
DCj:_Screen_get_dpi_m495672463
oSk:_UTF8Encoding_InternalGetByteCount_m2120178851
Quf:_NetworkScene_DumpAllClientObjects_m493450325
pGj:_Vector3__ctor_m1719387948
b$b:__ZL10CullLightsRK22SceneCullingParametersR11CullResults
mkm:_ReadOnlyCollection_1_System_Collections_ICollection_CopyTo_m1705891372_gshared
WTf:_Convert_ToUInt64_m3170916409
zz:__ZN7mecanim12statemachine20GetBlendTreeConstantERKNS0_13StateConstantEi
TNd:__ZN5physx7NpScene21setDominanceGroupPairEhhRKNS_20PxDominanceGroupPairE
B1i:_Int64_System_IConvertible_ToInt16_m4062196970_AdjustorThunk
bcj:_MonoType_GetGenericTypeDefinition_m3201894896
N7b:__Z40GetTemporaryCachePathApplicationSpecificv
_sa:__ZN9GfxDevice16EndAsyncJobFrameEv
asg:__Z99RuntimeInvoker_Int32_t2950945753_Ray_t3785851493_RuntimeObject_Single_t1397266774_Int32_t2950945753PFvvEPK10MethodInfoPvPS4_
tRn:__ZNK15dense_hashtableINSt3__24pairIK10KeyWrapperINS1_IPK12PropertyInfoP11Il2CppClassEEEjEES9_17ReflectionMapHashIS8_EN14dense_hash_mapIS9_jSD_NS9_14EqualsComparerINS0_8equal_toIS8_EEEENS0_9allocatorISB_EEE9SelectKeyESI_SK_E10test_emptyERK30dense_hashtable_const_iteratorISB_S9_SD_SM_SI_SK_E
uDe:_UNITY_tt_face_load_hhea
u8f:__Z58RuntimeInvoker_RSAParameters_t1728406613_SByte_t1669577662PFvvEPK10MethodInfoPvPS4_
Xl:___syscall3
JFd:__ZNK5physx15NpActorTemplateINS_16PxParticleSystemEE7getNameEv
fmg:__Z135RuntimeInvoker_RaycastHit2D_t2279581989_Vector2_t2156229523_Vector2_t2156229523_Single_t1397266774_Int32_t2950945753_Single_t1397266774PFvvEPK10MethodInfoPvPS4_
_l:___syscall6
vua:__ZN9GfxDevice15GetNextCPUFenceEv
am:___syscall4
F7d:__ZN5physx2Cm12DelegateTaskINS_2Sc5SceneEXadL_ZNS3_10broadPhaseEPNS_10PxBaseTaskEEEE11runInternalEv
ySg:_ReturnMessage__ctor_m2352989078
Knl:_Dictionary_2_System_Collections_Generic_IDictionaryU3CTKeyU2CTValueU3E_get_Keys_m5387427_gshared
ptb:__ZNSt3__26__treeINS_12__value_typeIN4core12basic_stringIcNS2_20StringStorageDefaultIcEEEEPN16MemoryFileSystem4NodeEEENS_19__map_value_compareIS6_SA_NS_4lessIS6_EELb1EEE13stl_allocatorISA_L18MemLabelIdentifier55ELi16EEE7destroyEPNS_11__tree_nodeISA_PvEE
eXj:__ZL70RuntimeArray_CustomAttributesCacheGenerator_Array_get_Length_m21610649P21CustomAttributesCache
n6n:__ZN6il2cpp2vm3RCW14QueryInterfaceILb1EEEP14Il2CppIUnknownP15Il2CppComObjectRK10Il2CppGuid
p4h:_TlsServerCertificateRequest__ctor_m1334974076
eQc:__ZNSt3__26__sortIR24RayHitsByDepthComparitorP12RaycastHit2DEEvT0_S5_T_
wJc:__ZN27PerformanceReportingManager23VirtualRedirectTransferER14SafeBinaryRead
USl:_List_1_get_Capacity_m4007721935_gshared
EFi:_Enumerator__ctor_m3475017407_gshared
sSf:_Convert_ToInt32_m1613163543
TAg:__Z52RuntimeInvoker_TimeSpan_t881159249_Int32_t2950945753PFvvEPK10MethodInfoPvPS4_
ERh:_MatEntry__ctor_m1949610076
Kjm:_ReadOnlyCollection_1_System_Collections_ICollection_CopyTo_m3127175806_gshared
qm:_emscripten_glShaderBinary
Xgj:_String_op_Inequality_m215368492
DW:__ZN15DownloadHandler19OnFinishReceiveDataEv
OYk:_UInt16_ToString_m760649087
msb:__ZNK20LocalFileSystemPosix6ExistsERK13FileEntryData
iCj:_Resources_FindObjectsOfTypeAll_m3764733868
teg:__Z21RuntimeInvoker_Guid_tPFvvEPK10MethodInfoPvPS4_
Qgg:__Z46RuntimeInvoker_CipherAlgorithmType_t1174400495PFvvEPK10MethodInfoPvPS4_
Afd:__ZN5physx35NpArticulationJointGetBodiesFromScbERNS_3Scb17ArticulationJointERPNS0_4BodyES5_
wKi:_Enumerator_get_Current_m4022253458_AdjustorThunk
bfe:__ZNK5physx2Sc15ClothFabricCore16getTetherLengthsEPfj
Joj:_Camera_GetAllCameras_m668492922
Itk:__ZL109Physics_t2310948930_CustomAttributesCacheGenerator_Physics_RaycastAll_m3084184534____queryTriggerInteraction4P21CustomAttributesCache
bTe:__Z58Register_UnityEngine_Canvas_GetETC1SupportedCanvasMaterialv
dWk:_TimeSpan_op_Inequality_m2467851530
Qof:_NetworkManager_set_offlineScene_m1806168520
OFb:__ZN17AnimationCurveTplIfE8TransferI18StreamedBinaryReadILb1EEEEvRT_
aRg:__ZN28GenericInterfaceFuncInvoker1IP12Il2CppObjectP23HeaderU5BU5D_t204812840E6InvokeEPK10MethodInfoS1_S3_
B1k:_Array_Sort_TisUIVertex_t4057497605_m3996333845_gshared
Y4h:_Context_get_ReceivedConnectionEnd_m4011125537
ifj:_ToBase64Transform_get_CanReuseTransform_m702204640
oZ:__Z17DebugStringToFilePKciS0_i15LogMessageFlagsiiPFvRK11CppLogEntryE
Fjg:__Z53RuntimeInvoker_PropertyName_t3749835189_RuntimeObjectPFvvEPK10MethodInfoPvPS4_
j4e:_SByte_System_IConvertible_ToDouble_m2381680501
qFf:_Swapper_BeginInvoke_m1688449973
Yqj:_Display_get_renderingWidth_m1970428952
ISd:__ZN5physx2Sc13ConstraintSim8getForceERNS_6PxVec3ES3_
GQm:_UnityAction_1_Invoke_m927447181_gshared
xBj:__ZN30GenericInterfaceActionInvoker1IP25RectTransform_t3704657025E6InvokeEPK10MethodInfoP12Il2CppObjectS1_
itk:__ZL78Physics_t2310948930_CustomAttributesCacheGenerator_Physics_Raycast_m4145022031P21CustomAttributesCache
hTa:__ZN16LevelGameManager23VirtualRedirectTransferER19StreamedBinaryWriteILb0EE
Ugg:__Z81RuntimeInvoker_Void_t1185182177_RuntimeObject_Int32_t2950945753_Int64_t3736567304PFvvEPK10MethodInfoPvPS4_
Xbb:__Z32TransferEnumWithNameForceIntSizeI14SafeBinaryRead16GfxPrimitiveTypeEvRT_RT0_PKc17TransferMetaFlags
O3:__ZN13dynamic_arrayIcLj1EE6insertEPcPKcS3_
ikn:__ZL25UnresolvedVirtualCall_113P12Il2CppObjecttaaPK10MethodInfo
Dlk:__ZL92Mesh_t3648964284_CustomAttributesCacheGenerator_Mesh_SetTriangles_m2205169959____baseVertex3P21CustomAttributesCache
bxg:__Z52RuntimeInvoker_Int32_t2950945753_HitInfo_t3229609740PFvvEPK10MethodInfoPvPS4_
Vbg:__Z86RuntimeInvoker_Boolean_t97287965_Int16_t2552820387_Int16_t2552820387_Int32_t2950945753PFvvEPK10MethodInfoPvPS4_
c9j:__ZL80Convert_t2465617642_CustomAttributesCacheGenerator_Convert_ToBoolean_m2807110707P21CustomAttributesCache
EXc:__ZN5physx15PxGeometryQuery18computePenetrationERNS_6PxVec3ERfRKNS_10PxGeometryERKNS_11PxTransformES6_S9_
OVm:_IndexedSet_1_IndexOf_m241693686_gshared
khm:_Collection_1_System_Collections_IList_Add_m1802516464_gshared
zWe:__ZN11UnityEngine15PlatformWrapper30GetGraphicsDriverLibraryStringEv
S3e:_RuntimeMethodHandle_Equals_m3301340296_AdjustorThunk
g_k:_UInt64_System_IConvertible_ToSingle_m925613075_AdjustorThunk
Kve:__ZN5Unity12PhysicsQueryC2Ev
Rin:__ZL24UnresolvedVirtualCall_40P12Il2CppObjectS0_PK10MethodInfo
QWm:_ListPool_1__cctor_m704263611_gshared
iHb:__Z18Transfer_BlittableI18StreamedBinaryReadILb0EELb0E4AABBEvRK29SerializationCommandArgumentsR31RuntimeSerializationCommandInfo
slb:__ZN24GenerateTypeTreeTransfer19TransferSTLStyleMapINSt3__28multimapIN4core12basic_stringIcNS3_20StringStorageDefaultIcEEEE4PPtrI6ObjectENS1_4lessIS7_EE13stl_allocatorINS1_4pairIKS7_SA_EEL18MemLabelIdentifier52ELi16EEEEEEvRT_17TransferMetaFlags
OF:__ZN16MecanimAnimation24DeleteAnimatedPropertiesERP26IAnimatedPropertyEvaluator
pvf:_NetworkServerSimple_get_useWebSockets_m4205569014
j6m:_UNETWebSocketLib_JS_UNETWebSockets_SocketRecvEvntBuffFromHost_m1734420795
kvn:_CanvasRenderer_SetMaterial_m824577244
LRb:__Z14DrawGUITextureRK5RectTIfEP7Texture11ColorRGBA32P8Materiali
gVf:_ClientScene_GetPlayerController_m3573385601
ekm:_ReadOnlyCollection_1_System_Collections_Generic_ICollectionU3CTU3E_Add_m2686599243_gshared
QC:__ZN9BlobWrite8TransferI22OffsetPtrArrayTransferIKN4math7_float4EEEEvRT_PKc17TransferMetaFlags
ySb:__ZN22RenderingCommandBuffer20ExecuteCommandBufferER17ShaderPassContextR15RenderNodeQueuejP13dynamic_arrayINSt3__24pairIN9ShaderLab16FastPropertyNameEP13RenderTextureEELj4EE16ComputeQueueTypeSA_
nFj:_Transform_IsChildOf_m224006092
oPc:__ZNK11b2EdgeShape7RayCastEP15b2RayCastOutputRK14b2RayCastInputRK11b2Transformi
QFc:__ZN9JSONWrite8TransferI4AABBEEvRT_PKc17TransferMetaFlags
wRa:__ZN25MultiBlocksMemoryFileData9SetLengthEy
Uxg:__Z58RuntimeInvoker_Void_t1185182177_ContactPoint2D_t3390240644PFvvEPK10MethodInfoPvPS4_
Zsf:_NetworkMigrationManager_get_pendingPlayers_m3256219290
ijn:__ZL24UnresolvedVirtualCall_59P12Il2CppObjectiPK10MethodInfo
S8e:_AbstractEventData_get_used_m2991176710
Cdh:_InternalEnumerator_1_get_Current_m3191242573_AdjustorThunk
N5m:_NetworkTransport_RemoveHost_m1576069304
ksg:__Z94RuntimeInvoker_Void_t1185182177_ObjectU5BU5DU26_t712384779_Int32_t2950945753_Int32_t2950945753PFvvEPK10MethodInfoPvPS4_
ice:__ZNK18ScBeforeSolverTask7getNameEv
Ovk:__ZL100CreateMatchRequest_t2600446299_CustomAttributesCacheGenerator_CreateMatchRequest_set_name_m701411379P21CustomAttributesCache
w3k:_Dictionary_2_Do_ICollectionCopyTo_TisRuntimeObject_m1855083806_gshared
hcn:_Aes__ctor_m178909601
y7a:__ZNK9Texture2D20GetRuntimeMemorySizeEv
Guc:__ZN11Marshalling39CreateNullExceptionForUnityEngineObjectE18ScriptingObjectPtr
s$d:__ZN5physx14solve1D4_BlockEPKNS_23PxcSolverConstraintDescEjRNS_16PxcSolverContextE
WBc:__ZN5Unity9rapidjson13GenericReaderINS0_4UTF8IcEES3_13JSONAllocatorE9ParseTrueILj0ENS0_19GenericStringStreamIS3_EENS0_15GenericDocumentIS3_S4_S4_EEEEvRT0_RT1_
Lsf:_NetworkMigrationManager_get_offsetY_m467654897
Bn:_emscripten_glUniform2iv
E2h:_CipherSuite_get_Context_m1621551997
qln:__ZL25UnresolvedVirtualCall_175P12Il2CppObjectaaPK10MethodInfo
bYc:__ZL33GeomMTDCallback_ConvexHeightFieldRN5physx6PxVec3ERfRKNS_10PxGeometryERKNS_11PxTransformES5_S8_
L0k:_Array_Sort_TisUInt32_t2560061978_m443814347_gshared
mRk:_UnicodeEncoding_CopyChars_m785272451
Yei:_Enumerator_Dispose_m1204547613_AdjustorThunk
$xe:_UNITY_FT_Outline_Transform
Qsc:__Z60Register_UnityEngine_Sprites_DataUtility_Internal_GetMinSizev
NCn:__ZN6il2cpp2vm5Class10GetMethodsEP11Il2CppClassPPv
S_e:__ZNK25UnityWebRequestJavaScript17GetUploadProgressEv
$Wb:__Z30AddDefaultStreamsToMeshBuffersR9GfxDeviceR11MeshBuffersRK16DrawBuffersRange17ShaderChannelMaskS6_
CJl:_List_1_System_Collections_IList_Remove_m1713719047_gshared
SFa:__ZN7ApiGLES17DeleteFramebufferERN2gl6HandleILNS0_10ObjectTypeE9EEES3_
vJa:__ZN15UniformTFMethod13MapBoneBufferEj
AOe:__ZN2UI14CanvasRendererD2Ev
YDi:_Enumerator_get_CurrentValue_m2316996702_AdjustorThunk
Hcn:_Array_InternalArray__get_Item_TisParameterModifier_t1461694466_m29553316_gshared
GPi:_KeyCollection_System_Collections_Generic_ICollectionU3CTKeyU3E_Contains_m620087567_gshared
T1i:_Int64_CompareTo_m1928360444_AdjustorThunk
y4d:__ZN5physx26PxcPCMContactCapsuleConvexERKNS_2Gu13GeometryUnionES3_RKNS_11PxTransformES6_RKfRNS_10PxcNpCacheERNS0_13ContactBufferE
bgl:_Dictionary_2_OnDeserialization_m51881213_gshared
qMb:__Z9SetupArgviPPKc
JSf:_Convert_ToInt64_m2075031821
_nb:__ZN13dynamic_arrayIP10UnitySceneLj4EE9push_backERKS1_
Rch:_InternalEnumerator_1__ctor_m236665673_gshared
Tnn:__ZL25UnresolvedVirtualCall_312P12Il2CppObjectPK10MethodInfo
aUg:_RemotingException__ctor_m1015537352
IUk:_Scheduler__cctor_m4042462055
xxe:__Z57Register_UnityEngine_Rigidbody_INTERNAL_CALL_MoveRotationv
Ign:_AnalyticsEventTracker_OnDisable_m1553012800
fAo:_glTexParameteri__wrapper
yid:__ZN5physx10PxsContext17addParticleSystemEPNS_15PxsParticleDataERKNS_26PxvParticleSystemParameterEb
ugd:__ZN5physx3Scb5Scene13addRigidNoSimINS0_4BodyELb1ELb1EEEvRT_RNS0_13ObjectTrackerE
g6:__ZN12ImmediatePtrI10GameObjectE8TransferI19StreamedBinaryWriteILb0EEEEvRT_
hrf:_NetworkMigrationManager_DisablePlayerObjects_m3591855183
z6a:__ZN12CubemapArray23VirtualRedirectTransferER24GenerateTypeTreeTransfer
u4:__ZN12FileAccessor4OpenER15FileSystemEntry14FilePermission16FileAutoBehavior
xYa:__ZNSt3__26vectorI4PPtrI6ShaderE13stl_allocatorIS3_L18MemLabelIdentifier53ELi16EEE8__appendEj
kMi:_KeyCollection_System_Collections_Generic_ICollectionU3CTKeyU3E_Add_m220590786_gshared
Z9l:_Collection_1_CheckWritable_m1738605516_gshared
$na:__ZN4PPtrI6ShaderE8TransferI18StreamedBinaryReadILb0EEEEvRT_
o1c:__ZL19sweepBoxVsTrianglesjPKN5physx10PxTriangleERKNS_2Gu3BoxERKNS_6PxVec3EfRNS_10PxSweepHitENS_7PxFlagsINS_9PxHitFlag4EnumEtEEbPKj
y9:__ZN23TransformChangeDispatch32QueueTransformChangeIfHasChangedERK15TransformAccess
Huf:_NetworkScene_GetPrefab_m2921173923
_te:_PxCreateCooking
Dqe:__ZN9Rigidbody18AddForceAtPositionERK8Vector3fS2_i
fRa:__ZN15ArchiveReadFile5WriteEyPKvPy
ush:_Assembly_get_FullName_m293988418
oVc:__ZN22WorldContactListener2D8PreSolveEP9b2ContactPK10b2Manifold
lkc:__Z15WeldVertexArrayR13dynamic_arrayI8Vector3fLj4EERS_I12BoneWeights4Lj4EERS_IjLj4EES7_
mdm:_Collection_1_Contains_m3897407943_gshared
UGi:_Enumerator_System_Collections_IDictionaryEnumerator_get_Value_m711713608_AdjustorThunk
qli:_Enumerator_Dispose_m2633022274_AdjustorThunk
jNm:__ZN28GenericInterfaceFuncInvoker1Ib19Color32_t2600501292E6InvokeEPK10MethodInfoP12Il2CppObjectS0_
B:tempValue
L5b:__Z29StdTemplateConversionFunctionIaiEbPvR14SafeBinaryRead
Qko:__ZN6il2cpp8metadata24Il2CppGenericContextHash4HashEPK20Il2CppGenericContext
idh:_InternalEnumerator_1_get_Current_m356936020_AdjustorThunk
Hfm:_Collection_1_CheckWritable_m1583234367_gshared
g1i:_Int32_ToString_m141394615_AdjustorThunk
W1:__Z29scripting_class_from_fullnamePKcS0_S0_
S3i:_Directory_GetCurrentDirectory_m219218555
bFj:_Transform_TransformDirection_m3784028109
HBf:_SmallXmlParser_UnexpectedEndError_m1914362401
Yz:__ZN26AnimatorControllerPlayable18DeallocateBindingsEv
H4j:__ZL61FormatterTypeStyle_t3400733584_CustomAttributesCacheGeneratorP21CustomAttributesCache
kYc:__ZN5physx2Gu29ConvexVsMeshContactGeneration20generateLastContactsEv
sZf:_NetworkBehaviour_DumpInvokers_m1136127271
gdd:__ZNK5physx2Gu22SupportMapRelativeImplINS0_4BoxVEE14doSupportSweepERKNS_6shdfnd3aos5Vec3VE
Jya:__ZN14DelayedDeletorI15dense_hashtableINSt3__24pairIK9TextureIDiEES3_14GfxGenericHashIS3_EN14GfxDoubleCacheIS3_iS7_NS1_8equal_toIS3_EEN31GfxDoubleCacheConcurrencyPolicy11LocklessGetE42GfxDoubleCacheDefaultEmptyDeletedGeneratorIS3_EE9SelectKeyESA_13stl_allocatorIS5_L18MemLabelIdentifier24ELi16EEEEclEv
uQ:__ZN11AudioSource19CreateOpenALRolloffEfff
oDe:_UNITY_FT_Stream_ReadAt
DDd:__ZN5physx2Sc17ParticleSystemSim16getParticleStateEv
syn:_Physics_Raycast_m3336206959
obe:__ZN5physx6shdfnd5ArrayINS_25PxsCompoundContactManagerENS0_19ReflectionAllocatorIS2_EEE8recreateEj
cVk:_TimeSpan__ctor_m1896986612_AdjustorThunk
C9g:_InternalEnumerator_1_System_Collections_IEnumerator_get_Current_m163624543_gshared
aAf:_ArgumentException__ctor_m1216717135
zzj:_Ray_ToString_m1732834890_AdjustorThunk
de:_glReadBuffer
tMl:_List_1_System_Collections_IList_Contains_m3860993176_gshared
k2d:__ZN5physx14PxsAABBManagerC2ERNS_2Cm13EventProfilerERNS_19PxcScratchAllocatorE
iR:__ZN11AudioModule22CreateAudioClipFromWWWEP10IWWWStreamPKcbbi
Wbc:__ZN9Texture2DC2E10MemLabelId18ObjectCreationMode
ECk:__ZL68NetworkIdentity_t3299519057_CustomAttributesCacheGenerator_m_SceneIdP21CustomAttributesCache
duf:_NetworkReader_ReadChar_m2156581851
Sj:_emscripten_glRotatef
SYk:_UInt32_System_IConvertible_ToBoolean_m1763673183_AdjustorThunk
msj:_UnityEvent_AddListener_m2276267359
GQe:__Z13RegisterClassIN2UI11CanvasGroupEEvv
Rhg:__Z35RuntimeInvoker_RangeInt_t2094684618PFvvEPK10MethodInfoPvPS4_
gYm:_GUIStyle_Draw_m810654952
U7b:__ZN6prcoreL11inner_clearILj4EEEvPhjjj
ig:_emscripten_glClear
Vtk:__ZL102Rigidbody_t3916780224_CustomAttributesCacheGenerator_Rigidbody_INTERNAL_get_angularVelocity_m526824782P21CustomAttributesCache
ARg:_MethodCall_get_Args_m148309537
bSg:_DictionaryEnumerator_get_Value_m2166220004
rrn:_PCMReaderCallback_BeginInvoke_m3391809637
pbk:__ZL72LoaderOptimization_t1484956347_CustomAttributesCacheGenerator_DomainMaskP21CustomAttributesCache
s6f:__Z74RuntimeInvoker_Void_t1185182177_RuntimeObject_StreamingContext_t3711869237PFvvEPK10MethodInfoPvPS4_
Uyj:_Quaternion_Euler_m3049309462
rhn:_TriggerRule__ctor_m225466603
oha:__ZNK8Playable6HandleEv
zMh:_SetPropertyUtility_SetColor_m2229203028
xqo:___cxa_guard_abort
tDi:_Enumerator_MoveNext_m481679286_gshared
dYb:__Z30SetupBakedOcclusionForGeometrybRK26SharedLightmapSettingsDataRK15LightmapIndicesR17ShaderPassContext
A2:__ZN14MessageHandler28MessageIDToMessageIdentifierEi
d3k:_Dictionary_2_Do_ICollectionCopyTo_TisRuntimeObject_m3233307772_gshared
wcb:__ZNK11SpriteAtlas20GetRuntimeRenderDataEPK6Sprite
I3i:_FileSystemInfo__ctor_m3035148496
ibm:_Collection_1_IndexOf_m283113736_gshared
fnj:_AssetBundleCreateRequest_t3119663542_marshal_pinvoke_cleanup
y0i:_Int32_System_IConvertible_ToDecimal_m2190376994_AdjustorThunk
phi:_KeyValuePair_2_set_Key_m2121548577_AdjustorThunk
Jjg:__Z57RuntimeInvoker_PropertyName_t3749835189_Int32_t2950945753PFvvEPK10MethodInfoPvPS4_
RKe:__ZN20TextRenderingPrivate15DynamicFontData36GetFaceForCharacterIfAvailableInFontERKNS_7FontRefERK13dynamic_arrayI4PPtrIN13TextRendering4FontEELj4EEj
Wx:__ZN7mecanim14ValueArrayCopyILb0EEEvPKNS_10ValueArrayEPS1_
Zlh:_DefaultComparer__ctor_m516312884_gshared
VH:__Z51Register_UnityEngine_Animator_get_hasBoundPlayablesv
W3l:_Collection_1_CopyTo_m3142835220_gshared
we:emscriptenWebGLGetUniform
gq:FUNCTION_TABLE_iiiiiiiiiii
jtj:_GL_Begin_m1290681325
M_m:_GUI_CallWindowDelegate_m3309453386
pcl:_ValueCollection_System_Collections_IEnumerable_GetEnumerator_m2535969909_gshared
HBe:_cff_set_mm_blend
kId:__ZN5physx14NpRigidDynamic6wakeUpEv
LZd:__ZN5physx2Gu29EPASupportMapPairRelativeImplINS0_9TriangleVENS0_11ConvexHullVEED0Ev
M2a:__Z32TransferEnumWithNameForceIntSizeI14SafeBinaryRead13TextureFormatEvRT_RT0_PKc17TransferMetaFlags
A9k:_Enumerator_MoveNext_m2816205106_gshared
K0b:__ZL10CleanUpJobP20CullingGroupsJobData
_Wb:__Z20IsRunningNativeTestsv
D3i:_DirectoryInfo_get_Exists_m3142069876
Tib:__ZN11TimeManager23VirtualRedirectTransferER17RemapPPtrTransfer
wwl:_DefaultComparer__ctor_m907529085_gshared
Afe:__ZN5physx13BigConvexData4LoadERNS_13PxInputStreamE
CRb:__ZN13RenderManager15BatchModeUpdateEv
Pqi:_Array_InternalArray__ICollection_Contains_TisKeyValuePair_2_t4237331251_m138928983_gshared
yBi:_Enumerator_VerifyState_m1545185457_AdjustorThunk
j0g:_X509Chain_get_CertificateAuthorities_m804805415
Gbb:__ZN14SafeBinaryRead21TransferSTLStyleArrayI13dynamic_arrayI8Vector2fLj4EEEEvRT_17TransferMetaFlags
xfi:_HashSet_1__ctor_m1140330013_gshared
W$j:__ZL123GenericTypeParameterBuilder_t1988827940_CustomAttributesCacheGenerator_GenericTypeParameterBuilder_IsSubclassOf_m2266644074P21CustomAttributesCache
j6:__ZN17PersistentManager51InstanceIDToLocalSerializedObjectIdentifierInternalEiR31LocalSerializedObjectIdentifier
FBj:_Vector2_get_one_m738793577
ZSc:__ZN10ClipperLib7Clipper15SetWindingCountERNS_5TEdgeE
Fhc:__ZNK4Mesh14GetIndexFormatEv
cGj:_Vector2_get_magnitude_m2752892833_AdjustorThunk
zei:_GenericEqualityComparer_1__ctor_m4072188982_gshared
D8m:__ZN21InterfaceFuncInvoker2IP22GameObject_t111363661919Vector3_t372231346426NetworkHash128_t2391674535E6InvokeEjP11Il2CppClassP12Il2CppObjectS2_S3_
Dpd:__ZN5physx2Sc8ActorSim24postDominanceGroupChangeEv
Tyc:__ZN8GUIState12GetControlIDEi9FocusType
F5n:__ZN14dense_hash_mapI10KeyWrapperIP12Il2CppObjectEN6il2cpp2gc9CachedCCWENS4_5utils11PointerHashIS1_EENS3_14EqualsComparerINSt3__28equal_toIS2_EEEENSB_9allocatorINSB_4pairIKS3_S6_EEEEE13set_empty_keyERSH_
Tfl:_Dictionary_2_CopyToCheck_m401576744_gshared
Mhn:_FieldWithTarget__ctor_m583221563
Oe:_glVertexAttribIPointer
ztj:_Input_GetAxisRaw_m2316819917
jFa:__ZN13dynamic_arrayI21ComputeShaderResourceLj4EE9push_backERKS0_
kPg:_Context_AllocateNamedDataSlot_m103537862
aic:__ZNK6Sprite10GetPaddingE20SpriteRenderDataMode
vqd:__ZN5physx2Cm8PtrTable5clearERNS0_22PtrTableStorageManagerE
fwi:_Array_InternalArray__IEnumerable_GetEnumerator_TisWorkRequest_t1354518612_m2622205355_gshared
$Cg:__Z77RuntimeInvoker_KeyValuePair_2_t4237331251_Int32_t2950945753_Int32_t2950945753PFvvEPK10MethodInfoPvPS4_
lti:_Array_InternalArray__ICollection_Remove_TisUInt32_t2560061978_m733727733_gshared
g5e:_CryptographicException__ctor_m503735289
_rf:_NetworkManager_OnMatchCreate_m3666393468
GQg:_ConstructionCall_get_CallSiteActivationAttributes_m3498917408
Y_d:__ZN5physx27solveFrictionBlockWriteBackEPKNS_23PxcSolverConstraintDescEjRNS_16PxcSolverContextEPNS_25PxcThresholdStreamElementEjPi
p5i:_Stream_EndRead_m1896469262
K3f:__Z93RuntimeInvoker_Boolean_t97287965_Int32_t2950945753_SByte_t1669577662_ExceptionU26_t3600731591PFvvEPK10MethodInfoPvPS4_
VUb:__ZN14qsort_internal5QSortIP15RODataDepthPassi17ROSorterDepthPassEEvT_S4_T0_T1_
vkh:_InternalEnumerator_1__ctor_m3322594868_gshared
Ion:__ZL25UnresolvedVirtualCall_355P12Il2CppObjectPK10MethodInfo
llm:_ReadOnlyCollection_1_System_Collections_Generic_ICollectionU3CTU3E_Clear_m97867402_gshared
_De:_UNITY_ft_glyphslot_alloc_bitmap
lwe:__ZN13PhysicsModule21SetAutoSyncTransformsEbb
Uoh:_Comparer_1_get_Default_m1818694117_gshared
cim:_ReadOnlyCollection_1_System_Collections_IList_Add_m3642938800_gshared
P7h:_RSASslSignatureDeformatter_SetHashAlgorithm_m895570787
E5n:__ZN14dense_hash_mapI10KeyWrapperIP12Il2CppObjectEN6il2cpp2gc9CachedCCWENS4_5utils11PointerHashIS1_EENS3_14EqualsComparerINSt3__28equal_toIS2_EEEENSB_9allocatorINSB_4pairIKS3_S6_EEEEEC2EjRKS9_RKSE_
HEm:_X509CrlEntry__ctor_m4013514048
Zkm:_ReadOnlyCollection_1_System_Collections_ICollection_get_IsSynchronized_m2037898659_gshared
njg:__Z87RuntimeInvoker_Color_t2555686324_Color_t2555686324_Color_t2555686324_Single_t1397266774PFvvEPK10MethodInfoPvPS4_
ZBk:__ZL78NetworkAnimator_t3666738317_CustomAttributesCacheGenerator_m_ParameterSendBitsP21CustomAttributesCache
TIe:_ft_raster1_render
hJl:_List_1_Reverse_m576882157_gshared
Hrc:__Z57Register_UnityEngine_RectTransform_INTERNAL_set_anchorMaxv
lta:__ZN9GfxDevice27UpdateComputeSkinPoseBufferEP9GfxBufferP12SkinMeshInfo
ooi:_Enumerator_get_Current_m3382684163_AdjustorThunk
t6g:_InternalEnumerator_1_System_Collections_IEnumerator_Reset_m3677481164_AdjustorThunk
AVi:_Transform_1_BeginInvoke_m2630532665_gshared
hpo:__ZNKSt3__221__basic_string_commonILb1EE20__throw_length_errorEv
$9h:_EqualityComparer_1_System_Collections_IEqualityComparer_Equals_m245992594_gshared
hk:_JS_SystemInfo_GetMemory
Scl:_ValueCollection_System_Collections_Generic_ICollectionU3CTValueU3E_get_IsReadOnly_m907817205_gshared
p6g:_InternalEnumerator_1_MoveNext_m2698918955_AdjustorThunk
gTm:_SyncListChanged__ctor_m2260160945_gshared
TGa:__ZN18GfxFramebufferGLES13ReadbackImageER14ImageReferenceiiiiii
yCc:__ZN5Unity9rapidjson6WriterI16TempBufferWriterNS0_4UTF8IcEES4_13JSONAllocatorE11WriteStringEPKcj
Jvf:_NetworkServer_SendUnreliableToReady_m3029113505
c3e:_SerializationInfo_SetType_m3923964808
wCa:__ZN6prcoreL12RemapGenericI17TexFormatARGB888815TexFormatRGB565EEvPKNS_9InnerInfoE
YL:__ZN4FMOD7Channel19setReverbPropertiesEPK29FMOD_REVERB_CHANNELPROPERTIES
Fhn:_StandardEventPayload_GetParameters_m2672427676
B7i:_StreamReader_Dispose_m156389394
k1:__ZN13MonoBehaviour22GetScriptFullClassNameEv
xXn:_il2cpp_object_get_class
bfj:_SymmetricAlgorithm_get_Padding_m1011382560
P9b:__ZN13ProduceHelperI11MonoManagerLb0EE7ProduceE10MemLabelId18ObjectCreationMode
pcj:_RIPEMD160Managed_JJ_m112143231
vbe:__ZN5physx6shdfnd4sortIPNS_15PxsContactPatchENS_27SortBoundsPredicateManifoldENS0_19ReflectionAllocatorIS3_EEEEvPT_jRKT0_RKT1_j
rUb:__ZN13BatchRendererC2ER15RenderLoopStatsRK15RenderNodeQueuebb
toh:_Comparer_1__ctor_m191896560_gshared
CFh:_PreviousInfo_t2148130204_marshal_pinvoke_back
gtb:__ZNK16MemoryFileSystem9EnumerateEPKcP19dynamic_block_arrayI13FileEntryInfoLj32EEbPPv19FileEnumerationFlag
oKb:__ZN13MonoBehaviour9CallAwakeEv
s1a:__ZN20SphericalHarmonicsL211AddWeightedERKS_f
eXf:_ConnectionArray_Get_m1437473710
VMd:__ZN5physx2Sc24ElementInteractionMarker12onDeactivateEj
Dbj:_MonoType_IsPointerImpl_m3340652279
N6f:__Z82RuntimeInvoker_RuntimeObject_Int64_t3736567304_Int64_t3736567304_Int64_t3736567304PFvvEPK10MethodInfoPvPS4_
XTh:__Z14bankers_roundff
uzb:__Z19TransferField_ArrayI17RemapPPtrTransfer27Converter_SimpleNativeClassI8GUIStyleEEvRK23StaticTransferFieldInfoR31RuntimeSerializationCommandInfoRT0_
Sja:__ZL22StaticInitializeShaderPv
tPi:_KeyCollection_System_Collections_Generic_ICollectionU3CTKeyU3E_Remove_m4294538001_gshared
pqk:__ZL80Event_t2956885303_CustomAttributesCacheGenerator_Event_set_character_m1015181207P21CustomAttributesCache
iDc:__ZN9JSONWrite8TransferI10ColorRGBAfEEvRT_PKc17TransferMetaFlags
x6c:__ZN5physx3Cct26CharacterControllerManager16createControllerERKNS_16PxControllerDescE
Kjh:_InternalEnumerator_1__ctor_m3913006324_AdjustorThunk
u2:__Z25scripting_method_get_name18ScriptingMethodPtr
U_l:_Enumerator_System_Collections_IEnumerator_Reset_m2833117381_AdjustorThunk
_7h:_SslCipherSuite_ComputeKeys_m661027754
Nxb:__Z19TransferField_ArrayI14SafeBinaryRead16Converter_StringEvRK23StaticTransferFieldInfoR31RuntimeSerializationCommandInfoRT0_
$wj:_Object_set_name_m291480324
Bxg:__Z56RuntimeInvoker_Void_t1185182177_KeyValuePair_2_t69284834PFvvEPK10MethodInfoPvPS4_
YQf:_Convert_ToBoolean_m481380807
OTi:__ZN21InterfaceFuncInvoker2I26KeyValuePair_2_t2164477162i35ConnectionPendingPlayers_t878091664E6InvokeEjP11Il2CppClassP12Il2CppObjectiS1_
oWm:_TweenRunner_1_StopTween_m3457627707_gshared
vgo:_GC_exit_check
gth:_AssemblyName_SetPublicKeyToken_m582470133
Enm:_ReadOnlyCollection_1_System_Collections_ICollection_CopyTo_m269480114_gshared
gCi:_Enumerator_VerifyState_m2176386075_gshared
kJi:_Enumerator__ctor_m3506271397_gshared
JIl:_List_1_System_Collections_IList_get_IsFixedSize_m4102534819_gshared
uKh:_SymmetricTransform_CFB_m1051508796
Bjg:__Z52RuntimeInvoker_Boolean_t97287965_HitInfo_t3229609740PFvvEPK10MethodInfoPvPS4_
aP:__ZNK4PPtrI9AudioClipEcvPS0_Ev
Mhm:_Collection_1_set_Item_m11553568_gshared
V$:__Z20UnlockObjectCreationv
gwm:__ZN16VirtFuncInvoker2Ii19Color32_t2600501292S0_E6InvokeEjP12Il2CppObjectS0_S0_
WCh:_MonoField_ToString_m2518484388
BIh:_DSAManaged_get_Random_m923751780
tUi:_Transform_1_Invoke_m2385719192_gshared
vGj:_Vector3_set_Item_m1772472431_AdjustorThunk
c3g:_Interpreter_PopulateGroup_m4042796257
owb:__ZN15SerializeTraitsI13dynamic_arrayIyLj8EEE19ResizeSTLStyleArrayERS1_i
kXk:_Type_GetProperty_m3414567179
V0n:__ZN6il2cpp2vm13LivenessState25FieldCanContainReferencesEP9FieldInfo
B4b:__ZNSt3__26vectorINS_4pairIN4core12basic_stringIcNS2_20StringStorageDefaultIcEEEES6_EE13stl_allocatorIS7_L18MemLabelIdentifier38ELi16EEE6insertENS_11__wrap_iterIPKS7_EERSD_
Nsj:_RenderPipelineManager_DoRenderLoop_Internal_m3799666479
Uik:__ZL78Sprite_t280657092_CustomAttributesCacheGenerator_Sprite_get_packed_m1179604684P21CustomAttributesCache
mcm:_Collection_1_System_Collections_IEnumerable_GetEnumerator_m3855077430_gshared
HC:__ZN9BlobWrite8TransferI22OffsetPtrArrayTransferI9OffsetPtrIN7mecanim12statemachine18StateMachineMemoryEEEEEvRT_PKc17TransferMetaFlags
Pwi:_Array_compare_TisPendingOwner_t3340073490_m3116368759_gshared
_kl:_Dictionary_2_System_Collections_IDictionary_set_Item_m669645660_gshared
g0:__ZN4core8hash_mapIiP6ObjectNS_4hashIiEENSt3__28equal_toIiEEE4growEi
f0:__ZN4core8hash_mapIiP6ObjectNS_4hashIiEENSt3__28equal_toIiEEE4growEv
n7l:_Collection_1_System_Collections_IList_IndexOf_m3894953546_gshared
znm:_ReadOnlyCollection_1_System_Collections_Generic_ICollectionU3CTU3E_Remove_m142289409_gshared
AVg:_NameObjectCollectionBase_Init_m2525481323
N1k:_Array_swap_TisBoolean_t97287965_m2293774148_gshared
Tmi:_Enumerator_System_Collections_IEnumerator_get_Current_m1187209498_AdjustorThunk
Tpi:_List_1_Insert_m1582252370_gshared
fCk:__ZL103NetworkBehaviour_t204670959_CustomAttributesCacheGenerator_NetworkBehaviour_InvokeSyncEvent_m1733676932P21CustomAttributesCache
c4e:_SByte_System_IConvertible_ToByte_m2268214252_AdjustorThunk
U8n:__ZN6il2cpp2os10ThreadImpl12QueueUserAPCEPFvPvES2_
eNl:_List_1_get_Capacity_m3047075120_gshared
OI:__Z32TransferEnumWithNameForceIntSizeI14SafeBinaryReadN10SampleClip17CompressionFormatEEvRT_RT0_PKc17TransferMetaFlags
bLm:_RegularExpression__ctor_m119502265
lXe:__ZN22BaseUnityConnectClient10QueueEventERN11UnityEngine15CloudWebService17CloudServiceEventEPKcjb
d8c:__ZN5physx12PxControllerD2Ev
fkm:_ReadOnlyCollection_1_System_Collections_Generic_ICollectionU3CTU3E_Clear_m522482168_gshared
Xvm:_Comparison_1_EndInvoke_m267127039_gshared
Bvh:_DerivedType_IsByRefImpl_m2585680005
z4a:__ZN13dynamic_arrayI11ShaderTagIDLj4EE9push_backERKS0_
IQg:_ConstructionCall_InitMethodProperty_m2021094586
RXn:__GLOBAL__sub_I_ArrayMetadata_cpp
Z2c:__ZNK5physx2Gu15HeightFieldUtil12traceSegmentI25CapsuleTraceSegmentReportLb0ELb0ELb1EEEvRKNS_6PxVec3ES6_PT_PS5_
K5c:__ZN5physx3Cct17CapsuleController13setStepOffsetEf
QGe:_UNITY_FT_Hypot
x3d:__ZN5physx10PxsContext23prepareCMDiscreteUpdateEPNS_10PxBaseTaskE
j3:__ZNK14SerializedFile12GetHighestIDEv
hok:__ZL95TextGenerator_t3211863866_CustomAttributesCacheGenerator_TextGenerator_get_lineCount_m916872812P21CustomAttributesCache
RYi:__ZN21InterfaceFuncInvoker1I26KeyValuePair_2_t1377593753iE6InvokeEjP11Il2CppClassP12Il2CppObjecti
Hpn:__ZL25UnresolvedVirtualCall_408P12Il2CppObject20UIVertex_t4057497605PK10MethodInfo
qMk:__ZL74CanvasScaler_t2767979955_CustomAttributesCacheGenerator_m_DefaultSpriteDPIP21CustomAttributesCache
Ypd:__ZN5physx6shdfnd5ArrayIPvNS0_19ReflectionAllocatorINS_2Cm5BlockIhLj256EEEEEE4copyINS0_15InlineAllocatorILj256ES7_EEEEvRKNS1_IS2_T_EE
sg:_emscripten_glGetError
OSn:__ZN15dense_hashtableINSt3__24pairIK10KeyWrapperIPK14Il2CppAssemblyEPK22Il2CppMonoAssemblyNameEES6_N6il2cpp5utils11PointerHashIS4_EEN14dense_hash_mapIS6_SA_SF_NS6_14EqualsComparerINS0_8equal_toIS5_EEEENS0_9allocatorISB_EEE9SelectKeyESK_SM_E14squash_deletedEv
$cn:_Array_InternalArray__get_Item_TisPendingOwner_t3340073490_m2553878400_gshared
JM:__Z14FMOD_FILE_SeekPvjS_
I7l:_Collection_1_RemoveAt_m2240641437_gshared
Ctd:__ZN5physx6shdfnd8PoolBaseINS_11NpAggregateENS0_19ReflectionAllocatorIS2_EEE15disposeElementsEv
Jtk:__ZL81Physics_t2310948930_CustomAttributesCacheGenerator_Physics_RaycastAll_m2709753186P21CustomAttributesCache
b2a:__ZN7TextureC2E10MemLabelId18ObjectCreationMode
OPh:_LayoutGroup__ctor_m2162961217
l2c:__ZThn4_N16RayRTreeCallbackILi1ELb1EE14processResultsEjPj
e$k:_ValueType_t3640485471_marshal_pinvoke_cleanup
L1b:__ZNK13RenderTexture32CalculateNeedsInvertedProjectionEv
S6c:__ZN5physx2Gu17RadixSortBuffered4SortEPKfj
Ag:emscriptenWebGLGet
cmn:__ZL25UnresolvedVirtualCall_215P12Il2CppObject22UILineInfo_t4195266810S1_PK10MethodInfo
Ida:__Z19CanReplaceComponentRN5Unity9ComponentEPKNS_4TypeEPN4core12basic_stringIcNS5_20StringStorageDefaultIcEEEE
B9i:_UnmanagedMemoryStream_Flush_m1540584491
e6l:_Collection_1_GetEnumerator_m3986802482_gshared
t_i:_GuidParser_ParseGuid2_m1914838819
Pbc:__ZN12CubemapArray11InitTextureEiii13TextureFormatb
OCa:__ZN6prcoreL18BlitIntegerToFloatERK14ImageReferenceRS0_
mVg:_ListDictionary_get_SyncRoot_m4242825143
Jkc:__Z17GetSceneBuildInfoRKN4core12basic_stringIcNS_20StringStorageDefaultIcEEEEiR14SceneBuildInfo
NHl:_List_1_System_Collections_IList_get_Item_m1112579679_gshared
iTf:_Convert_ToSingle_m3983149863
o5g:_InternalEnumerator_1_System_Collections_IEnumerator_get_Current_m55999184_gshared
dtf:_NetworkMigrationManager_OnPeerInfo_m63687816
c1g:_X509CertificateEnumerator_get_Current_m364341970
fBg:__Z57RuntimeInvoker_RaycastHit2D_t2279581989_Int32_t2950945753PFvvEPK10MethodInfoPvPS4_
CPn:__ZN24dense_hashtable_iteratorINSt3__24pairIK10KeyWrapperIPK10Il2CppTypeEjEES6_N6il2cpp8metadata14Il2CppTypeHashEN14dense_hash_mapIS6_jSB_NS6_14EqualsComparerINSA_26Il2CppTypeEqualityComparerEEENS0_9allocatorIS8_EEE9SelectKeyESF_SH_E30advance_past_empty_and_deletedEv
Een:_DownloadHandlerBuffer_GetData_m752341367
S7m:_NetworkWriter_Write_m3340287509
w5n:__ZN6il2cpp2os6Socket15SetSocketOptionENS0_17SocketOptionLevelENS0_16SocketOptionNameEi
_kf:_Graphic_get_depth_m815589653
JPl:_List_1_Find_m475009475_gshared
Gcd:__ZN27ConvexVsMeshOverlapCallbackC2ERKN5physx2Gu10ConvexMeshERKNS0_11PxMeshScaleERKNS0_2Cm23FastVertex2ShapeScalingERKNS0_11PxTransformESE_bRKNS1_3BoxE
fhf:_ContentSizeFitter_get_horizontalFit_m2773126143
$Vm:_U3CStartU3Ec__Iterator0__ctor_m2366347741_gshared
oD:__ZN7mecanim5human13HumanFixTwistEPKNS0_5HumanEPNS_8skeleton13SkeletonPoseTIN4math4trsXEEES9_iiRKf
JXb:__ZL24AssignProjectorQueuesJobP30AssignProjectorQueuesJobHeader
jii:_KeyValuePair_2_get_Key_m1218836954_gshared
EIg:_ParameterModifier_t1461694466_marshal_pinvoke
NGn:__ZN15dense_hashtableINSt3__24pairIK10KeyWrapperIN6il2cpp5utils13dynamic_arrayIPK10Il2CppTypeLj4EEEEPFvvEEESA_NS3_8metadata19Il2CppSignatureHashEN14dense_hash_mapISA_SD_SG_NSA_14EqualsComparerINSF_22Il2CppSignatureCompareEEENS0_9allocatorISE_EEE9SelectKeyESK_SM_E4swapERSP_
E$i:_Int16_System_IConvertible_ToUInt32_m3410279543
qqa:__ZN9ShaderLab20SerializedSubProgram14SetConstBufferEPKci
ENn:__ZN6il2cpp2os4File5CloseEPNS0_10FileHandleEPi
mGn:__ZNSt3__27__sort5IRN6il2cpp5utils11collections13ArrayValueMapIPK10Il2CppType17Il2CppInteropData26InteropDataToTypeConverterNS1_8metadata14Il2CppTypeLessENSA_26Il2CppTypeEqualityComparerEE12SortComparerEPS8_EEjT0_SH_SH_SH_SH_T_
XDj:_Touch_get_fingerId_m859576425_AdjustorThunk
Tve:__ZN13PhysicsModule17SetRigidBodyStateER9RigidbodyRKN8IPhysics14RigidBodyStateE
_Pl:_List_1_get_Capacity_m355600540_gshared
hCl:_Array_InternalArray__set_Item_TisKeyValuePair_2_t1012771504_m3243612514_gshared
vug:__Z48RuntimeInvoker_Boolean_t97287965_Link_t544317964PFvvEPK10MethodInfoPvPS4_
Ikm:_ReadOnlyCollection_1_System_Collections_Generic_ICollectionU3CTU3E_Add_m1324959056_gshared
Rye:_cf2_getStdVW
sLl:_List_1_System_Collections_ICollection_CopyTo_m2688165607_gshared
Ttg:__Z53RuntimeInvoker_UIVertex_t4057497605_Int32_t2950945753PFvvEPK10MethodInfoPvPS4_
wYk:_UInt16_CompareTo_m2664746316_AdjustorThunk
Ubl:_ValueCollection_GetEnumerator_m616748621_gshared
$Z:__Z40DebugStringToFilePostprocessedStacktraceRK21DebugStringToFileData
zWd:__ZN5physx2Sq12BucketPruner11shiftOriginERKNS_6PxVec3E
WHc:__Z29Transfer_Blittable_ArrayFieldI8JSONReadjEvRT_R9ArrayInfoRK23StaticTransferFieldInfo
Xfd:__ZN5physx6shdfnd5ArrayIPNS_2Sc16ArticulationCoreENS0_19ReflectionAllocatorIS4_EEE15growAndPushBackERKS4_
Bgo:_GC_check_finalizer_nested
fkn:__ZL25UnresolvedVirtualCall_110P12Il2CppObjectsS0_aaaPK10MethodInfo
odm:_Collection_1_GetEnumerator_m149363704_gshared
hh:__setLetterbox
T5a:__ZNSt3__26__treeINS_12__value_typeIN9ShaderLab16FastPropertyNameEfEENS_19__map_value_compareIS3_S4_NS_4lessIS3_EELb1EEENS_9allocatorIS4_EEE12__find_equalIS3_EERPNS_16__tree_node_baseIPvEENS_21__tree_const_iteratorIS4_PNS_11__tree_nodeIS4_SE_EEiEESH_RKT_
YVh:_ScrollRect_OnScroll_m3861066534
W9d:__ZN5physx19normalizePartitionsERNS_6shdfnd5ArrayIjNS0_19ReflectionAllocatorIjEEEEPNS_23PxcSolverConstraintDescEPKNS_13PxcSolverBodyEjjS5_
NGh:_BigInteger_op_LessThanOrEqual_m2553515144
Gnk:__ZL72FormerlySerializedAsAttribute_t2859083114_CustomAttributesCacheGeneratorP21CustomAttributesCache
Blh:_ArraySegment_1__ctor_m4037669203_gshared
_Zc:__ZN18ContactCapsuleMesh20processTriangleCacheILj16EEEbRN5physx2Gu13TriangleCacheIXT_EEE
SHm:_PatternCompiler_EmitFastRepeat_m3012952683
afb:__ZNSt3__26vectorI17BlendShapeChannelNS_9allocatorIS1_EEE6assignINS_11__wrap_iterIPS1_EEEENS_9enable_ifIXaasr21__is_forward_iteratorIT_EE5valuesr16is_constructibleIS1_NS_15iterator_traitsISA_E9referenceEEE5valueEvE4typeESA_SA_
I6b:__ZN11TimeManager11GetRealtimeEv
vhk:__ZL91RectOffset_t1369453676_CustomAttributesCacheGenerator_RectOffset_get_horizontal_m2663785949P21CustomAttributesCache
dxj:_Object_GetHashCode_m1944636947
Dbd:__ZN5physx2Sc16InteractionScene25removeFromActiveActorListERNS0_5ActorE
bN:__ZN29AudioEffectInternalDefinitionC2EP26UnityAudioEffectDefinitionb
tum:_ReadOnlyCollection_1_System_Collections_IList_Remove_m2434650390_gshared
PYk:_UInt16_ToString_m3056878594_AdjustorThunk
uF:__ZN4PPtrI6AvatarE8TransferI18StreamedBinaryReadILb0EEEEvRT_
Y5m:_NetworkTransport_AddHostWithSimulator_m2523855845
Unl:_Dictionary_2_System_Collections_Generic_ICollectionU3CSystem_Collections_Generic_KeyValuePairU3CTKeyU2CTValueU3EU3E_Contains_m2803718146_gshared
_7c:__ZN5physx3Ext21InertiaTensorComputer6rotateERKNS_7PxMat33E
ohn:_EventTrigger_set_repeatTime_m1188543944
edn:_Array_InternalArray__get_Item_TisPendingPlayer_t306375494_m959791139_gshared
dWn:__ZNSt3__2plIcNS_11char_traitsIcEENS_9allocatorIcEEEENS_12basic_stringIT_T0_T1_EERKS9_PKS6_
SDj:_Time_get_unscaledDeltaTime_m4270080131
Cjl:_Dictionary_2_pick_key_m3282382413_gshared
$8d:__ZN5physx22PxcDiscreteNarrowPhaseERNS_18PxcNpThreadContextERNS_13PxcNpWorkUnitE
Bai:_EqualityComparer_1__cctor_m1283854733_gshared
vBa:_stbir_resize
eci:_EqualityComparer_1__cctor_m818408565_gshared
w9h:_EqualityComparer_1_System_Collections_IEqualityComparer_GetHashCode_m360549782_gshared
fRj:_Environment_GetOSVersionString_m407782784
cOk:_DecoderExceptionFallback_Equals_m1082173956
b4g:_U3CGetEnumeratorU3Ec__Iterator0__ctor_m1150758267_gshared
EYi:_Transform_1_BeginInvoke_m2672538829_gshared
C0j:__ZL69Assembly_t_CustomAttributesCacheGenerator_Assembly_GetName_m981771927P21CustomAttributesCache
nRn:__ZN15dense_hashtableINSt3__24pairIK10KeyWrapperINS1_IPK12PropertyInfoP11Il2CppClassEEEjEES9_17ReflectionMapHashIS8_EN14dense_hash_mapIS9_jSD_NS9_14EqualsComparerINS0_8equal_toIS8_EEEENS0_9allocatorISB_EEE9SelectKeyESI_SK_E5clearEv
jgb:__ZN4PPtrI4MeshE8TransferI14SafeBinaryReadEEvRT_
kXi:_Transform_1_Invoke_m554356070_gshared
tOc:__ZN24b2ChainAndCapsuleContact6CreateEP9b2FixtureiS1_iP16b2BlockAllocator
CRa:__Z37ReadDirectoryInfo_UnityWebAndUnityRawR12FileAccessorRKN20ArchiveStorageHeader6HeaderERNS1_13DirectoryInfoE
fDm:_PKCS12_get_Keys_m3893933360
Rca:__ZNSt3__26__treeINS_12__value_typeIPKciEENS_19__map_value_compareIS3_S4_15compare_tstringIS3_ELb1EEENS_9allocatorIS4_EEE7destroyEPNS_11__tree_nodeIS4_PvEE
MAl:_Array_InternalArray__Insert_TisIntPtr_t_m189626842_gshared
C0f:_NetworkDiscovery_get_offsetX_m3621239348
o$g:_X509Certificate2_get_IssuerName_m1277209535
BDh:_Locale_GetText_m3374010885
ygm:_Collection_1_System_Collections_IEnumerable_GetEnumerator_m1598238343_gshared
B8e:_RijndaelManaged_CreateEncryptor_m263736311
hUm:_SyncList_1_Remove_m4271506869_gshared
LUk:_WaitCallback__ctor_m1893321019
cTm:_SyncListChanged__ctor_m1780904390_gshared
nvl:_DefaultComparer__ctor_m3451505677_gshared
TUb:__ZN20DynamicPropertySheet14SetValueQueuedEN9ShaderLab16FastPropertyNameEN19ShaderPropertySheet12PropertyTypeEjNS2_8SetFlagsE
Mdl:_ValueCollection__ctor_m4044405775_gshared
oPe:__ZN2UI6Canvas26MarkAllNestedCanvasesDirtyEv
Trj:_InvokableCallList_ClearPersistent_m1904264973
QLb:__ZN25PathNamePersistentManagerD2Ev
O$:__ZN17PersistentManager48IntegrateObjectAndUnlockIntegrationMutexInternalEi
wtj:_GUIStateObjects__cctor_m3979345696
Hja:__ZZ29InitializeSortingGroupManagerPvEN44PostLateUpdateSortingGroupsUpdateRegistrator7ForwardEv
_Fk:__ZL55EventTrigger_t1076084509_CustomAttributesCacheGeneratorP21CustomAttributesCache
Zhj:_SecurityElement_SearchForChildByTag_m900466299
jr:__ZN6Object12SetHideFlagsENS_9HideFlagsE
Iih:_InternalEnumerator_1_System_Collections_IEnumerator_get_Current_m3968161518_AdjustorThunk
n$f:_NetworkCRC_Dump_m367526256
ENc:__ZN9b2Fixture11SynchronizeEP12b2BroadPhaseRK11b2TransformS4_
Epe:__ZN9Rigidbody23VirtualRedirectTransferER14SafeBinaryRead
bTf:_Convert_ToSingle_m3227075028
Two:_emscripten_glGetFramebufferAttachmentParameteriv__wrapper
cSb:__ZN13RendererScene15InitializeUmbraEv
iWi:__ZN21InterfaceFuncInvoker2I26KeyValuePair_2_t2401056908P12Il2CppObjectiE6InvokeEjP11Il2CppClassS2_S2_i
i$a:__Z28CalculateGlobalMatrixInverse23TransformAccessReadOnly
nwj:_MonoBehaviour__ctor_m1579109191
vsk:__ZL59GUITargetAttribute_t25796337_CustomAttributesCacheGeneratorP21CustomAttributesCache
jei:_GenericEqualityComparer_1_Equals_m3457564127_gshared
PZh:_BigInteger_ModInverse_m2426215562
v8g:_InternalEnumerator_1_System_Collections_IEnumerator_Reset_m2386791007_AdjustorThunk
_Nk:_DecoderExceptionFallback__ctor_m4044614564
tbh:_InternalEnumerator_1_System_Collections_IEnumerator_Reset_m3011999097_AdjustorThunk
q4l:_Collection_1_System_Collections_IList_Add_m3881957746_gshared
RDd:__ZNK5physx15PxsParticleData15getWorldBoundsVEv
Sme:__ZN15CapsuleCollider13AwakeFromLoadE17AwakeFromLoadMode
G9i:_LocalDataStoreSlot__cctor_m644942532
X3c:__ZN12_GLOBAL__N_124HfTrianglesEntityReport27onEventEjPj
Oko:__ZN6il2cpp6icalls8mscorlib6System6Object7GetTypeEP12Il2CppObject
BHg:_MonoProperty_CachePropertyInfo_m2968057423
pGd:__ZN5physx22NpParticleBaseTemplateINS_16PxParticleSystemENS_16NpParticleSystemEE17setStaticFrictionEf
R_e:__ZNK25UnityWebRequestJavaScript18GetDownloadedBytesEv
xzj:_Ray_GetPoint_m1852405345_AdjustorThunk
V_j:__ZL53RegionInfo_t1090270226_CustomAttributesCacheGeneratorP21CustomAttributesCache
k1f:_NetworkIdentity_AddNetworkId_m3011916416
Buk:__ZL85Canvas_t3310196443_CustomAttributesCacheGenerator_Canvas_get_sortingOrder_m1860900812P21CustomAttributesCache
cWj:__ZL74Single_t1397266774_CustomAttributesCacheGenerator_Single_IsNaN_m4024467661P21CustomAttributesCache
Xod:__ZN5physx17PxsContactManager16resetCachedStateEv
J_e:__ZN12HeaderHelper14SetUnvalidatedERKN4core12basic_stringIcNS0_20StringStorageDefaultIcEEEES6_b
$I:__ZN4FMOD6SoundI7releaseEv
OId:__ZN5physx20NpRigidActorTemplateINS_14PxRigidDynamicEE15setActorSimFlagEb
tAe:_cff_parse_num
eSa:__ZN10MemoryFile9SetLengthEy
zBb:__ZN5RectTIiE8TransferI24GenerateTypeTreeTransferEEvRT_
pMc:__ZNK15b2RevoluteJoint10GetAnchorBEv
v6c:__ZNK5physx3Cct26CharacterControllerManager16getNbControllersEv
SKb:__Z28scripting_class_is_interface17ScriptingClassPtr
Ci:_glTexStorage2D
Osf:_NetworkMigrationManager_get_waitingToBecomeNewHost_m934852116
YHg:_MonoProperty_GetOptionalCustomModifiers_m62958967
Npa:__ZNK9ShaderLab10SubProgram14EnsureCompiledEv
Tyh:_MethodBuilder_GetGenericArguments_m1765425737
AJj:_DateTime_CompareTo_m3687348273
Hpm:_ReadOnlyCollection_1__ctor_m3003089675_gshared
ehi:_KeyValuePair_2_get_Key_m2288232422_AdjustorThunk
IKj:_DateTime_ToUniversalTime_m1945318289_AdjustorThunk
pse:__ZN5physx7profile10DataBufferINS_6shdfnd6MutexTINS0_26WrapperReflectionAllocatorIhEEEENS0_14ScopedLockImplIS6_EEE17handleBufferFlushEPKhj
fQj:_Enum_t4135868527_marshal_pinvoke
ZPk:_Encoding_get_WebName_m1362487227
k2:__Z18BuildScriptClassId17ScriptingClassPtr
Rtn:_TextGenerator_Init_m1168488231
hFj:_Transform_LookAt_m3649447396
ZJh:_RSAManaged_Finalize_m3915335854
ns:__ZNK16LevelGameManager7GetNameEv
vlm:_ReadOnlyCollection_1_System_Collections_IList_Clear_m362697432_gshared
FPa:__ZL31DeleteLastPathNameComponentImplRKN4core12basic_stringIcNS_20StringStorageDefaultIcEEEEPKc
L8b:__Z13RegisterClassI18DelayedCallManagerEvv
yXe:__ZN18UnityConnectClient15GetCloudServiceEv
Izb:__Z18Transfer_BlittableI24GenerateTypeTreeTransferLb0EiEvRK29SerializationCommandArgumentsR31RuntimeSerializationCommandInfo
Hce:__ZN5physx20PxsConstraintProjectEPKNS_13PxsConstraintEbf
ywd:__ZN5physx7NpShape7setFlagENS_11PxShapeFlag4EnumEb
hch:_InternalEnumerator_1_get_Current_m2698009637_gshared
vJn:__ZN6il2cpp2os19SocketHandleWrapperD2Ev
C8k:_Enumerator_System_Collections_IEnumerator_Reset_m278261807_gshared
ZNc:__ZN15b2CircleContact6CreateEP9b2FixtureiS1_iP16b2BlockAllocator
LKb:__ZL28SerializationCommandGroupForRK31TransferFunctionScriptingTraits17ScriptingClassPtr17ScriptingFieldPtrRK20CoreScriptingClasses
MUa:__ZN10TagManager32RegisterDefaultTagsAndLayerMasksEv
BRi:_ShimEnumerator_MoveNext_m3492974564_gshared
VMi:_KeyCollection_System_Collections_ICollection_get_SyncRoot_m2216898491_gshared
eXl:_List_1_System_Collections_IList_get_IsReadOnly_m1729002068_gshared
Rcg:__Z50RuntimeInvoker_Double_t594665363_Int32_t2950945753PFvvEPK10MethodInfoPvPS4_
_ym:_Predicate_1_EndInvoke_m1490920825_gshared
qbk:__ZL78LoaderOptimization_t1484956347_CustomAttributesCacheGenerator_DisallowBindingsP21CustomAttributesCache
IVg:__KeysEnumerator__ctor_m1664513423
E8d:__ZN5physx2Sc35ParticleElementRbElementInteraction12onDeactivateEj
Cel:_ValueCollection_System_Collections_Generic_ICollectionU3CTValueU3E_Clear_m644835913_gshared
Cqg:__Z104RuntimeInvoker_Void_t1185182177_Color_t2555686324_Single_t1397266774_SByte_t1669577662_SByte_t1669577662PFvvEPK10MethodInfoPvPS4_
DWl:_List_1_Remove_m3853969205_gshared
Goi:_Enumerator_System_Collections_IEnumerator_get_Current_m1540440674_gshared
Uij:_Single_System_IConvertible_ToInt16_m809233024_AdjustorThunk
TUe:__Z56Register_UnityEngine_Analytics_CustomEventData_AddUInt32v
tno:_fmodf
azn:_Rigidbody_INTERNAL_get_position_m772969920
RLh:_InputField_UpdateLabel_m1837760870
Lxa:__ZN4gles8InitCapsEP7ApiGLESP12GraphicsCapsR16GfxDeviceLevelGL
PBa:__ZN6prcore14BlitImageFloatERK14ImageReferenceRS0_NS0_8BlitModeE
dYa:__Z24CalculateVertexLightDataRK15SharedLightDataR14GfxVertexLight
kj:_glEnable
Qeh:_InternalEnumerator_1_MoveNext_m973048327_gshared
Kpa:__ZNK9ShaderLab7Program28BeginReadUnsupportedVariantsEv
UWd:__ZN5physx2Sq10AABBPrunerC2Eb
k9:__ZN12CachedWriter11Align4WriteEv
bsf:_NetworkManager_OnDestroyMatch_m817608524
$lb:__ZNSt3__26vectorIN30RuntimeInitializeOnLoadManager9ClassInfoE13stl_allocatorIS2_L18MemLabelIdentifier13ELi16EEE7reserveEj
iSd:__ZN5physx2Sq8AABBTreeC2Ev
gcm:_Collection_1_CheckWritable_m2646904015_gshared
vDc:__Z35Transfer_Blittable_FixedBufferFieldI9JSONWriteiEvRK29SerializationCommandArgumentsR31RuntimeSerializationCommandInfo
cam:_Collection_1_System_Collections_ICollection_CopyTo_m109140844_gshared
mxn:_HumanBone_t2465339518_marshal_pinvoke_cleanup
Nei:_Enumerator__ctor_m1590062855_AdjustorThunk
vGh:_BigInteger_op_Subtraction_m1575155386
oai:_EqualityComparer_1_System_Collections_IEqualityComparer_Equals_m894557082_gshared
Qz:__ZN26AnimatorControllerPlayable17ProcessRootMotionEP35AnimationPlayableEvaluationConstantP32AnimationPlayableEvaluationInputP33AnimationPlayableEvaluationOutput
g1h:_RSAManaged_ImportParameters_m1117427048
y4j:__ZL54SoapServices_t133988723_CustomAttributesCacheGeneratorP21CustomAttributesCache
l5k:_Component_GetComponents_TisRuntimeObject_m2416546752_gshared
K0f:_NetworkDiscovery_get_isServer_m2958519960
$oj:_Color__ctor_m286683560
f9i:_UnexceptionalStreamReader_Peek_m1842169584
chn:_AnalyticsTracker_SendEvent_m2955089255
ZVe:__ZN11UnityEngine7Connect15DeviceInfoEvent16CollectExtraInfoEv
n0f:_NetworkDiscovery_get_broadcastKey_m2393353800
Yco:__ZN6il2cpp2os11Environment22SetEnvironmentVariableERKNSt3__212basic_stringIcNS2_11char_traitsIcEENS2_9allocatorIcEEEESA_
sHj:_TypeInferenceRuleAttribute__ctor_m2736695831
Ife:__ZN5physx2Gu10ConvexMeshD2Ev
x5e:_CryptographicException__ctor_m1422015889
FSn:__ZN6il2cpp2gc19AppendOnlyGCHashMapIPK10Il2CppTypeP20Il2CppReflectionTypeNS_8metadata14Il2CppTypeHashENS7_26Il2CppTypeEqualityComparerEEC2Ev
WGj:_Vector4_Equals_m1779210055_AdjustorThunk
X_a:__ZN17LightBakingOutput8TransferI19StreamedBinaryWriteILb0EEEEvRT_
Foo:_atoi
NSa:__ZN20ArchiveStorageReader10InitializeER15FileSystemEntryyb
Goo:_atol
rdo:__ZThn8_N6il2cpp2vm13CachedCCWBaseINS0_13ManagedObjectEE6AddRefEv
bzh:_TypeBuilder_CreateType_m3375483507
rim:_ReadOnlyCollection_1_GetEnumerator_m3690861713_gshared
yLk:__ZL88Selectable_t3250028441_CustomAttributesCacheGenerator_U3CisPointerDownU3Ek__BackingFieldP21CustomAttributesCache
BOg:_RemotingServices_GetRealProxy_m2081098851
aIh:_BlockProcessor_Core_m189015002
NEn:__ZN15dense_hashtableINSt3__24pairIK10KeyWrapperIPKcEP11Il2CppClassEES5_N6il2cpp5utils11StringUtils12StringHasherIS4_EEN14dense_hash_mapIS5_S8_SE_NS5_14EqualsComparerINSB_13VmStringUtils21CaseSensitiveComparerEEENS0_9allocatorIS9_EEE9SelectKeyESJ_SL_EC2EjRKSE_RKSJ_RKSN_
$wo:_emscripten_glScissor__wrapper
swc:__Z47UnityWebRequest_CUSTOM_InternalSetRequestHeaderP12Il2CppObjectP12Il2CppStringS2_
lq:FUNCTION_TABLE_viifi
oq:FUNCTION_TABLE_viiff
O9c:__ZNK5physx2Sc8ShapeSim10getBodySimEv
hAf:_X501__cctor_m1166912714
VGk:__ZL102PointerEventData_t3807901092_CustomAttributesCacheGenerator_PointerEventData_set_lastPress_m2928324031P21CustomAttributesCache
gSh:_MaskUtilities_GetRectMasksForClip_m532898711
fHe:_UNITY_tt_face_free_hdmx
CQc:__ZNSt3__26__sortIRN18Overlap2DQueryBase29ColliderHitsByDepthComparitorEPP10Collider2DEEvT0_S7_T_
t4k:_Dictionary_2_Do_ICollectionCopyTo_TisNetworkBroadcastResult_t2174414888_m1310225992_gshared
ooj:_Bounds_ToString_m4208690781
Vcm:_Collection_1_IsFixedSize_m2445031659_gshared
y8f:__Z88RuntimeInvoker_RuntimeObject_RuntimeObject_RuntimeObject_Int32_t2950945753_RuntimeObjectPFvvEPK10MethodInfoPvPS4_
kEn:__ZNSt3__218uninitialized_copyIPNS_4pairIK10KeyWrapperIPK11Il2CppClassEPKcEESB_EET0_T_SD_SC_
Dnm:_ReadOnlyCollection_1_System_Collections_Generic_ICollectionU3CTU3E_get_IsReadOnly_m1871691122_gshared
Z9i:_Math_Sqrt_m1297338011
U7i:_StreamWriter_Initialize_m3490883444
yXk:_Type_GetGenericArguments_m3500465462
LVf:_DotNetCompatibility_GetMethodName_m2333481201
aqd:__ZN5physx6shdfnd5ArrayIPvNS0_19ReflectionAllocatorINS_2Cm5BlockIhLj128EEEEEE15growAndPushBackERKS2_
KZe:__ZN23UnityPurchasingSettingsC2Ev
Hgb:__ZNK9Transform13GetWorldScaleEv
QBh:_Module_IsDefined_m2423524910
J0g:_X509Certificate2Enumerator__ctor_m1083666285
Nrk:__ZL60EventType_t3528516131_CustomAttributesCacheGenerator_repaintP21CustomAttributesCache
QWa:__ZN17GPUFenceInternals7ReleaseEv
qLk:__ZL66Selectable_t3250028441_CustomAttributesCacheGenerator_m_NavigationP21CustomAttributesCache
fJg:_ResolveEventHandler__ctor_m1911137231
cfd:__ZN5physx2Sc11Interaction10onActivateEj
pCi:_Enumerator_System_Collections_IDictionaryEnumerator_get_Key_m3297753043_AdjustorThunk
G2c:__ZNK5physx2Gu29EPASupportMapPairRelativeImplINS0_4BoxVENS0_11ConvexHullVEE6getDirEv
exd:__ZN5physx14NpShapeManager15setupSceneQueryERNS_2Sq17SceneQueryManagerERKNS_12PxRigidActorERKNS_7NpShapeE
M1b:__ZL10RenderFaceR9GfxDeviceR18MaterialStateCacheP13RenderTextureiif
wxi:_Array_IndexOf_TisCustomAttributeNamedArgument_t287865710_m2817957199_gshared
wma:__ZN15SerializeTraitsI13dynamic_arrayIN9ShaderLab21SerializedBindChannelELj4EEE19ResizeSTLStyleArrayERS3_i
$2n:__ZNK24NamespaceAndNamePairHashclERKNSt3__24pairIPKcS3_EE
gCm:_ExtendedKeyUsageExtension_ToString_m2116504780
Vob:__ZNK5Unity9Component38MarkGameObjectAndComponentDependenciesER27GarbageCollectorThreadState
Cgi:_HashSet_1_get_Count_m2485472533_gshared
Cce:__ZN22ScAfterIntegrationTask11runInternalEv
g3i:_BinaryReader_Read_m3708759962
Gcf:_PointerEventData_IsPointerMoving_m1902409386
Nhd:__ZNK5physx2Sc9ClothCore23getExternalAccelerationEv
w5g:_InternalEnumerator_1__ctor_m3349908318_AdjustorThunk
wnn:__ZL25UnresolvedVirtualCall_289P12Il2CppObject26NetworkHash128_t2391674535S0_PK10MethodInfo
LQ:__ZNK7Texture21GetShadowSamplingModeEv
K1c:__ZN5physx2Gu13coarseCullingERKNS_6PxVec3ES3_ffRKNS_10PxTriangleE
qbb:__ZN13ScreenManager21OnWindowRegainedFocusEv
ZHb:__Z18Transfer_BlittableI18StreamedBinaryReadILb0EELb1EdEvRK29SerializationCommandArgumentsR31RuntimeSerializationCommandInfo
qxa:__ZN9GfxDevice26CreateDefaultVertexBuffersEv
uyo:_emscripten_glVertexAttrib2fv__wrapper
Mpm:_ReadOnlyCollection_1_System_Collections_Generic_IListU3CTU3E_RemoveAt_m722998399_gshared
t0e:__ZN13RuntimeStaticINSt3__26vectorIPN5physx15PxVehicleWheelsENS0_9allocatorIS4_EEEELb0EE13StaticDestroyEPv
t8i:_SynchronizedReader_ReadToEnd_m2160105378
e9d:__ZN5physx2Sc5Scene29processNarrowPhaseTouchEventsEv
JAa:__ZN4crnd12symbol_codec32decode_receive_static_data_modelERNS_25static_huffman_data_modelE
e7b:__ZN18ScriptingArguments8AddFloatEf
Upg:__Z75RuntimeInvoker_RuntimeObject_Vector3_t3722313464_NetworkHash128_t2391674535PFvvEPK10MethodInfoPvPS4_
eEj:_TouchScreenKeyboard_Open_m3325559252
cnf:_Image_set_fillOrigin_m469806249
IVi:__ZN23GenericVirtFuncInvoker1I26KeyValuePair_2_t2530217319S0_E6InvokeEPK10MethodInfoP12Il2CppObjectS0_
ntf:_NetworkServer_ListenRelay_m225415673
Qjd:__ZN5physx6shdfnd5ArrayIPvNS0_15InlineAllocatorILj256ENS0_19ReflectionAllocatorINS_18NpArticulationLinkEEEEEE15growAndPushBackERKS2_
ehl:_Dictionary_2_GetEnumerator_m2532220708_gshared
vEc:__Z18Transfer_BlittableI9JSONWriteLb0EaEvRK29SerializationCommandArgumentsR31RuntimeSerializationCommandInfo
Tqf:_NetworkServer_get_numChannels_m1380409644
MU:__ZN11UnityEngine15CloudWebService14DataDispatcher34OnSessionContainerArchivedAndReadyERNS0_16SessionContainerE
Bwj:_ConnectionChangeEvent__ctor_m764126802
NKc:__ZN7b2World11CreateJointEPK10b2JointDef
b_h:_Kernel_Multiply_m193213393
APl:_List_1_AddCollection_m1930163320_gshared
Uaj:_IntComparer__ctor_m2901422390
i7c:__ZNK5physx3Cct15ObstacleContext11getObstacleEj
Nqf:_NetworkManager_UpdateScene_m578911037
D5j:__ZL50HMACMD5_t2742219965_CustomAttributesCacheGeneratorP21CustomAttributesCache
Dnh:_Comparer_1__ctor_m1078828713_gshared
cCb:__Z18Transfer_BlittableI19StreamedBinaryWriteILb0EELb0E8Vector3fEvRK29SerializationCommandArgumentsR31RuntimeSerializationCommandInfo
Kli:_Enumerator_VerifyState_m2621680056_gshared
Y4k:_Dictionary_2_Do_CopyTo_TisRuntimeObject_TisRuntimeObject_m1393867470_gshared
YLm:_UriParser_InternalRegister_m3643767086
dok:__ZL106TextGenerator_t3211863866_CustomAttributesCacheGenerator_TextGenerator_INTERNAL_get_rectExtents_m183810018P21CustomAttributesCache
Uka:__ZN14SafeBinaryRead19TransferSTLStyleMapINSt3__23mapIN4core12basic_stringIcNS3_20StringStorageDefaultIcEEEEiNS1_4lessIS7_EENS1_9allocatorINS1_4pairIKS7_iEEEEEEEEvRT_17TransferMetaFlags
uKj:_DateTimeFormatInfo_get_RawAbbreviatedDayNames_m1257850285
$cj:_RSACryptoServiceProvider_EncryptValue_m944137256
EQn:__ZN15dense_hashtableINSt3__24pairIK10KeyWrapperINS1_IPK11Il2CppImageP11Il2CppClassEEEjEES9_17ReflectionMapHashIS8_EN14dense_hash_mapIS9_jSD_NS9_14EqualsComparerINS0_8equal_toIS8_EEEENS0_9allocatorISB_EEE9SelectKeyESI_SK_ED2Ev
rFe:_gray_move_to
tuj:_Material_Internal_CreateWithShader_m2478666450
HLj:_DBNull_System_IConvertible_ToSingle_m13713620
_Mk:__ZL127U3CDelayedSetDirtyU3Ec__Iterator0_t3170500204_CustomAttributesCacheGenerator_U3CDelayedSetDirtyU3Ec__Iterator0_Reset_m160466733P21CustomAttributesCache
rwf:_NotReadyMessage__ctor_m47666903
kug:__Z59RuntimeInvoker_Boolean_t97287965_KeyValuePair_2_t3699644050PFvvEPK10MethodInfoPvPS4_
Voj:_CameraCallback__ctor_m899467377
kjm:_ReadOnlyCollection_1_System_Collections_IList_Contains_m1327645028_gshared
pnf:_Image_GetDrawingDimensions_m3060965396
lfn:_UnityWebRequest_Dispose_m3261105905
Xnk:__ZL69FontTextureRebuildCallback_t2467502454_CustomAttributesCacheGeneratorP21CustomAttributesCache
RXk:_TypeLoadException__ctor_m1154572625
Umc:__Z30RegisterValidateMethodCallbackiPF18ScriptingMethodPtrS_17ScriptingClassPtrP6ObjectEPKc
Jrb:__ZN20LocalFileSystemPosixD0Ev
lWj:__ZL75Decimal_t2948259380_CustomAttributesCacheGenerator_Decimal__ctor_m593929528P21CustomAttributesCache
c5h:_Context_get_WriteSequenceNumber_m1115956887
yCf:_Activator_CreateInstanceInternal_m1337209899
xHm:_PatternCompiler_EmitCategory_m851169746
V3k:_Dictionary_2_Do_ICollectionCopyTo_TisKeyValuePair_2_t2401056908_m1169495264_gshared
Dzh:_OpCodes__cctor_m3821715395
ehf:_ContentSizeFitter__ctor_m2349275633
Ick:__ZL56TypeConverter_t2249118273_CustomAttributesCacheGeneratorP21CustomAttributesCache
IVd:__ZN5physx13IslandManager6resizeEj
dem:_Collection_1_RemoveAt_m3506636491_gshared
XOi:_KeyCollection_System_Collections_Generic_ICollectionU3CTKeyU3E_get_IsReadOnly_m280349487_gshared
EEe:_tt_cmap_init
NIc:__ZN8JSONRead8TransferI9BoundsIntEEvRT_PKc17TransferMetaFlagsb
Xa:invoke_viidi
O0k:_Array_Sort_TisOrderBlock_t1585977831_m2922111197_gshared
Ied:__ZN5physx6shdfnd8PoolBaseINS_2Cm5BlockIPvLj16EEENS0_19ReflectionAllocatorIS5_EEE17releaseEmptySlabsEv
Rkf:_Graphic_OnRectTransformDimensionsChange_m3695755375
e4e:_SByte_System_IConvertible_ToChar_m1489191771_AdjustorThunk
CL:__ZN9AudioClip7CleanupEv
non:__ZL25UnresolvedVirtualCall_334P12Il2CppObject20DateTime_t3738529785S1_PK10MethodInfo
Ytl:_Dictionary_2_ToTKey_m4209261251_gshared
efl:_ValueCollection_System_Collections_Generic_ICollectionU3CTValueU3E_Remove_m3554987289_gshared
xlj:_String_Concat_m1809518182
QFm:_Interval_t1802865632_marshal_pinvoke_cleanup
pZn:__ZNK15dense_hashtableINSt3__24pairIK10KeyWrapperIP11Il2CppClassES4_EES5_N6il2cpp8metadata16SZArrayClassHashEN14dense_hash_mapIS5_S4_SA_NS5_14EqualsComparerINS9_19SZArrayClassCompareEEENS0_9allocatorIS7_EEE9SelectKeyESE_SG_E12test_deletedEj
llf:_Graphic_GraphicUpdateComplete_m1502194795
U7c:__ZL20updateMassAndInertiabRN5physx11PxRigidBodyEPKfjPKNS_6PxVec3Eb
oHc:__Z18Transfer_BlittableI8JSONReadLb0EdEvRK29SerializationCommandArgumentsR31RuntimeSerializationCommandInfo
zse:__ZN5physx24NpPtrTableStorageManagerC2Ev
v6k:_Array_InternalArray__get_Item_TisKeyValuePair_2_t69284834_m4042249582_gshared
PPg:_SynchronizationAttribute_EnterContext_m1660729920
XSe:__Z44Register_UnityEngine_Canvas_set_sortingOrderv
zun:_Canvas_get_referencePixelsPerUnit_m3420541976
qjm:_ReadOnlyCollection_1_System_Collections_ICollection_get_SyncRoot_m2522539235_gshared
xXm:_Event_get_current_m2393892120
Hqn:_VertexHelper_Clear_m627349662
Hwl:_DefaultComparer_Equals_m3688244916_gshared
rel:_ValueCollection_System_Collections_Generic_IEnumerableU3CTValueU3E_GetEnumerator_m2790553985_gshared
nsa:__ZNK9GfxDevice13GetViewMatrixEv
C9i:_UnmanagedMemoryStream_Dispose_m2681886347
bAn:_Rigidbody2D_get_position_m2575647076
zOd:__ZN5physx7NpScene15flushSimulationEb
a6g:_InternalEnumerator_1_System_Collections_IEnumerator_get_Current_m1295084274_gshared
wvd:__ZN5physx6shdfnd8PoolBaseINS_10NpMaterialENS0_19ReflectionAllocatorIS2_EEE12allocateSlabEv
I3:__ZN8TypeTree8BlobReadERPKhS1_ib
Pli:_Enumerator_VerifyState_m2621680056_AdjustorThunk
Igk:__ZL87Display_t1387065949_CustomAttributesCacheGenerator_Display_GetSystemExtImpl_m2808197389P21CustomAttributesCache
QEf:_Array_Reverse_m3714848183
ljf:_Dropdown_ClearOptions_m4085591601
ugf:_CanvasUpdateRegistry_InternalRegisterCanvasElementForGraphicRebuild_m3522560454
hii:_KeyValuePair_2__ctor_m880186442_gshared
ije:__ZN5physx18ReducedVertexCloudC2EPKNS_6PxVec3Ej
Wih:_InternalEnumerator_1_get_Current_m3678831920_AdjustorThunk
wmb:__ZN18LoadSceneOperation23GetAllowSceneActivationEv
TZi:__ZN23GenericVirtFuncInvoker2IP12Il2CppObject28NetworkInstanceId_t786350175S1_E6InvokeEPK10MethodInfoS1_S2_S1_
_Tm:_SyncList_1_SendMsg_m907940226_gshared
kVa:__ZN6CameraD0Ev
b1l:_Collection_1_System_Collections_IList_get_IsReadOnly_m2319019412_gshared
tia:__ZN31CanvasBatchIntermediateRenderer16StaticInitializeEPv
evm:_ReadOnlyCollection_1_CopyTo_m586367390_gshared
f2k:_Array_swap_TisChannelPacket_t1579824718_m2055479862_gshared
Cgm:_Collection_1_System_Collections_IList_IndexOf_m837396833_gshared
gz:__ZN7mecanim12AndValueMaskILb0EEEvPKNS_14ValueArrayMaskEPS1_
Plb:__ZN14SafeBinaryRead21TransferSTLStyleArrayINSt3__26vectorIi13stl_allocatorIiL18MemLabelIdentifier13ELi16EEEEEEvRT_17TransferMetaFlags
OOk:_EncoderFallback__cctor_m3806755293
I7g:_InternalEnumerator_1__ctor_m962177456_AdjustorThunk
oLe:_raccess_guess_apple_double
OEa:__ZL18ProgramUniform1uivPK7ApiGLESjiihPKv
$ng:__Z65RuntimeInvoker_Boolean_t97287965_RuntimeObject_Single_t1397266774PFvvEPK10MethodInfoPvPS4_
Zbc:__ZN14Texture2DArray13RebuildMipMapEv
MDn:__ZN13Il2CppHashSetIPK17Il2CppGenericInstN6il2cpp8metadata21Il2CppGenericInstHashENS4_24Il2CppGenericInstCompareENSt3__29allocatorI10KeyWrapperIS2_EEEEC2EjRKS5_RKS6_
dvb:__Z18Transfer_BlittableI14SafeBinaryReadLb1EaEvRK29SerializationCommandArgumentsR31RuntimeSerializationCommandInfo
Myk:__ZL87MatchInfo_t221301733_CustomAttributesCacheGenerator_MatchInfo_get_networkId_m1444611712P21CustomAttributesCache
UOi:_KeyCollection_System_Collections_Generic_IEnumerableU3CTKeyU3E_GetEnumerator_m2427813049_gshared
rqa:__ZN9ShaderLab20SerializedSubProgram14AddVectorParamEPKcii15ShaderParamTypei
ULl:_List_1_GetEnumerator_m563931292_gshared
mzn:_Collision2D_t2842956331_marshal_pinvoke
GUf:_NetBuffer_SeekZero_m818658810
_Qe:__ZN2UI14CanvasRenderer12CleanupClassEv
Mnd:__ZNK5physx19NpRigidBodyTemplateINS_18PxArticulationLinkEE27getMinCCDAdvanceCoefficientEv
uQf:_Enumerator__ctor_m3362421874
ukg:__Z117RuntimeInvoker_CSSSize_t3377836552_IntPtr_t_Single_t1397266774_Int32_t2950945753_Single_t1397266774_Int32_t2950945753PFvvEPK10MethodInfoPvPS4_
RCo:_emscripten_glIsFramebuffer__wrapper
$km:_ReadOnlyCollection_1_System_Collections_IList_get_IsFixedSize_m1447922362_gshared
Gzk:__ZL76ConnectionConfig_t4173981269_CustomAttributesCacheGenerator_m_ConnectTimeoutP21CustomAttributesCache
P6n:__ZN6il2cpp2vm6Object3BoxEP11Il2CppClassPv
d_n:__ZN6il2cpp2vm6Thread7SetNameEP12Il2CppThreadP12Il2CppString
k0f:_NetworkDiscovery__ctor_m2871683457
mr:__ZN6Object23VirtualRedirectTransferER19StreamedBinaryWriteILb1EE
YMb:__ZN13ScreenManager18SetAllowCursorLockEb
eW:__ZN11UnityEngine15CloudWebService10RestClientINS0_23WebRequestRestHeaderMapEE16SetRequestHeaderERKN4core12basic_stringIcNS4_20StringStorageDefaultIcEEEESA_
Ulb:__ZN30RuntimeInitializeOnLoadManager15ClassMethodInfo8TransferI14SafeBinaryReadEEvRT_
AQg:_ConstructionCall_InitDictionary_m2824447813
OHi:_Enumerator_System_Collections_IDictionaryEnumerator_get_Entry_m2328542496_AdjustorThunk
fid:__ZNK5physx2Sc10ClothShape8isActiveEv
SIg:_TargetException__ctor_m3701535709
zvg:__Z86RuntimeInvoker_Int32_t2950945753_Vector3_t3722313464_Vector3_t3722313464_RuntimeObjectPFvvEPK10MethodInfoPvPS4_
AS:__ZL22InitializeModule_Audiov
mWd:__ZN5physx2Sq11PruningPoolD0Ev
D8g:_InternalEnumerator_1__ctor_m2963331719_gshared
Vsb:__ZN16MemoryFileSystem8IsLockedERK13FileEntryData
f2d:__ZN3MBP15removeBoxPrunerEj
C0n:__ZN6il2cpp6icalls8mscorlib6System2IO6MonoIO5WriteEiP11Il2CppArrayiiPi
B3m:_MatchDesc_get_name_m1687824342
YCg:__Z64RuntimeInvoker_Int16_t2552820387_Int16_t2552820387_RuntimeObjectPFvvEPK10MethodInfoPvPS4_
kvj:_Mathf_InverseLerp_m4155825980
SDg:__Z82RuntimeInvoker_KeyValuePair_2_t1496265288_NetworkHash128_t2391674535_RuntimeObjectPFvvEPK10MethodInfoPvPS4_
cag:__Z92RuntimeInvoker_RuntimeObject_RuntimeObject_RuntimeObject_SByte_t1669577662_SByte_t1669577662PFvvEPK10MethodInfoPvPS4_
bm:_emscripten_glBindRenderbuffer
e0f:_PacketStat_ToString_m3012745573
vLl:_List_1_System_Collections_IList_Contains_m573644588_gshared
h_i:_Transform_1_BeginInvoke_m3159640820_gshared
xEk:__ZL88NetworkTransformVisualizer_t2328387012_CustomAttributesCacheGenerator_m_VisualizerPrefabP21CustomAttributesCache
GHl:_List_1_System_Collections_IList_Insert_m1011775503_gshared
qgo:_GC_dirty_init
gAc:__Z33GUI_CUSTOM_INTERNAL_CALL_DoButtonRK5RectTIfEP12Il2CppObjectPv
U3n:__ZN6il2cpp2vm5Image33GetCachedMemoryMappedResourceFileEP24Il2CppReflectionAssembly
B6n:__ZN6il2cpp2vm5Field14GetValueObjectEP9FieldInfoP12Il2CppObject
wQe:__ZNK2UI6Canvas16GetTargetDisplayEv
_tg:__Z69RuntimeInvoker_Void_t1185182177_Int32_t2950945753_Vector2_t2156229523PFvvEPK10MethodInfoPvPS4_
qom:_ReadOnlyCollection_1_System_Collections_ICollection_get_SyncRoot_m2936762895_gshared
bxm:_Comparison_1_Invoke_m104412101_gshared
bYf:_NetworkAnimator_get_animator_m3617315379
Cih:_InternalEnumerator_1_get_Current_m2747834695_AdjustorThunk
h$c:__ZL15SweepBoxCapsulePKN5physx3Cct9SweepTestEPKNS0_11SweptVolumeEPKNS0_11TouchedGeomERKNS_14PxExtendedVec3ERKNS_6PxVec3ERNS0_12SweptContactE
iga:__ZN6Object17FindObjectsOfTypeEPKN5Unity4TypeER13dynamic_arrayIPS_Lj4EEb
$Dl:_Array_qsort_TisPeerInfoPlayer_t607460057_m2728761274_gshared
Hgc:__ZNSt3__26vectorINS_4pairIiiEE13stl_allocatorIS2_L18MemLabelIdentifier1ELi16EEE21__push_back_slow_pathIKS2_EEvRT_
bFc:__ZN9JSONWrite8TransferI4PPtrI9Texture2DEEEvRT_PKc17TransferMetaFlags
a4l:_Collection_1_Remove_m3611142372_gshared
iKb:__ZN13MonoBehaviour17RemoveFromManagerEv
tGj:_Vector3_get_Item_m668685504_AdjustorThunk
Lde:__ZN5physx2Sc19ParticlePacketShapeD2Ev
uCh:_MonoEventInfo_GetEventInfo_m873645389
Nab:__ZL11DecodeValuePPKcS0_
U_m:_GUIUtility_get_pixelsPerPoint_m2369948084
Lhj:_WindowsIdentity_System_Runtime_Serialization_IDeserializationCallback_OnDeserialization_m3428853631
pZ:__ZN13MemoryManagerC2Ev
HIa:__ZN12SkinMeshInfo10DeallocateEPS_
AEn:__ZNK15dense_hashtableINSt3__24pairIK10KeyWrapperIPKcEP11Il2CppClassEES5_N6il2cpp5utils11StringUtils12StringHasherIS4_EEN14dense_hash_mapIS5_S8_SE_NS5_14EqualsComparerINSB_13VmStringUtils21CaseSensitiveComparerEEENS0_9allocatorIS9_EEE9SelectKeyESJ_SL_E8min_sizeEjj
zVh:_ScrollRect_SetDirty_m214267968
tSa:__ZN20ArchiveStorageReader28AcquireAndPrefillUnusedBlockEjPNS_11CacheResultE
CGf:_Boolean_System_IConvertible_ToDateTime_m603510836
Tbc:__Z12NHxRoughnessIA4_tEvP9Texture2DPT_iiii
lvm:__ZN28GenericInterfaceFuncInvoker2IibbE6InvokeEPK10MethodInfoP12Il2CppObjectbb
DHh:_ASN1_get_Value_m1857007406
Cga:__ZN18AsyncUploadManagerD2Ev
xqb:__ZN9Transform5ResetEv
PNj:_Decimal_op_Explicit_m1842265407
PBb:__Z22TransferField_NonArrayI24GenerateTypeTreeTransfer16Converter_StringEvRK23StaticTransferFieldInfoR31RuntimeSerializationCommandInfoRT0_
pvn:_CanvasRenderer_SetAlphaTexture_m2009567627
ZAe:_UNITY_FT_CMap_New
m7g:_InternalEnumerator_1_get_Current_m4241643334_AdjustorThunk
hEk:__ZL112NetworkTransformChild_t2600331682_CustomAttributesCacheGenerator_NetworkTransformChild_SendTransform_m3675938991P21CustomAttributesCache
D5g:_InternalEnumerator_1_MoveNext_m154749640_AdjustorThunk
S4l:_Collection_1_set_Item_m2389175716_gshared
RMb:__Z17MainLoopKeepalivePv
zhd:__ZN5physx7NpScene16addActorInternalERNS_7PxActorE
JLk:__ZL62Slider_t3903728902_CustomAttributesCacheGenerator_m_HandleRectP21CustomAttributesCache
xFn:__ZN15dense_hashtableI10KeyWrapperIPK17Il2CppGenericInstES4_N6il2cpp8metadata21Il2CppGenericInstHashEN14dense_hash_setIS4_S7_NS4_14EqualsComparerINS6_24Il2CppGenericInstCompareEEENSt3__29allocatorIS4_EEE8IdentityESB_SE_E12expand_arrayEjN21dense_hash_map_traits17integral_constantIbLb0EEE
kfh:_InternalEnumerator_1_get_Current_m1588647567_AdjustorThunk
Ish:_Assembly_UnprotectedGetName_m600830855
i2j:__ZL51GCHandle_t3351438187_CustomAttributesCacheGeneratorP21CustomAttributesCache
t1d:__ZN5physx17MBPUpdateWorkTaskD2Ev
oMh:_InputField_get_caretBlinkRate_m3620074524
oob:__ZN11PreloadData39ShouldIgnoreInGarbageDependencyTrackingEv
OUb:__Z19SetupLODFadeKeywordR17ShaderPassContexti
iBe:_UNITY_FT_Stream_ReadFields
vdj:_RSAPKCS1SignatureFormatter_CreateSignature_m3191980616
_3a:__ZN10builtintex16GetDefaultTexEnvE16TextureDimensionb
jIa:__ZL25CheckCopyTextureArgumentsRK7ApiGLESP11GLESTextureS3_
mfh:_InternalEnumerator_1__ctor_m362401472_AdjustorThunk
WHl:_List_1_AsReadOnly_m2400800347_gshared
c9g:_InternalEnumerator_1_MoveNext_m732551465_gshared
b_f:_EventDelegate_EndInvoke_m2882792152
mBb:__Z29Transfer_Blittable_ArrayFieldI24GenerateTypeTreeTransferyEvRT_R9ArrayInfoRK23StaticTransferFieldInfo
i$k:_ValueType_Equals_m1524437845
clk:__ZL71RuntimePlatform_t4159857903_CustomAttributesCacheGenerator_OSXWebPlayerP21CustomAttributesCache
nM:__ZN4FMOD7SystemI9playSoundE17FMOD_CHANNELINDEXPNS_5SoundEbPPNS_7ChannelE
bsg:__Z123RuntimeInvoker_RuntimeObject_Ray_t3785851493_RuntimeObject_Single_t1397266774_Int32_t2950945753_RuntimeObject_RuntimeObjectPFvvEPK10MethodInfoPvPS4_
W1i:_Int64_GetHashCode_m703091690
s5a:__ZNSt3__26__sortIRPFbRKNS_4pairIN9ShaderLab16FastPropertyNameE10ColorRGBAfEES7_EPS5_EEvT0_SC_T_
dib:__ZN19StreamedBinaryWriteILb0EE21TransferSTLStyleArrayINSt3__26vectorI17SubstanceEnumItemNS2_9allocatorIS4_EEEEEEvRT_17TransferMetaFlags
mXm:_Event_get_commandName_m4275147343
fz:__ZN27AnimationLayerMixerPlayable17LayerMixerProcessEP35AnimationPlayableEvaluationConstantP32AnimationPlayableEvaluationInputP33AnimationPlayableEvaluationOutputM17AnimationPlayableFvS1_S3_S5_EMS_FvS1_S3_S5_ESA_MS_FvS5_S1_S3_S5_ifE
WNj:_Decimal_op_Implicit_m4256234411
rpl:_Dictionary_2_ContainsKeyValuePair_m2150994030_gshared
OK:__ZN12AudioManager23VirtualRedirectTransferER18StreamedBinaryReadILb0EE
F6f:__Z60RuntimeInvoker_RuntimeObject_RuntimeObject_Int16_t2552820387PFvvEPK10MethodInfoPvPS4_
hzm:__ZN28GenericInterfaceFuncInvoker1Ib40CustomAttributeTypedArgument_t2723150157E6InvokeEPK10MethodInfoP12Il2CppObjectS0_
x7i:_StreamReader__ctor_m3941437302
Ttc:__Z57Register_UnityEngine_Transform_INTERNAL_get_localRotationv
mYg:_IPv6Address_get_Address_m1389170741
Hlb:__ZN30RuntimeInitializeOnLoadManager23VirtualRedirectTransferER17RemapPPtrTransfer
qto:dynCall_viif
$ym:_Predicate_1__ctor_m3002344741_gshared
Zsh:_AssemblyName_get_Flags_m1616840602
Nfh:_InternalEnumerator_1_MoveNext_m1590908934_AdjustorThunk
Nik:__ZL86Material_t340375123_CustomAttributesCacheGenerator_Material_DisableKeyword_m1245091008P21CustomAttributesCache
o8i:_StringReader_ReadLine_m2337102945
q2f:_NetworkLobbyManager_ServerReturnToLobby_m375101246
Ece:__ZN5physx2Sc24ConstraintProjectionTree11projectPoseERNS0_19ConstraintGroupNodeE
Uyb:__ZL26Transfer_SimpleNativeClassI17RemapPPtrTransfer8GradientLb0EEvRK29SerializationCommandArgumentsR31RuntimeSerializationCommandInfo
bPf:_SyncHashtable_Add_m3016107307
SA:__ZN17AnimationPlayable26DisconnectNoTopologyChangeEPS_i
jHf:_Boolean_Equals_m2410333903_AdjustorThunk
ejl:_Dictionary_2_System_Collections_Generic_IDictionaryU3CTKeyU2CTValueU3E_get_Keys_m2539716056_gshared
Q4j:__ZL61ISurrogateSelector_t3040401154_CustomAttributesCacheGeneratorP21CustomAttributesCache
wmd:__ZN5physx2Sc21ArticulationJointCore28setSwingLimitContactDistanceEf
ond:__ZNK5physx20NpRigidActorTemplateINS_18PxArticulationLinkEE14getConstraintsEPPNS_12PxConstraintEjj
Zto:dynCall_viifffi
DZl:_List_1_ToArray_m1990123684_gshared
$W:__ZN13UploadHandlerD2Ev
mro:dynCall_viiiiiffi
I5l:_Collection_1_IsSynchronized_m1117834986_gshared
fOl:_List_1_get_Item_m1420961846_gshared
Gpf:_NetworkManager_StartServer_m1387454209
pd:_emscripten_glBlendFuncSeparate
x7l:_Collection_1_Add_m809543251_gshared
D1:__Z20scripting_string_newPKc
esc:__Z43Material_CUSTOM_Internal_CreateWithMaterialP12Il2CppObjectS0_
gLm:_Parser_IsSingleline_m326238187
fNf:_CollectionBase_get_Count_m1708965601
U6e:_HMAC__ctor_m97939284
hmm:_ReadOnlyCollection_1_System_Collections_IList_get_Item_m1005238747_gshared
fWg:_DefaultValueAttribute__ctor_m979342637
h$k:_ValueType_DefaultEquals_m2927252100
TCc:__ZN9JSONWrite12AppendToNodeEPN5Unity9rapidjson12GenericValueINS1_4UTF8IcEE13JSONAllocatorEEPKcRS6_
KHh:_ASN1_ToString_m1340204511
qNc:__ZN16PhysicsManager2D20GetRigidBodyVelocityERK11Rigidbody2D
I9k:_Enumerator_System_Collections_IEnumerator_Reset_m85524874_gshared
p0g:_X509Store_get_Certificates_m2149701265
Ond:__ZNK5physx19NpRigidBodyTemplateINS_18PxArticulationLinkEE27getMaxDepenetrationVelocityEv
dXk:_Type_GetField_m2961003358
_mm:_ReadOnlyCollection_1_System_Collections_Generic_IListU3CTU3E_set_Item_m711370667_gshared
PHk:__ZL144StandaloneInputModule_t2760469101_CustomAttributesCacheGenerator_StandaloneInputModule_t2760469101____allowActivationOnMobileDevice_PropertyInfoP21CustomAttributesCache
nqm:_ReadOnlyCollection_1_System_Collections_Generic_ICollectionU3CTU3E_Remove_m544494910_gshared
Dge:__ZThn8_N5physx2Gu11HeightFieldD1Ev
LQk:_StringBuilder_set_Chars_m3548656617
wNn:__ZN6il2cpp2os4File17GetFileAttributesERKNSt3__212basic_stringIcNS2_11char_traitsIcEENS2_9allocatorIcEEEEPi
aJd:__ZN5physx19NpRigidBodyTemplateINS_14PxRigidDynamicEED0Ev
Eld:__ZNK5physx19PxArticulationJoint19getConcreteTypeNameEv
Ewg:__Z59RuntimeInvoker_Int32_t2950945753_X509ChainStatus_t133602714PFvvEPK10MethodInfoPvPS4_
YD:__ZNSt3__26__sortIRPFbPKN8Animator11AnimatorJobES4_EPS4_EEvT0_S9_T_
TJ:__ZN17AudioCustomFilterD2Ev
rzc:__ZN11IMGUIModule26SetDeveloperConsoleVisibleEb
Kxg:__Z56RuntimeInvoker_Void_t1185182177_MonoResource_t4103430009PFvvEPK10MethodInfoPvPS4_
Eqb:__ZN9Transform16ResetReplacementEv
jeo:_GC_unpromote_black_lists
A_j:__ZL64DebuggerBrowsableState_t747501856_CustomAttributesCacheGeneratorP21CustomAttributesCache
azc:__ZNK8GUIStyle13GetLineHeightEv
AGa:__ZN18GfxFramebufferGLES18ReleaseFramebufferEP17RenderSurfaceBaseP14GfxContextGLES
eGc:__Z18Transfer_BlittableI8JSONReadLb1EiEvRK29SerializationCommandArgumentsR31RuntimeSerializationCommandInfo
Bwh:_EnumBuilder_GetEvent_m4074915332
oY:__ZN19CloudServiceHandler34HandleSaveFileWebRequestPlayerLoopEv
Vdk:__ZL82BigInteger_t2902905090_CustomAttributesCacheGenerator_BigInteger__ctor_m2474659844P21CustomAttributesCache
EA:__ZN7mecanim21ValueArrayReverseCopyEPKNS_18ValueArrayConstantEPKNS_10ValueArrayES2_PS3_PKi
BJ:__Z31GetParentSampleClipFromInstancePN11SoundHandle8InstanceE
oAm:_InternalAsyncResult_get_BytesRead_m3975435112
kac:__ZNK28RectTransformPropertyBinding13GetFloatValueERKN11UnityEngine9Animation10BoundCurveE
J4c:__ZN5physx11PxHitBufferINS_12PxOverlapHitEE14processTouchesEPKS1_j
h2b:__ZN6Camera22StandaloneCustomRenderENS_10RenderFlagEP6ShaderRKN4core12basic_stringIcNS3_20StringStorageDefaultIcEEEEPNS_21PerformRenderFunctionE
hyi:_Array_InternalArray__IndexOf_TisKeyValuePair_2_t2401056908_m4118889689_gshared
orl:_Dictionary_2__ctor_m41237295_gshared
klb:__ZNSt3__26vectorI4PPtrI6ObjectE13stl_allocatorIS3_L18MemLabelIdentifier52ELi16EEE6assignINS_11__wrap_iterIPS3_EEEENS_9enable_ifIXaasr21__is_forward_iteratorIT_EE5valuesr16is_constructibleIS3_NS_15iterator_traitsISD_E9referenceEEE5valueEvE4typeESD_SD_
hUl:_List_1_System_Collections_Generic_ICollectionU3CTU3E_get_IsReadOnly_m1720248049_gshared
hdk:__ZL68X509CertificateCollection_t3399372417_CustomAttributesCacheGeneratorP21CustomAttributesCache
gKd:__ZL22addOrRemoveRigidObjectILb0ELb0ELb0ELb1EN5physx3Scb11RigidStaticEEvRNS0_2Sc5SceneERT3_b
jlo:__ZN6il2cpp2os16ThreadLocalValue8GetValueEPPv
s$g:_X509Certificate2_get_PublicKey_m370665820
dIn:__ZN6il2cpp2vm13MetadataCache14GetGenericInstEPKPK10Il2CppTypej
X4l:_Collection_1_IsSynchronized_m2790814605_gshared
DS:__ZN13AudioListener17ReadExtensionNameEi
hd:invoke_iiidii
Y3m:_MatchDirectConnectInfo_set_privateAddress_m659110150
Ucd:__ZNK5physx2Gu19SupportMapLocalImplINS0_11ConvexHullVEE18doWarmStartSupportEiRNS_6shdfnd3aos5Vec3VE
D3l:_Collection_1_System_Collections_Generic_ICollectionU3CTU3E_get_IsReadOnly_m1419845799_gshared
Mmi:_Enumerator_get_Current_m2641467188_AdjustorThunk
Qgn:_U3CTimedTriggerU3Ec__Iterator0_System_Collections_Generic_IEnumeratorU3CobjectU3E_get_Current_m3822291412
Ued:__ZN5physx6shdfnd4sortIPvNS0_4LessIS2_EENS0_19ReflectionAllocatorINS_2Cm5BlockIS2_Lj8EEEEEEEvPT_jRKT0_RKT1_j
iS:__ZN9AudioClip15InitializeClassEv
dvd:__ZNK5physx9NpPhysics11getNbShapesEv
$q:setThrew
C8h:_SslClientStream_OnLocalPrivateKeySelection_m1934775249
Kbc:__ZL21BuildEmptyCubeTexturePKci11ColorRGBA3217TextureColorSpace
TTj:_GregorianCalendar_GetYear_m854131864
JCj:_SelectionBaseAttribute__ctor_m2749097321
Xka:__ZN14SafeBinaryRead21TransferSTLStyleArrayINSt3__26vectorIN9ShaderLab20SerializedSubProgramENS1_9allocatorIS4_EEEEEEvRT_17TransferMetaFlags
Nyi:_Array_InternalArray__IndexOf_TisX509ChainStatus_t133602714_m48896230_gshared
YQa:__ZN19dynamic_block_arrayI13FileEntryInfoLj32EE4growEj
nGc:__Z15Transfer_StringI8JSONReadLb1EEvRK29SerializationCommandArgumentsR31RuntimeSerializationCommandInfo
mxm:_Comparison_1_BeginInvoke_m816899747_gshared
jDa:__ZN6prcoreL17RemapGenericFloatI17TexFormatRGBFloat15TexFormatRGHalfEEvPKNS_9InnerInfoE
okj:_String_IndexOf_m3406607758
rDe:_sfnt_load_face
NKe:_UNITY_FT_Render_Glyph_Internal
$Ym:_GUISettings_get_cursorFlashSpeed_m873595026
rBe:_UNITY_ft_service_list_lookup
Nyb:__Z18Transfer_BlittableI17RemapPPtrTransferLb1E11ColorRGBA32EvRK29SerializationCommandArgumentsR31RuntimeSerializationCommandInfo
Cyc:__ZN5IMGUI21SelectReceivingWindowER8GUIStateb
sTm:_SyncListChanged__ctor_m2086721812_gshared
i7e:_HMAC_Initialize_m3157696427
$Zc:__ZN5physx2Gu20intersectTriangleBoxERKNS_6PxVec3ES3_S3_S3_S3_
lH:__ZNK26AnimatorControllerPlayable17ValidateGoToStateERiS0_
_td:__ZN5physx10NpMaterial8setFlagsENS_7PxFlagsINS_14PxMaterialFlag4EnumEtEE
XVl:_List_1_System_Collections_ICollection_CopyTo_m3643417403_gshared
QY:__ZN13BaseAllocator13TryDeallocateEPv
SDb:__Z29Transfer_Blittable_ArrayFieldI19StreamedBinaryWriteILb0EEfEvRT_R9ArrayInfoRK23StaticTransferFieldInfo
PWm:_ListPool_1_Release_m1363449253_gshared
l_g:_X509SubjectKeyIdentifierExtension__ctor_m2055934916
xok:__ZL53JsonObject_t3371841791_CustomAttributesCacheGeneratorP21CustomAttributesCache
_li:_Enumerator_Dispose_m2531396701_AdjustorThunk
$gm:_Collection_1_set_Item_m480139225_gshared
Dsb:__ZN16MemoryFileSystem5WriteER13FileEntryDatayPvPy
_Wa:__ZNSt3__26vectorIN12FlareManager10FlareEntryENS_9allocatorIS2_EEE21__push_back_slow_pathIKS2_EEvRT_
umo:_sprintf
Kmk:__ZL67NativeContainerAttribute_t2600515814_CustomAttributesCacheGeneratorP21CustomAttributesCache
H2f:_NetworkLobbyManager_OnClientConnect_m2634110945
ymc:__ZN9Scripting25CreateNullExceptionObjectE18ScriptingObjectPtr
UJh:_PrivateKeyInfo_DecodeRSA_m2889346634
vK:__ZN13AudioListener17RemoveFromManagerEv
ke:_glAttachShader
phf:_ContentSizeFitter_SetLayoutHorizontal_m2833273874
Bbk:__ZL65MissingMethodException_t1274661534_CustomAttributesCacheGeneratorP21CustomAttributesCache
iim:_ReadOnlyCollection_1_System_Collections_IList_RemoveAt_m134366701_gshared
Vhh:_InternalEnumerator_1_get_Current_m1707933208_gshared
Tqe:__ZN5physx6shdfnd8internal8HashBaseINS0_4PairIKtPKcEEtNS0_4HashItEENS1_11HashMapBaseItS6_S9_NS_7profile26WrapperReflectionAllocatorIS6_EEE6GetKeyESD_Lb1EE6createERS4_Rb
h$:__ZNK6Camera19GetProjectionMatrixEv
kuk:__ZL116CharacterController_t1138636865_CustomAttributesCacheGenerator_CharacterController_INTERNAL_get_velocity_m2491100652P21CustomAttributesCache
J$n:__ZNSt3__212basic_stringIDsNS_11char_traitsIDsEENS_9allocatorIDsEEE6appendEPKDsj
Upn:__ZL25UnresolvedVirtualCall_421P12Il2CppObject17Scene_t2348375561iPK10MethodInfo
aee:__ZNK5physx2Cm12DelegateTaskINS_2Sc5SceneEXadL_ZNS3_18clothPreprocessingEPNS_10PxBaseTaskEEEE7getNameEv
sPd:__ZNK5physx7NpScene24getWakeCounterResetValueEv
rId:__ZN5physx20NpRigidActorTemplateINS_14PxRigidDynamicEE17resolveReferencesERNS_24PxDeserializationContextE
$Jk:__ZL70InputField_t3762917431_CustomAttributesCacheGenerator_m_SelectionColorP21CustomAttributesCache
QMh:_InputField_SetToCustomIfContentTypeIsNot_m2813459946
t4l:_Collection_1_System_Collections_IList_IndexOf_m1439404860_gshared
v3f:__Z49RuntimeInvoker_DateTime_t3738529785_RuntimeObjectPFvvEPK10MethodInfoPvPS4_
Zae:__ZNK5physx16PxsSolverEndTask7getNameEv
O_i:_Guid_GetHashCode_m3042133858_AdjustorThunk
L4d:__ZN5physx2Gu32PCMConvexVsMeshContactGeneration20generateLastContactsEv
c1:__Z38PreallocateObjectFromPersistentManagerib
_Wm:_Event_t2956885303_marshal_pinvoke_cleanup
fuk:__ZL57SphereCollider_t2077223608_CustomAttributesCacheGeneratorP21CustomAttributesCache
oQl:_List_1_System_Collections_IList_Remove_m653767631_gshared
iud:__ZThn12_N5physx10NpMaterialD0Ev
k3g:_Interpreter_Backtrack_m2828876822
F7a:__ZNK9Texture2D20GetUnscaledTextureIDEv
JXl:_List_1_get_Capacity_m3666274724_gshared
u4e:_SByte_System_IConvertible_ToType_m4075253447
ike:__ZN5physx6shdfnd4sortIjNS_19SortBoundsPredicateENS0_19ReflectionAllocatorIjEEEEvPT_jRKT0_RKT1_j
h5k:_Dictionary_2_Do_CopyTo_TisNetworkID_t4216585621_TisNetworkID_t4216585621_m2604987948_gshared
Ewd:__ZN5physx7NpShape14onRefCountZeroEv
_Ej:_Transform_INTERNAL_get_worldToLocalMatrix_m2730237241
vFf:_AssemblyLoadEventHandler_Invoke_m1462077361
Ije:__ZL15TestContainmentRKN5physx6PxVec3EPKfjPKNS_2Gu15HullPolygonDataE
smi:_Enumerator_VerifyState_m2762032903_gshared
$xg:__Z51RuntimeInvoker_Void_t1185182177_HitInfo_t3229609740PFvvEPK10MethodInfoPvPS4_
K7a:__ZNK9Texture2D26CanReuploadDataToGfxDeviceEv
QIb:__ZN18StreamedBinaryReadILb0EE21TransferSTLStyleArrayI13dynamic_arrayI4AABBLj4EEEEvRT_17TransferMetaFlags
V6j:__ZL63CodeAccessPermission_t2681295399_CustomAttributesCacheGeneratorP21CustomAttributesCache
hnb:__Z29ClearRepeatingLogMessageStatev
xdh:_InternalEnumerator_1_get_Current_m3191242573_gshared
mIf:_Byte_Equals_m1161982810_AdjustorThunk
cxg:__Z53RuntimeInvoker_Int32_t2950945753_UICharInfo_t75501106PFvvEPK10MethodInfoPvPS4_
Lge:__ZN5physx2Gu11HeightField12loadFromDescERKNS_17PxHeightFieldDescEb
yac:__ZN15QualitySettings12CleanupClassEv
Yfa:__ZN21EnlightenSceneMappingaSERKS_
taa:___cxx_global_var_init_5_1260
eZl:_List_1_GrowIfNeeded_m278824317_gshared
EMa:__ZN7ApiGLESD2Ev
M6k:__ZN23GenericVirtFuncInvoker2I25KeyValuePair_2_t44296099725NetworkSceneId_t717048590P12Il2CppObjectE6InvokeEPK10MethodInfoS3_S1_S3_
Yii:_KeyValuePair_2_get_Key_m2065642340_AdjustorThunk
fUa:__ZN9Transform47ClearTransformHierarchyAndApplyToSerializedDataEv
yMd:__ZN5physx6shdfnd8PoolBaseINS_2Gu30LargePersistentContactManifoldENS0_19ReflectionAllocatorIS3_EEE12allocateSlabEv
dsc:__Z41Material_CUSTOM_Internal_CreateWithShaderP12Il2CppObjectS0_
s5n:__ZN6il2cpp2os6Socket8ShutdownEi
rOh:_InputField_IsSelectionVisible_m3622592134
qVa:__ZN6Camera23VirtualRedirectTransferER19StreamedBinaryWriteILb0EE
Nto:dynCall_fidi
zOn:__ZN15dense_hashtableINSt3__24pairIK10KeyWrapperINS1_IPK9FieldInfoP11Il2CppClassEEEjEES9_17ReflectionMapHashIS8_EN14dense_hash_mapIS9_jSD_NS9_14EqualsComparerINS0_8equal_toIS8_EEEENS0_9allocatorISB_EEE9SelectKeyESI_SK_E12resize_deltaEjj
Q8d:__ZN5physx20getVertexEdgeIndicesERKNS_2Gu11HeightFieldEjjjPNS_8EdgeDataE
oIl:_List_1_TrimExcess_m3433550210_gshared
ERd:__ZN5physx6shdfnd5ArrayIPNS_2Sc8BodyCoreENS0_19ReflectionAllocatorIS4_EEE6resizeEjRKS4_
ynn:__ZL25UnresolvedVirtualCall_291P12Il2CppObject28NetworkInstanceId_t786350175S0_PK10MethodInfo
y6c:__ZN5physx3Cct26CharacterControllerManager16createControllerERNS_9PxPhysicsEPNS_7PxSceneERKNS_16PxControllerDescE
d$m:_GUILayoutEntry__ctor_m2229197035
uX:__ZN11UnityEngine15CloudWebService14RestDownloaderD2Ev
Zjo:__ZN6il2cpp6icalls6System6System14ComponentModel14Win32Exception15W32ErrorMessageEi
Xvh:_EnumBuilder_get_Assembly_m1175292766
f5b:__Z29StdTemplateConversionFunctionIjhEbPvR14SafeBinaryRead
k7:__ZN15dense_hashtableINSt3__24pairIKN9ShaderLab7Program23ShaderKeywordSetAndHashEPKNS2_10SubProgramEEES4_NS3_24ShaderKeywordHashFunctorEN14dense_hash_mapIS4_S8_SA_NS0_8equal_toIS4_EE13stl_allocatorIS9_L18MemLabelIdentifier67ELi16EEE9SelectKeyESD_SG_E15insert_noresizeERKS9_
S1k:_Array_swap_TisCustomAttributeNamedArgument_t287865710_TisCustomAttributeNamedArgument_t287865710_m881919420_gshared
Phb:__ZN14SubstanceInput8TransferI24GenerateTypeTreeTransferEEvRT_
tmc:__ZNK13MonoBehaviour13GetScriptTypeEv
Sge:__ZN5physx6shdfnd8internal8HashBaseIPNS_2Gu12TriangleMeshES5_NS0_4HashIS5_EENS1_11HashSetBaseIS5_S7_NS0_9AllocatorELb1EE6GetKeyES9_Lb1EE15reserveInternalEj
oIh:_DSAManaged_add_KeyGenerated_m2286864968
y_f:_NetworkClient_PrepareForConnect_m439621268
cf:_SDL_FreeRW
LUd:__ZN5physx6shdfnd8PoolBaseINS_2Cm5BlockIhLj128EEENS0_19ReflectionAllocatorIS4_EEE15disposeElementsEv
sGk:__ZL109ExecuteEvents_t3484638744_CustomAttributesCacheGenerator_ExecuteEvents_U3Cs_HandlerListPoolU3Em__0_m391641698P21CustomAttributesCache
Myg:__Z79RuntimeInvoker_Void_t1185182177_Int32_t2950945753_ParameterModifier_t1461694466PFvvEPK10MethodInfoPvPS4_
MRe:__Z34CanvasRenderer_Get_Custom_PropCullP12Il2CppObject
PEd:__ZN5physx3Scb14ParticleSystem14setRestOffsetsEjRKNS_16PxStrideIteratorIKjEERKNS2_IKfEE
ooe:__ZN12MeshCollider11CreateShapeEPvPK9RigidbodyRK8Vector3f
jQ:__ZN20SoundChannelInstance8getDelayE14FMOD_DELAYTYPEPjS1_
Jio:__ZNSt3__26__treeINS_12__value_typeIPvxEENS_19__map_value_compareIS2_S3_NS_4lessIS2_EELb1EEENS_9allocatorIS3_EEE12__find_equalIS2_EERPNS_16__tree_node_baseIS2_EESF_RKT_
B7:__ZNSt3__26vectorIN20GpuProgramParameters15StructParameterENS_9allocatorIS2_EEEC2ERKS5_
F4g:_ArrayReadOnlyList_1_Contains_m232667507_gshared
xSf:_Convert_ToInt32_m2128774575
sXf:_LocalClient_ProcessInternalMessages_m617992324
ucg:__Z77RuntimeInvoker_Boolean_t97287965_IntPtr_t_Int32_t2950945753_SByte_t1669577662PFvvEPK10MethodInfoPvPS4_
byj:_PlayableHandle_GetPlayableType_m432385838_AdjustorThunk
CJe:__ZNSt3__26vectorIN20TextRenderingPrivate8FontImpl13CharacterInfoE13stl_allocatorIS3_L18MemLabelIdentifier1ELi16EEE8__appendEj
h7i:_Stream_Dispose_m2589290611
v:tempBigInt
lBl:_Array_InternalArray__Insert_TisKeyframe_t4206410242_m1558638568_gshared
h9j:__ZL77Convert_t2465617642_CustomAttributesCacheGenerator_Convert_ToByte_m3567528984P21CustomAttributesCache
lf:_emscripten_glVertexAttrib1fv
Ela:__ZNSt3__26vectorIN9ShaderLab20SerializedSubProgram12UAVParameterENS_9allocatorIS3_EEE7reserveEj
Twc:__ZN16memory_pool_implILi28EE15AutoPoolWrapper12UninitializeEPv
qZh:_BigInteger__ctor_m2644482640
kmn:__ZL25UnresolvedVirtualCall_223P12Il2CppObject19Vector4_t3319028937S1_PK10MethodInfo
cqo:__ZSt11__terminatePFvvE
sQd:__ZN5physx13NpVolumeCacheC2EPNS_2Sq17SceneQueryManagerEjj
Qfd:__ZThn24_N5physx2Sc20ArticulationJointSimD1Ev
NM:__ZN12AudioManager14systemCallbackEP11FMOD_SYSTEM24FMOD_SYSTEM_CALLBACKTYPEPvS3_
Iym:_Nullable_1_Equals_m4046255732_gshared
ajg:__Z70RuntimeInvoker_Void_t1185182177_Int32_t2950945753_SceneU26_t1660954847PFvvEPK10MethodInfoPvPS4_
xsm:_ReadOnlyCollection_1_System_Collections_Generic_ICollectionU3CTU3E_Clear_m3451551308_gshared
cEg:__Z96RuntimeInvoker_RuntimeObject_NetworkSceneId_t717048590_RuntimeObject_RuntimeObject_RuntimeObjectPFvvEPK10MethodInfoPvPS4_
hff:_BaseMeshEffect_OnEnable_m3291426649
Yoj:_ClassLibraryInitializer_Init_m988673678
CFf:_AssemblyLoadEventHandler_BeginInvoke_m1281107466
QEd:__ZN5physx2Sc18ParticleSystemCore14setRestOffsetsEjRKNS_16PxStrideIteratorIKjEERKNS2_IKfEE
bXf:_ConnectionArray_get_Count_m4075525745
q_c:__ZN5physx2Gu16testPolyDataAxisERKNS0_8CapsuleVERKNS0_13PolygonalDataEPNS0_12SupportLocalERKNS_6shdfnd3aos6FloatVERSB_RNSA_5Vec3VE
iCl:_Array_InternalArray__set_Item_TisKeyValuePair_2_t442960997_m297609708_gshared
l1a:__ZN16ReflectionProbes16UpdateSampleDataEv
Lel:_ValueCollection_CopyTo_m4100182186_gshared
Nil:_Dictionary_2_ContainsValue_m307040498_gshared
Hid:__ZN5physx2Sc17ParticleSystemSimD0Ev
TWi:__ZN28GenericInterfaceFuncInvoker2I26KeyValuePair_2_t3186678459P12Il2CppObjectxE6InvokeEPK10MethodInfoS2_S2_x
f1m:_ConnectionConfig__ctor_m3078028383
aph:_Comparer_1_get_Default_m53160392_gshared
FTj:_CultureInfo_GetCultureInfo_m56098747
dam:_Collection_1_System_Collections_IEnumerable_GetEnumerator_m2552925836_gshared
ghb:__ZN18ProceduralMaterial23VirtualRedirectTransferER17RemapPPtrTransfer
Wcb:__ZN14Texture2DArray5ResetEv
k$b:__Z20AddActiveLocalLightsR11CullResultsR27LocalLightCullingParametersPPK15SharedLightDataPK8Vector4fRK9IndexListPfRSA_R12ActiveLightsSG_P5RectTIfEP13TargetEyeMask
a_j:__ZL80Hashtable_t1853889766_CustomAttributesCacheGenerator_Hashtable__ctor_m1763145853P21CustomAttributesCache
KRf:_Convert_ToDecimal_m1284148187
_em:_Collection_1__ctor_m3489157029_gshared
bxo:_emscripten_glRenderbufferStorage__wrapper
v1m:_GlobalConfig_get_ThreadAwakeTimeout_m2647936312
fVn:__ZNK6il2cpp2vm14TypeNameParser10NextWillBeEcb
Nye:_cf2_getNormalizedVector
Jok:__ZL86U3CGetGetMethodByReflectionU3Ec__AnonStorey1_t264984308_CustomAttributesCacheGeneratorP21CustomAttributesCache
If:_JS_Sound_Play
xNi:_KeyCollection_GetEnumerator_m1862005650_gshared
YWe:__Z26GetUnityConnectSettingsPtrv
utm:_ReadOnlyCollection_1_System_Collections_IList_set_Item_m1538987737_gshared
Kmh:_DefaultComparer_Compare_m1920986590_gshared
_9k:_Enumerator_get_Current_m790221199_gshared
g7h:_RecordProtocol_ProcessChangeCipherSpec_m15839975
jka:__ZN9ShaderLab16SerializedShader8TransferI14SafeBinaryReadEEvRT_
AOa:__ZN5Mutex7TryLockEv
Gmn:__ZL25UnresolvedVirtualCall_245P12Il2CppObject6Guid_tPK10MethodInfo
nmf:_GridLayoutGroup_set_constraint_m3308895167
Xpk:__ZL103AudioSource_t3935305588_CustomAttributesCacheGenerator_AudioSource_ReadExtensionPropertyValue_m72717540P21CustomAttributesCache
TQg:_ConstructionCallDictionary_SetMethodProperty_m3145285304
O0i:_Int32_System_IConvertible_ToUInt32_m3557270157
Pgg:__Z243RuntimeInvoker_Void_t1185182177_Int16_t2552820387_RuntimeObject_Int32_t2950945753_Int32_t2950945753_Int32_t2950945753_SByte_t1669577662_SByte_t1669577662_SByte_t1669577662_SByte_t1669577662_Int16_t2552820387_SByte_t1669577662_SByte_t1669577662PFvvEPK10MethodInfoPvPS4_
y5g:_InternalEnumerator_1_System_Collections_IEnumerator_get_Current_m1503522504_gshared
qD:__ZN7mecanim8skeleton13SkeletonAlignEPKNS0_8SkeletonERKN4math7_float4ES7_i
Ccc:__ZN19ShaderPropertySheet16SetVectorIndexedEN9ShaderLab16FastPropertyNameEifRK8Vector4fNS_8SetFlagsE
yWk:_Type_get_IsAbstract_m1120089130
BGj:_Vector3_get_normalized_m2454957984_AdjustorThunk
gs:__ZN14SafeBinaryRead21TransferSTLStyleArrayIN4core12basic_stringIcNS1_20StringStorageDefaultIcEEEEEEvRT_17TransferMetaFlags
tnl:_Dictionary_2_OnDeserialization_m2213269378_gshared
Fen:_DownloadHandlerBuffer_InternalGetData_m3771716959
JMm:_UriFormatException__ctor_m1115096473
xbh:_InternalEnumerator_1_Dispose_m2818366163_AdjustorThunk
kXg:_Dns_GetHostEntry_m3727355895
bvi:_Array_InternalArray__IEnumerable_GetEnumerator_TisSlot_t384495010_m460993382_gshared
MYl:_List_1__ctor_m2203182218_gshared
vom:_ReadOnlyCollection_1_Contains_m2030784462_gshared
cYn:__ZN15dense_hashtableINSt3__24pairIK10KeyWrapperINS1_IP11Il2CppClassjEEES4_EES6_N6il2cpp8metadata14ArrayClassHashEN14dense_hash_mapIS6_S4_SB_NS6_14EqualsComparerINSA_17ArrayClassCompareEEENS0_9allocatorIS8_EEE9SelectKeyESF_SH_E9copy_fromERKSK_j
J5b:__Z29StdTemplateConversionFunctionIayEbPvR14SafeBinaryRead
NJd:__ZNK5physx20NpRigidActorTemplateINS_13PxRigidStaticEE14getConstraintsEPPNS_12PxConstraintEjj
P0c:__ZN25MeshMTDGenerationCallbackD0Ev
PGg:__Z55RuntimeInvoker_Boolean_t97287965_Nullable_1_t2603721331PFvvEPK10MethodInfoPvPS4_
M0m:_GUIUtility_IsExitGUIException_m3644066650
XX:__ZN11UnityEngine15CloudWebService14DataDispatcher4StopEv
Mbm:_Collection_1_System_Collections_IList_get_Item_m3445701947_gshared
G$i:_Int16_System_IConvertible_ToUInt64_m134975563
Gla:__ZNSt3__26vectorIN9ShaderLab20SerializedSubProgram12UAVParameterENS_9allocatorIS3_EEE8__appendEj
G1j:__ZL68TargetInvocationException_t4266643902_CustomAttributesCacheGeneratorP21CustomAttributesCache
eSn:__ZNK15dense_hashtableINSt3__24pairIK10KeyWrapperINS1_IPK9EventInfoP11Il2CppClassEEEjEES9_17ReflectionMapHashIS8_EN14dense_hash_mapIS9_jSD_NS9_14EqualsComparerINS0_8equal_toIS8_EEEENS0_9allocatorISB_EEE9SelectKeyESI_SK_E12test_deletedERK24dense_hashtable_iteratorISB_S9_SD_SM_SI_SK_E
uyc:__ZN5IMGUI9GUIWindow5OnGUIER8GUIState
s9g:_InternalEnumerator_1_System_Collections_IEnumerator_get_Current_m1702128230_gshared
Qij:_Single_System_IConvertible_ToDecimal_m325860800_AdjustorThunk
szl:_Array_InternalArray__ICollection_CopyTo_TisSingle_t1397266774_m455540885_gshared
UPa:__ZN17ScriptingGCHandle7AcquireE18ScriptingObjectPtr25ScriptingGCHandleWeakness
zue:__ZN19CharacterController12CleanupClassEv
ZXm:_GUI_Label_m3404668030
GPe:__ZN2UI14CanvasRenderer14AttachToCanvasER8JobFencePNS_6CanvasENS0_15InstructionTypeE
Pod:__ZN5physx12NpConstraint8comShiftEPNS_12PxRigidActorE
g9k:_Enumerator__ctor_m1734342590_gshared
mso:dynCall_iifiii
Kil:_Dictionary_2_Add_m643497856_gshared
Zfi:_HashSet_1__ctor_m620629637_gshared
jBa:__Z21HasAlphaTextureFormat13TextureFormat
UR:__ZN12AudioManager6UpdateEv
cBa:__ZN14ImageReference9BlitImageERKS_NS_8BlitModeE
Tu:__ZN8Animator12AddToManagerEv
Bxi:_Array_IndexOf_TisUInt32_t2560061978_m3410184020_gshared
gaj:_MissingFieldException__ctor_m3742452630
g1g:_X509Chain__ctor_m2674663382
_Ki:_Enumerator_System_Collections_IEnumerator_Reset_m1959936800_AdjustorThunk
qZc:__ZNK5physx2Gu16SupportLocalImplINS0_11ConvexHullVEE9doSupportERKNS_6shdfnd3aos5Vec3VERNS5_6FloatVESA_
cLb:__ZN23CachedSerializationDataD2Ev
h1b:__ZNK25CameraStackRenderingState31CalculateStereoCameraTargetTypeEv
lWc:__ZNK5physx3Cct13BoxController8getActorEv
N0a:__ZN14RenderSettings23VirtualRedirectTransferER14SafeBinaryRead
tjh:_InternalEnumerator_1_get_Current_m114240259_gshared
SPc:__ZNK13b2CircleShape5CloneEP16b2BlockAllocator
a9n:__ZN6il2cpp2os10ThreadImpl15CurrentThreadIdEv
e6k:_Array_InternalArray__get_Item_TisLink_t3209266973_m1574224299_gshared
o5m:_Request_get_projectId_m2576041751
oPf:_Queue_CopyTo_m737385843
FYa:__ZN17GlobalGameManager8TransferI17RemapPPtrTransferEEvRT_
AFk:__ZL73FieldWithTarget_t3058750293_CustomAttributesCacheGenerator_m_StaticStringP21CustomAttributesCache
Che:__ZN5physx6shdfnd8internal8HashBaseIPNS_2Gu12TriangleMeshES5_NS0_4HashIS5_EENS1_11HashSetBaseIS5_S7_NS0_9AllocatorELb1EE6GetKeyES9_Lb1EE5eraseERKS5_
Wej:_SymmetricAlgorithm_get_Key_m3241860519
iPh:_U3CMouseDragOutsideRectU3Ec__Iterator1_Reset_m2233410497
z4h:_ClientSessionInfo_get_HostName_m2118440995
F_m:_GUISettings_get_doubleClickSelectsWord_m3025565005
t0a:__ZN16LevelGameManager8TransferI18StreamedBinaryReadILb0EEEEvRT_
lHe:_UNITY_tt_face_load_fpgm
$Ta:__Z17IsObjectAvailablei
oib:__ZN12InputManagerD0Ev
Y$l:_Queue_1_Peek_m1713833142_gshared
B5j:__ZL64DSASignatureFormatter_t2007981259_CustomAttributesCacheGeneratorP21CustomAttributesCache
xPl:_List_1_System_Collections_IList_set_Item_m4116686017_gshared
hTk:_ExecutionContext_Capture_m681135907
Onl:_Dictionary_2_System_Collections_IDictionary_Add_m4011968134_gshared
Bjh:_InternalEnumerator_1_System_Collections_IEnumerator_Reset_m1775752715_AdjustorThunk
lpd:__ZN5physx2Sc9RigidCore20removeShapeFromSceneERNS0_9ShapeCoreEb
tHb:__Z18Transfer_BlittableI18StreamedBinaryReadILb0EELb1EtEvRK29SerializationCommandArgumentsR31RuntimeSerializationCommandInfo
M7g:_InternalEnumerator_1_System_Collections_IEnumerator_get_Current_m2889979481_AdjustorThunk
Yoo:_posix_memalign
GCk:__ZL71NetworkIdentity_t3299519057_CustomAttributesCacheGenerator_m_ServerOnlyP21CustomAttributesCache
eke:__ZN5physx11RTreeCooker18buildFromTrianglesERNS_2Gu5RTreeEPKNS_6PxVec3EjPKtPKjjRNS_6shdfnd5ArrayIjNSB_19ReflectionAllocatorIjEEEEPNS0_13RemapCallbackEfNS_17PxMeshCookingHint4EnumE
wjd:__ZN5physx6shdfnd5ArrayIPvNS0_15InlineAllocatorILj256ENS0_19ReflectionAllocatorINS_14NpArticulationEEEEEE15growAndPushBackERKS2_
Kzj:_Rect_get_position_m2115952571
kcn:_AesManaged_GenerateKey_m2004209814
omm:_ReadOnlyCollection_1_get_Item_m4005849861_gshared
zXh:_Slider_get_direction_m3871593184
HHh:_ASN1_GetBytes_m3305539297
xZl:_List_1_Remove_m2092116835_gshared
pnk:__ZL86Logger_t274032455_CustomAttributesCacheGenerator_Logger_LogFormat_m3030796110____args2P21CustomAttributesCache
M9j:__ZL77Convert_t2465617642_CustomAttributesCacheGenerator_Convert_ToSByte_m717245755P21CustomAttributesCache
rmh:_DefaultComparer__ctor_m2039558311_gshared
g1:__ZNK15MonoScriptCache7ReleaseEv
xCn:__ZN6il2cpp2vm5Class13HasReferencesEP11Il2CppClass
q6d:__ZN5physx9PxTaskMgrC2EPNS_15PxCpuDispatcherEPNS_15PxGpuDispatcherEPNS_15PxSpuDispatcherE
XJf:_CLSCompliantAttribute__ctor_m581760440
Yg:_glBindTexture
lno:_snprintf
R2i:_InvalidCastException__ctor_m2551002860
_ol:_Dictionary_2_InitArrays_m1929230533_gshared
tyo:_emscripten_glVertexAttrib1fv__wrapper
Hob:__Z36scripting_liveness_calculation_begin17ScriptingClassPtriPFvPP12Il2CppObjectiPvES3_PFvvES7_
fsn:_AudioExtensionManager_RemoveExtensionFromManager_m442924172
aam:_Collection_1__ctor_m1961447010_gshared
Rwo:_emscripten_glGetProgramInfoLog__wrapper
SF:__ZN25AnimatedPropertyEvaluator29BindCurveToScriptingObjectPtrERKN13AnimationClip10FloatCurveEj18ScriptingObjectPtrb
U6j:__ZL80AllowPartiallyTrustedCallersAttribute_t1828959166_CustomAttributesCacheGeneratorP21CustomAttributesCache
u1l:_Collection_1_SetItem_m1090516645_gshared
QHk:__ZL52InputMode_t3382566315_CustomAttributesCacheGeneratorP21CustomAttributesCache
c3:__ZN17PersistentManager23DestroyFromFileInternalEi
Wqj:_Display__ctor_m501911701
Ejm:_ReadOnlyCollection_1_System_Collections_Generic_IListU3CTU3E_Insert_m1020890112_gshared
Iln:__ZL25UnresolvedVirtualCall_193P12Il2CppObject22OrderBlock_t1585977831S1_PK10MethodInfo
_if:_Dropdown_get_onValueChanged_m2462066659
nif:_DefaultControls_SetDefaultTextValues_m1943359795
sWb:__Z19SetupMotionMatricesR6CameraR18RPDataMotionVector
Gxn:__ZL7log2_64y
qWg:_TypeConverterAttribute_Equals_m1580461255
ME:__ZN26AnimatorControllerPlayable18PrepareForPlaybackERN7mecanim6memory9AllocatorE
iF:__ZN8Animator11AnimatorJob11AddPlayableEP17AnimationPlayablef
imf:_GridLayoutGroup_get_cellSize_m2967185053
xYd:__ZN5physx19PxsMaterialCombiner24combineIsotropicFrictionERKNS_15PxsMaterialDataES3_
k9l:_Collection_1_IsValidItem_m2323075829_gshared
Wjl:_Dictionary_2__ctor_m3698674882_gshared
Xvk:__ZL105CreateMatchRequest_t2600446299_CustomAttributesCacheGenerator_CreateMatchRequest_get_advertise_m865484440P21CustomAttributesCache
i1h:_RSAManaged_ToXmlString_m2369501989
d8g:_InternalEnumerator_1_get_Current_m3081223448_gshared
AXm:_Event_get_isMouse_m1058251071
MZa:__ZN10VertexDataC2ERKS_17ShaderChannelMask10MemLabelId
WFd:__ZN5physx22NpParticleBaseTemplateINS_16PxParticleSystemENS_16NpParticleSystemEE20lockParticleReadDataEv
Fwc:__Z66Register_UnityEngine_Networking_UnityWebRequest_get_isNetworkErrorv
V1l:_Collection_1_IndexOf_m3762683187_gshared
UBe:_otv_JSTF_validate
E7:__ZN22CreateGpuProgramOutputC2Ev
y_h:_BigInteger_op_LessThanOrEqual_m3925173639
fsj:_PersistentCallGroup_Initialize_m4253175514
BGf:_Boolean_System_IConvertible_ToChar_m4279513009_AdjustorThunk
dVg:_DictionaryNodeEnumerator__ctor_m1005316675
YOh:_InputField_get_layoutPriority_m2945430764
$ph:_NumberFormatter_ScaleOrder_m3813786990
iFl:_List_1_GetEnumerator_m239622569_gshared
Bqg:__Z43RuntimeInvoker_VerticalWrapMode_t2936607737PFvvEPK10MethodInfoPvPS4_
O9h:_EqualityComparer_1__ctor_m2241711498_gshared
Kom:_ReadOnlyCollection_1_System_Collections_ICollection_CopyTo_m23306393_gshared
VJh:_PrivateKeyInfo_DecodeDSA_m771724585
nie:__ZN5physx7Cooking16cookTriangleMeshERKNS_18PxTriangleMeshDescERNS_14PxOutputStreamE
SPn:__ZNK15dense_hashtableINSt3__24pairIK10KeyWrapperINS1_IPK10MethodInfoP11Il2CppClassEEEjEES9_17ReflectionMapHashIS8_EN14dense_hash_mapIS9_jSD_NS9_14EqualsComparerINS0_8equal_toIS8_EEEENS0_9allocatorISB_EEE9SelectKeyESI_SK_E23find_position_with_hashERSA_j
wUe:__Z38CustomEventData_CUSTOM_InternalDestroyP12Il2CppObject
TFk:__ZL53EventHandle_t600343995_CustomAttributesCacheGeneratorP21CustomAttributesCache
Mue:__ZN14CompletionTask4InitEPN5physx7PxSceneE
TLf:_SynchronizedArrayListWrapper_get_SyncRoot_m3862302789
Igd:__ZN5physx2Sc7ElementD0Ev
hZk:_UInt32_System_IConvertible_ToSByte_m1061556466
Lke:__ZN5physx6shdfnd10Foundation7releaseEv
VNg:_WellKnownClientTypeEntry__ctor_m2471908952
wCn:__ZN6il2cpp2vm5Class4InitEP11Il2CppClass
vf:_emscripten_glBindBuffer
prh:_NumberFormatter_FormatRoundtrip_m19342689
ZLg:_RemotingServices_CreateClientProxyForContextBound_m783705199
Arg:__Z30RuntimeInvoker_Axis_t809944411PFvvEPK10MethodInfoPvPS4_
cjc:__ZNK15GUIEventManager15GetEventAtIndexEi
Bzm:_InternalAsyncResult_get_ProceedAfterHandshake_m2508379800
XPe:__ZN2UI14CanvasRenderer17SyncDirtyElementsER8JobFence
pHb:__Z18Transfer_BlittableI18StreamedBinaryReadILb0EELb0ExEvRK29SerializationCommandArgumentsR31RuntimeSerializationCommandInfo
fJf:_Convert_ToUInt16_m2952781888
eDi:_Enumerator_System_Collections_IEnumerator_get_Current_m3816090481_gshared
J9m:_JsonArray__ctor_m195583587
dxl:_DefaultComparer_Equals_m2480133610_gshared
IJl:_List_1_System_Collections_IList_get_Item_m2115620546_gshared
hll:_Dictionary_2_System_Collections_Generic_ICollectionU3CSystem_Collections_Generic_KeyValuePairU3CTKeyU2CTValueU3EU3E_Remove_m271528351_gshared
W6:__ZNK9ShaderLab21ShaderRasterStateDesc16ToGfxRasterStateEPK19ShaderPropertySheetS3_R14GfxRasterState
H1k:_Array_Sort_TisVector3_t3722313464_m1915176437_gshared
qlo:__ZN6il2cpp2os9EventImplC2Ebb
UHh:_BitConverterLE_ULongFromBytes_m1677445591
QFl:_List_1_System_Collections_IList_get_IsFixedSize_m3566150119_gshared
Zs:__ZN4PPtrI13MonoBehaviourE8TransferI19StreamedBinaryWriteILb0EEEEvRT_
hNl:_List_1_get_Item_m2113769949_gshared
_Rh:_MaskableGraphic_OnTransformParentChanged_m329502413
$Vg:_NameValueCollection__ctor_m4090053322
ECj:_ScriptableObject_t2528358522_marshal_pinvoke
U7:__Z20IsMatrixBuiltinParamPKcPi
ESn:__ZN6il2cpp2gc19AppendOnlyGCHashMapINSt3__24pairIPK10MethodInfoP11Il2CppClassEEP11Il2CppArray17ReflectionMapHashIS9_ENS2_8equal_toIS9_EEEC2Ev
cyk:__ZL88MatchDesc_t3827228697_CustomAttributesCacheGenerator_MatchDesc_set_networkId_m1506267256P21CustomAttributesCache
ngj:_String_memcpy4_m979367827
mij:_SecurityFrame_t1422462475_marshal_pinvoke
Arf:_NetworkManager_GetStartPosition_m4279079628
jCi:_Enumerator_Reset_m1094487391_gshared
ZPn:__ZN15dense_hashtableINSt3__24pairIK10KeyWrapperINS1_IPK10MethodInfoP11Il2CppClassEEEjEES9_17ReflectionMapHashIS8_EN14dense_hash_mapIS9_jSD_NS9_14EqualsComparerINS0_8equal_toIS8_EEEENS0_9allocatorISB_EEE9SelectKeyESI_SK_E16reset_thresholdsEv
lRk:_UnicodeEncoding_GetBytesInternal_m1902824297
jcc:__ZN8Renderer19PostInitializeClassEv
nxi:_Array_FindIndex_TisRuntimeObject_m2504082708_gshared
mHh:__ZN21InterfaceFuncInvoker2IbP22BigInteger_t2902905089iE6InvokeEjP11Il2CppClassP12Il2CppObjectS1_i
ZSm:_DataResponseDelegate_1_EndInvoke_m1839853274_gshared
zEm:_X509Chain_FindCertificateRoot_m1937726457
t7i:_StreamAsyncResult_get_AsyncWaitHandle_m3390046559
Dho:__ZN6il2cpp6icalls8mscorlib6System8Delegate23CreateDelegate_internalEP20Il2CppReflectionTypeP12Il2CppObjectP22Il2CppReflectionMethodb
hFi:_Enumerator_System_Collections_IEnumerator_get_Current_m921113401_AdjustorThunk
zZf:_NetworkBehaviour_SetSyncVarGameObject_m2247808695
UZi:__ZN21InterfaceFuncInvoker2IP12Il2CppObject28NetworkInstanceId_t786350175S1_E6InvokeEjP11Il2CppClassS1_S2_S1_
ENf:_DictionaryEntry_get_Value_m618120527_AdjustorThunk
wKb:__ZN18DelayedCallManager18CancelCallDelayed2E4PPtrI6ObjectEPF15CallObjectStatePS1_PvES7_
nvj:_Matrix4x4_GetHashCode_m4034747639
GNa:__ZN25ThreadsafeLinearAllocator10ReallocateEPvji
uub:__Z18Transfer_BlittableI14SafeBinaryReadLb1E11QuaternionfEvRK29SerializationCommandArgumentsR31RuntimeSerializationCommandInfo
Smd:__ZNK5physx18PxArticulationLink8isKindOfEPKc
Dja:__ZN18SpriteAtlasManagerD0Ev
kei:_GenericEqualityComparer_1__ctor_m1058369027_gshared
zPd:__ZN5physx13NpVolumeCache13onOriginShiftERKNS_6PxVec3E
iug:__Z57RuntimeInvoker_Boolean_t97287965_KeyValuePair_2_t71524366PFvvEPK10MethodInfoPvPS4_
Ueb:__ZN10Matrix4x4f8TransferI14SafeBinaryReadEEvRT_
Pn:FUNCTION_TABLE_vifiiiiiiiiiiiiiiiiii
u5e:_CryptographicUnexpectedOperationException__ctor_m2381988196
hTn:__ZN14dense_hash_mapI10KeyWrapperIPK22Il2CppGenericParameterEPK24MonoGenericParameterInfoN6il2cpp5utils11PointerHashIS2_EENS4_14EqualsComparerINSt3__28equal_toIS3_EEEENSD_9allocatorINSD_4pairIKS4_S7_EEEEE15set_deleted_keyERSJ_
GE:__ZN14AvatarPlayback8StopTimeEv
Ybh:_InternalEnumerator_1_System_Collections_IEnumerator_get_Current_m4213507601_gshared
gea:__Z6AppendRKN4core12basic_stringIcNS_20StringStorageDefaultIcEEEEPKc
ZRf:_Convert_ToDouble_m996590115
Gob:__ZL14OnWorldStoppedv
kvi:_Array_InternalArray__IEnumerable_GetEnumerator_TisCustomAttributeNamedArgument_t287865710_m523021714_gshared
lzk:__ZL113MatchInfoSnapshot_t3166422189_CustomAttributesCacheGenerator_MatchInfoSnapshot_set_directConnectInfos_m4174501432P21CustomAttributesCache
eEb:__Z18Transfer_BlittableI18StreamedBinaryReadILb1EELb0E8Vector3fEvRK29SerializationCommandArgumentsR31RuntimeSerializationCommandInfo
UVg:__KeysEnumerator_MoveNext_m4289758929
GOf:_HashKeys_get_SyncRoot_m3757723936
F0m:_GUIUtility_RemoveCapture_m1294193818
dxa:__ZN7ApiGLES18ClearBufferSubDataEjN2gl12BufferTargetEll
TG:__ZN8Animator7SetBoolEib
loc:__Z37Camera_Get_Custom_PropAllCamerasCountv
pdb:__ZN14Texture2DArray8TransferI18StreamedBinaryReadILb0EEEEvRT_
pYl:_List_1_CopyTo_m2746988508_gshared
mqd:__ZN5physx15NpActorTemplateINS_18PxArticulationLinkEED2Ev
t_b:__Z18ApplyOcclusionMaskR19ProbeOcclusionCacheRK17LightProbeContextRK10RenderNodeb
Mua:__ZN13GfxDeviceGLES13AfterDrawCallEv
OIe:_Split_Cubic
vb:invoke_fiiii
HOh:_InputField_OnSubmit_m3583210804
qRi:_ShimEnumerator_get_Value_m1878724567_gshared
ksk:__ZL72GUISkin_t1244372282_CustomAttributesCacheGenerator_m_horizontalScrollbarP21CustomAttributesCache
KZi:_Transform_1_Invoke_m2943181418_gshared
Lom:_ReadOnlyCollection_1_System_Collections_IEnumerable_GetEnumerator_m2487555344_gshared
BZm:_TextEditor_MoveGraphicalLineEnd_m1598222378
xso:dynCall_viiiiiiffii
SLm:_Uri_CheckHostName_m2213216182
kdm:_Collection_1_Clear_m725227866_gshared
G5k:_Mesh_SetUvsImpl_TisVector2_t2156229523_m3009194955_gshared
rxf:_AnimationMessage_Serialize_m292377326
H4l:_Collection_1_CopyTo_m819221634_gshared
I$h:_HMAC_set_Key_m3535779141
Erd:__ZN5physx2Sc16ArticulationCore26setMaxProjectionIterationsEj
t4c:__ZN26IntersectAnyVsMeshCallbackILi1ELb0EED2Ev
Lqm:_ReadOnlyCollection_1_get_Count_m2578475585_gshared
hjh:_InternalEnumerator_1_System_Collections_IEnumerator_Reset_m729791527_AdjustorThunk
YKf:_ArrayListWrapper_Contains_m2641184447
AIe:_ft_black_render
Rbg:__Z177RuntimeInvoker_Int32_t2950945753_RuntimeObject_Int32_t2950945753_Int32_t2950945753_RuntimeObject_Int32_t2950945753_EncoderFallbackBufferU26_t2343550713_CharU5BU5DU26_t3299466565PFvvEPK10MethodInfoPvPS4_
Vto:dynCall_viiifi
NFa:__ZN18GfxFramebufferGLES20ActiveContextChangedEPP17RenderSurfaceBaseS2_
gKf:_ArrayList_get_IsFixedSize_m24366329
lcm:_Collection_1_System_Collections_ICollection_CopyTo_m3939382295_gshared
EFa:__Z19PluginsRenderMarkeri
slh:_InternalEnumerator_1__ctor_m2307827786_AdjustorThunk
zG:__ZN10HumanTrait18InitializeBoneNameEv
v8e:_RijndaelManaged_GenerateKey_m1736287430
Nla:__ZNSt3__26vectorIN9ShaderLab20SerializedSubProgram15StructParameterENS_9allocatorIS3_EEE6assignINS_11__wrap_iterIPS3_EEEENS_9enable_ifIXaasr21__is_forward_iteratorIT_EE5valuesr16is_constructibleIS3_NS_15iterator_traitsISC_E9referenceEEE5valueEvE4typeESC_SC_
Vcb:__ZN14Texture2DArray21AwakeFromLoadThreadedEv
pIb:__Z29Transfer_Blittable_ArrayFieldI18StreamedBinaryReadILb0EEyEvRT_R9ArrayInfoRK23StaticTransferFieldInfo
ZDj:_Touch_get_position_m3109777936_AdjustorThunk
Z3n:__ZNSt3__214__split_bufferIN6il2cpp2vm5Image20EmbeddedResourceDataERNS_9allocatorIS4_EEEC2EjjS7_
Azd:__ZNK5physx7NpCloth25getNbSelfCollisionIndicesEv
rGh:_Kernel_multiByteDivide_m4249920547
Lff:_CanvasScaler_set_screenMatchMode_m2975492035
$J:__ZN12AudioManager17RemoveAudioSourceEP11AudioSource
AYf:_NetworkAnimator_OnSerialize_m3272371663
q0g:_X509Certificate2Collection_Add_m3151757943
kYj:__ZL83RuntimeArray_CustomAttributesCacheGenerator_RuntimeArray____LongLength_PropertyInfoP21CustomAttributesCache
gph:_Comparer_1__cctor_m951016718_gshared
RUm:_SyncList_1_SendMsg_m2203968367_gshared
HWf:_NetworkBehaviour_GetInvokerForHash_m1411600803
RMf:_CaseInsensitiveHashCodeProvider_get_DefaultInvariant_m4264275163
Qfe:__ZNK5physx2Gu10ConvexMesh17getReferenceCountEv
lbk:__ZL67IndexOutOfRangeException_t1578797820_CustomAttributesCacheGeneratorP21CustomAttributesCache
hcg:__Z195RuntimeInvoker_Int32_t2950945753_RuntimeObject_Int32_t2950945753_Int32_t2950945753_Int32_t2950945753_RuntimeObject_DecoderFallbackBufferU26_t3866396827_ByteU5BU5DU26_t4057885439_SByte_t1669577662PFvvEPK10MethodInfoPvPS4_
QPd:__ZN5physx2Sc5Scene22setNbContactDataBlocksEj
z_m:_GUISkin_get_textField_m1918733755
FT:__ZN5physx14PxLightCpuTask12addReferenceEv
uZa:__ZNK15InstancingProps35FillInstanceBufferDispatchConstantsIN10Instancing14RenderLoopArgsEEEvPPvjjRK19ShaderPropertySheetRKT_
mvg:__Z86RuntimeInvoker_Int32_t2950945753_Color32_t2600501292_Color32_t2600501292_RuntimeObjectPFvvEPK10MethodInfoPvPS4_
T9a:__ZN21EnlightenSceneMapping8TransferI19StreamedBinaryWriteILb0EEEEvRT_
a6n:__ZN6il2cpp2gc16GarbageCollector19InitializeFinalizerEv
GA:__ZN7mecanim8skeleton18CreateSkeletonMaskEjPKNS0_19SkeletonMaskElementERNS_6memory9AllocatorE
lum:_ReadOnlyCollection_1_System_Collections_Generic_ICollectionU3CTU3E_get_IsReadOnly_m2508509261_gshared
$xc:__ZN10GUIManager10DoGUIEventER10InputEventb
mAb:__Z35Transfer_Blittable_FixedBufferFieldI24GenerateTypeTreeTransferxEvRK29SerializationCommandArgumentsR31RuntimeSerializationCommandInfo
ICe:_otv_LangSys_validate
NAj:_RectOffset_get_right_m2294081512
RAh:__ZN25GenericVirtActionInvoker1IP20Delegate_t1188392813E6InvokeEPK10MethodInfoP12Il2CppObjectS1_
kCl:_Array_InternalArray__set_Item_TisLink_t544317964_m1234244240_gshared
rHe:_UNITY_TT_Init_Glyph_Loading
Ati:_Array_InternalArray__ICollection_Remove_TisPendingPlayer_t306375494_m1310485107_gshared
tVb:__Z20CalculateSqrDistanceRK8Vector3fRK4AABB
ejf:_OptionData_get_text_m2997376818
aKi:_Enumerator__ctor_m324536319_gshared
kNi:_KeyCollection_get_Count_m1441964482_gshared
Pjj:_String_System_IConvertible_ToChar_m863771412
Cve:__ZN14PhysicsManager15ProcessContactsEv
g3e:_SerializationInfo_GetBoolean_m1756153320
X1c:__ZN21BoxTraceSegmentReport7onEventEjPj
zmd:__ZN5physx2Sc21ArticulationJointCore13setSwingLimitEff
yO:__Z32AudioMixerDuckingProcessCallbackP21UnityAudioEffectStatePfS1_jii
HZc:__ZL20HullProjectionCB_BoxRKN5physx2Gu13PolygonalDataERKNS_6PxVec3ERKNS_2Cm8Matrix34ERKNS7_23FastVertex2ShapeScalingERfSE_
Svj:_Mesh_get_uv2_m3615020997
vjm:_ReadOnlyCollection_1_Contains_m2979956790_gshared
NRd:__ZN5physx17PxcNpMemBlockPool19releaseUnusedBlocksEv
C9h:_EqualityComparer_1_System_Collections_IEqualityComparer_Equals_m4172006498_gshared
q2d:__ZN5physx14PxsAABBManager21selfCollideAggregatesEPKNS_19AggregateSortedDataE
TK:__ZN12AudioManager8TransferI24GenerateTypeTreeTransferEEvRT_
JDl:_Array_qsort_TisOrderBlock_t1585977831_m3322202512_gshared
$uj:_Mathf_Round_m4098141538
hAa:__Z25GetBytesFromTextureFormat13TextureFormat
Ldb:__ZN9Texture3D19UnloadFromGfxDeviceEb
l$n:__ZN6il2cpp6icalls8mscorlib6System9Threading6Thread20Thread_free_internalEP12Il2CppThreadi
yae:__ZN5physx12_GLOBAL__N_112innerProductERKNS_14Px1DConstraintERS1_RKNS0_9MassPropsE
vyb:__Z18Transfer_BlittableI17RemapPPtrTransferLb0EsEvRK29SerializationCommandArgumentsR31RuntimeSerializationCommandInfo
K2l:_Collection_1_get_Item_m4103760396_gshared
TVg:__KeysEnumerator_get_Current_m2996478063
msh:_AmbiguousMatchException__ctor_m2012725345
lso:dynCall_iifff
tfl:__ZN21InterfaceFuncInvoker0I26KeyValuePair_2_t3373118172E6InvokeEjP11Il2CppClassP12Il2CppObject
LF:__ZN16MecanimAnimation25RegisterIAnimationBindingEPKN5Unity4TypeEiP17IAnimationBinding
U2:__Z32scripting_class_get_assemblyname17ScriptingClassPtr
PVe:__ZN11UnityEngine15PlatformWrapper15GetVRDeviceNameEv
wNk:__ZL109LayoutUtility_t2745813735_CustomAttributesCacheGenerator_LayoutUtility_U3CGetFlexibleWidthU3Em__3_m1091238571P21CustomAttributesCache
Yrl:_Dictionary_2_ContainsValue_m1697001390_gshared
jqg:__Z99RuntimeInvoker_Boolean_t97287965_Int32_t2950945753_PointerEventDataU26_t867828220_SByte_t1669577662PFvvEPK10MethodInfoPvPS4_
E_d:__ZN5physx26PxcFrictionPatchStreamPairC2ERNS_17PxcNpMemBlockPoolE
Eah:_InternalEnumerator_1_get_Current_m2128158355_AdjustorThunk
ILa:__ZN9GfxDevice21RegisterNativeTextureE9TextureIDi16TextureDimension
Wkf:_GraphicRegistry__ctor_m1851575309
jck:__ZL53TypeFilter_t2356120900_CustomAttributesCacheGeneratorP21CustomAttributesCache
Tio:__ZN6il2cpp6icalls8mscorlib6System10Reflection4Emit11TypeBuilder20create_generic_classEP27Il2CppReflectionTypeBuilder
Jdj:_SHA1Internal_FillBuff_m3615718415
aui:_PlayableHandle_IsPlayableOfType_TisAnimationLayerMixerPlayable_t3631223897_m201603007_gshared
i8j:__ZL50Monitor_t2197244473_CustomAttributesCacheGeneratorP21CustomAttributesCache
ILn:__ZNSt3__26vectorIPK10MethodInfoNS_9allocatorIS3_EEE26__swap_out_circular_bufferERNS_14__split_bufferIS3_RS5_EE
M7n:__ZN6il2cpp2os10SocketImpl6CreateENS0_13AddressFamilyENS0_10SocketTypeENS0_12ProtocolTypeE
O_h:_PrimalityTest_EndInvoke_m1035389364
kT:__Z60Register_UnityEngine_AudioListener_GetNumExtensionPropertiesv
Wj:_emscripten_glUniformMatrix4fv
rYn:__ZN15dense_hashtableINSt3__24pairIK10KeyWrapperINS1_IP11Il2CppClassjEEES4_EES6_N6il2cpp8metadata14ArrayClassHashEN14dense_hash_mapIS6_S4_SB_NS6_14EqualsComparerINSA_17ArrayClassCompareEEENS0_9allocatorIS8_EEE9SelectKeyESF_SH_E13set_empty_keyERKS8_
mpb:__ZN12ScriptMapperD2Ev
QSl:_List_1_Sort_m1206396271_gshared
n9k:_Enumerator_Dispose_m3040896940_AdjustorThunk
wpe:__ZN9Rigidbody13AwakeFromLoadE17AwakeFromLoadMode
Vvj:_Mesh_get_colors32_m1253190811
Teo:_GC_stopped_mark
z8n:__ZN6il2cpp2os6Thread3RunEPFvPvES2_
Dmj:_AnimationCurve_Finalize_m2397002729
esd:__ZNK5physx14NpSceneQueries10multiQueryINS_12PxOverlapHitEEEbRKNS_15MultiQueryInputERNS_13PxHitCallbackIT_EENS_7PxFlagsINS_9PxHitFlag4EnumEtEEPKNS_12PxQueryCacheERKNS_17PxQueryFilterDataEPNS_21PxQueryFilterCallbackEPNS_20BatchQueryFilterDataE
lHg:__Z50RuntimeInvoker_RuntimeObject_ColorTween_t809614380PFvvEPK10MethodInfoPvPS4_
e1g:_X509CertificateEnumerator_Reset_m4026698923
J2e:_SerializationCallbacks__cctor_m1674315180
K4f:__Z194RuntimeInvoker_Void_t1185182177_ByteU2AU26_t57153304_ByteU2AU26_t57153304_DoubleU2AU26_t3650786047_UInt16U2AU26_t531067350_UInt16U2AU26_t531067350_UInt16U2AU26_t531067350_UInt16U2AU26_t531067350PFvvEPK10MethodInfoPvPS4_
Rma:__Z32TransferEnumWithNameForceIntSizeI14SafeBinaryRead7FogModeEvRT_RT0_PKc17TransferMetaFlags
dtc:__Z52Register_UnityEngine_RenderTexture_Internal_GetWidthv
Xjn:__ZL25UnresolvedVirtualCall_100P12Il2CppObjectiPK10MethodInfo
Noa:__ZN9ShaderLab20SerializedSubProgram16TextureParameter8TransferI19StreamedBinaryWriteILb0EEEEvRT_
Qb:invoke_fiiiiiiiifiiiif
kdk:__ZL74X509Chain_t194917408_CustomAttributesCacheGenerator_U3CU3Ef__switchU24mapDP21CustomAttributesCache
jNa:__ZNK7Hash12812PackToUInt32Ev
pll:_Dictionary_2_Init_m815976439_gshared
ZLf:_SynchronizedArrayListWrapper_IndexOf_m3642674350
H4:__ZNSt3__227__insertion_sort_incompleteIRNS_6__lessI14ObjectLoadDataS2_EEPS2_EEbT0_S6_T_
Jni:_Enumerator_System_Collections_IEnumerator_Reset_m1978309732_gshared
dY:__ZN11UnityEngine15CloudWebService16SessionContainer8AddEventEPNS0_14CloudEventInfoE
xKa:__Z4TrimRKN4core12basic_stringIcNS_20StringStorageDefaultIcEEEES5_
qnm:_ReadOnlyCollection_1_CopyTo_m209634623_gshared
URc:__ZN13dynamic_arrayIN19CompositeCollider2D11SubColliderELj4EE12emplace_backEv
E3k:_Dictionary_2_Do_ICollectionCopyTo_TisKeyValuePair_2_t3842366416_m1399105608_gshared
dGk:__ZL77ExecuteEvents_t3484638744_CustomAttributesCacheGenerator_U3CU3Ef__mgU24cache2P21CustomAttributesCache
C$g:_X509Certificate2_Import_m4026562329
AKi:_Enumerator_System_Collections_IEnumerator_get_Current_m2763095718_AdjustorThunk
Gzo:_glGetStringi__wrapper
Pbb:__ZN10VertexData8TransferI14SafeBinaryReadEEvRT_
Gld:__ZN5physx19NpArticulationJointD0Ev
wwf:_ObjectSpawnSceneMessage__ctor_m1005584195
hM:__ZN4FMOD8ChannelI8setDelayE14FMOD_DELAYTYPEjj
Hgo:_GC_malloc_atomic
pte:__ZN5physx9NpPhysics14createInstanceEjRNS_12PxFoundationERKNS_17PxTolerancesScaleEbPNS_20PxProfileZoneManagerE
lxe:__Z59Register_UnityEngine_Physics_INTERNAL_CALL_Internal_Raycastv
rgi:_HashSet_1_GetEnumerator_m3346268098_gshared
qjo:__ZN6il2cpp5utils6Memory13AlignedMallocEjj
qOd:__ZNK5physx7NpScene17getFilterCallbackEv
vyj:_PropertyName_GetHashCode_m3570549176_AdjustorThunk
Nlk:__ZL55PropertyName_t3749835189_CustomAttributesCacheGeneratorP21CustomAttributesCache
cJl:_List_1_Insert_m3678598124_gshared
NOh:_Selectable_get_animator_m2899312855
Xpj:__ZN23GenericVirtFuncInvoker5I19CSSSize_t3377836552ififiE6InvokeEPK10MethodInfoP12Il2CppObjectififi
Y$:__ZL20SortItemByInstanceIDRKN18AwakeFromLoadQueue4ItemES2_
fGj:_Vector2_op_Multiply_m2347887432
Xse:__ZN5physx6shdfnd5ArrayIPvNS0_15InlineAllocatorILj256ENS0_19ReflectionAllocatorINS_24NpPtrTableStorageManager8PtrBlockILi16EEEEEEEE15growAndPushBackERKS2_
i3m:_ListMatchRequest_get_nameFilter_m1921865349
kkf:_FontData_get_maxSize_m195374730
nWg:_TypeConverterAttribute__ctor_m1774069684
RA:__ZNK34AnimationStateMachineMixerPlayable26GetInterruptedPosePlayableEv
yYe:__ZN20UnityConnectSettings8TransferI24GenerateTypeTreeTransferEEvRT_
TC:__ZN34BlobWriteTransferSTLStyleArrayImplI22OffsetPtrArrayTransferIbEEclERS1_17TransferMetaFlagsR9BlobWrite
aTm:_InternalResponseDelegate_2_BeginInvoke_m545149662_gshared
eBf:_Byte_ToString_m4063101981
nbj:_MonoType_GetConstructors_m2574682189
jJn:__ZN6il2cpp2vm13MetadataCache31GetParameterDefinitionFromIndexEi
vCj:_SceneManager_LoadSceneAsyncNameIndexInternal_m4031498323
wwd:__ZN5physx7NpShape13setRestOffsetEf
bbo:__ZNK15dense_hashtableINSt3__24pairIK10KeyWrapperIPK19Il2CppGenericMethodEP10MethodInfoEES6_N6il2cpp8metadata23Il2CppGenericMethodHashEN14dense_hash_mapIS6_S9_SD_NS6_14EqualsComparerINSC_26Il2CppGenericMethodCompareEEENS0_9allocatorISA_EEE9SelectKeyESH_SJ_E10test_emptyERK30dense_hashtable_const_iteratorISA_S6_SD_SL_SH_SJ_E
n3j:__ZL59SinkProviderData_t4151372974_CustomAttributesCacheGeneratorP21CustomAttributesCache
bYg:_ServicePointManager_FindServicePoint_m4119451290
Fmh:__ZN21InterfaceFuncInvoker1Ii22OrderBlock_t1585977831E6InvokeEjP11Il2CppClassP12Il2CppObjectS0_
mrm:_ReadOnlyCollection_1_IndexOf_m1922201391_gshared
Zlm:_ReadOnlyCollection_1_System_Collections_IList_Clear_m2007013334_gshared
Mfa:__ZL31InitializeRendererUpdateManagerPv
nIg:_ParameterInfo__ctor_m2779026345
HMh:_InputField_set_onValueChange_m1251390545
ukf:_FontData_get_verticalOverflow_m4132840071
Wvm:_Comparison_1_BeginInvoke_m1120881404_gshared
Ywd:__ZN5physxL11getTriangleERKNS_2Gu12TriangleMeshEjPNS_6PxVec3EPKS4_PKvRKNS_2Cm8Matrix34Eb
Szf:_DeriveBytes_set_Password_m3005258189
wqh:_NumberFormatter_get_IsZeroInteger_m2263284741
sS:__ZN13AudioListener12CleanupClassEv
vxc:__ZN8GUIState12GetControlIDEi9FocusTypeRK5RectTIfE
fga:__Z13GetIEnlightenv
byd:__ZNK5physx7NpCloth16lockParticleDataEv
fLj:_DateTimeFormatInfo_get_LongTimePattern_m1595254249
ZAm:_X509Certificate_PEM_m2020851166
F4e:_SByte_Equals_m865896384_AdjustorThunk
aHh:_BigInteger_op_GreaterThanOrEqual_m700865613
GAl:_Array_InternalArray__Insert_TisDateTime_t3738529785_m2308632330_gshared
Zib:__ZN11TimeManager8TransferI19StreamedBinaryWriteILb0EEEEvRT_
q6h:_TlsServerCertificateRequest_ProcessAsTls1_m3214041063
MAi:_Enumerator_System_Collections_IDictionaryEnumerator_get_Entry_m4135482658_AdjustorThunk
cDe:_compare_uni_maps
Vjg:__Z72RuntimeInvoker_Boolean_t97287965_Vector2_t2156229523_Vector2_t2156229523PFvvEPK10MethodInfoPvPS4_
EWe:__ZN11UnityEngine15PlatformWrapper27GetGraphicsCapsSupportFlagsEv
aOe:__ZNSt3__218__insertion_sort_3IRPFbPN2UI6CanvasES3_EPS3_EEvT0_S8_T_
F3k:_Dictionary_2_Do_ICollectionCopyTo_TisRuntimeObject_m3695543300_gshared
Thh:_InternalEnumerator_1_System_Collections_IEnumerator_Reset_m3825653970_AdjustorThunk
BTd:__ZN5physx13NpRigidStatic9visualizeERNS_2Cm12RenderOutputEPNS_7NpSceneE
PDb:__ZN12NativeBufferI16Converter_StringE15SetupForWritingER9ArrayInfo
gHh:_SequentialSearchPrimeGeneratorBase_GenerateSearchBase_m3595783982
kql:_Dictionary_2_ToTKey_m3917206791_gshared
Wia:__ZN13RuntimeStaticI18AssetBundleManagerLb1EE16StaticInitializeEPv
iBo:___cxa_end_catch__wrapper
lgg:__Z121RuntimeInvoker_Int32_t2950945753_RuntimeObject_Int32U26_t1369213839_Int32_t2950945753_Int32_t2950945753_Int32_t2950945753PFvvEPK10MethodInfoPvPS4_
ok:_emscripten_glVertexAttrib3fv
yGd:__ZNK5physx22NpParticleBaseTemplateINS_16PxParticleSystemENS_16NpParticleSystemEE13getRestOffsetEv
YVd:__ZN5physx6shdfnd8PoolBaseINS_2Sc35ParticleElementRbElementInteractionENS0_19ReflectionAllocatorIS3_EEE15disposeElementsEv
Edj:_SHA1CryptoServiceProvider_Dispose_m1653611664
NJf:_Char_ToString_m278452217
o2h:_CipherSuite_get_DecryptionCipher_m2839827488
YIj:_DateTime_System_IConvertible_ToUInt16_m4182197229_AdjustorThunk
eXb:__ZNK4PPtrI5LightEcvPS0_Ev
Bdl:_ValueCollection_System_Collections_Generic_ICollectionU3CTValueU3E_Contains_m875763171_gshared
t_h:_BigInteger_op_RightShift_m460065452
qnk:__ZL86Logger_t274032455_CustomAttributesCacheGenerator_Logger_LogFormat_m3300686007____args3P21CustomAttributesCache
fLb:__ZN13MonoBehaviour22DoScriptRebuildWarningEv
noc:__Z38Camera_CUSTOM_INTERNAL_CALL_RaycastTryP12Il2CppObjectRK3Rayfi
n_n:__ZN6il2cpp6icalls8mscorlib6System5Array13ClearInternalEP11Il2CppArrayii
Sdc:__ZZL23RegisterLightPropertiesR22GenericPropertyBindingEN22Wrapper_LightSpotAngle13GetFloatValueEPv
zen:_DownloadHandlerBuffer_t2928496527_marshal_pinvoke_back
Ntk:__ZL81Physics_t2310948930_CustomAttributesCacheGenerator_Physics_OverlapSphere_m1830905P21CustomAttributesCache
bNe:__Z38TextGenerator_Get_Custom_PropLineCountP12Il2CppObject
a2c:__ZN5physx2Gu26EPASupportMapPairLocalImplINS0_9TriangleVENS0_4BoxVEED0Ev
hAm:_InternalAsyncResult_SetComplete_m963842420
APk:_Encoding_GetEncoding_m2801244948
pzc:__ZN11IMGUIModule25GetGUIStyleScriptingClassEv
GFe:_tt_get_interface
lAm:_SslStreamBase_EndRead_m495357226
Y_n:__ZN6il2cpp5utils9PathUtils7CombineIcEENSt3__212basic_stringIT_NS3_11char_traitsIS5_EENS3_9allocatorIS5_EEEERKSA_SC_
A2d:__ZN5physx14PxsAABBManager16processBPResultsERKNS_20PxsComputeAABBParamsE
cGc:__ZN9JSONWrite8TransferI13dynamic_arrayIiLj4EEEEvRT_PKc17TransferMetaFlags
H0d:__ZN5physx23PxsBroadPhaseContextSapD2Ev
Qdm:_Collection_1_System_Collections_IList_get_IsFixedSize_m214626114_gshared
Beg:__Z64RuntimeInvoker_RuntimeObject_SByte_t1669577662_SByte_t1669577662PFvvEPK10MethodInfoPvPS4_
XJ:__ZL16FMOD_ErrorString11FMOD_RESULT_363
lgc:__ZN13PlayableGraph21InvalidateMultithreadEv
kke:__ZN5physx12SubSortQuickC2EPjPKNS_10PxBounds3VEjf
Bli:_Enumerator_System_Collections_IEnumerator_get_Current_m713684915_AdjustorThunk
Adi:_GenericComparer_1_Compare_m459680062_gshared
rwh:_EnumBuilder_GetConstructorImpl_m3068576149
G1:__Z18ConvertUTF16toUTF8PPKtS0_PPhS2_15ConversionFlags
wao:__ZN6il2cpp2os20PathErrnoToErrorCodeERKNSt3__212basic_stringIcNS1_11char_traitsIcEENS1_9allocatorIcEEEEi
RJk:__ZL68InputField_t3762917431_CustomAttributesCacheGenerator_m_KeyboardTypeP21CustomAttributesCache
Nej:_SymmetricAlgorithm_System_IDisposable_Dispose_m3402297829
okc:__Z24GetActualTargetFrameRatev
txn:__ZL16my_g_bit_nth_msfj
Dbk:__ZL65NonSerializedAttribute_t2945079482_CustomAttributesCacheGeneratorP21CustomAttributesCache
GYn:__ZN15dense_hashtableINSt3__24pairIK10KeyWrapperIP11Il2CppClassES4_EES5_N6il2cpp8metadata16SZArrayClassHashEN14dense_hash_mapIS5_S4_SA_NS5_14EqualsComparerINS9_19SZArrayClassCompareEEENS0_9allocatorIS7_EEE9SelectKeyESE_SG_E12expand_arrayEjN21dense_hash_map_traits17integral_constantIbLb0EEE
Moj:__ZN30GenericInterfaceActionInvoker1IP18Camera_t4157153871E6InvokeEPK10MethodInfoP12Il2CppObjectS1_
iwl:_DefaultComparer_GetHashCode_m3369508712_gshared
Xxk:__ZL81MatchDesc_t3827228697_CustomAttributesCacheGenerator_U3CmaxSizeU3Ek__BackingFieldP21CustomAttributesCache
Q_l:_Enumerator_MoveNext_m3662315381_AdjustorThunk
TBg:__Z41RuntimeInvoker_X509ChainStatus_t133602714PFvvEPK10MethodInfoPvPS4_
KLg:_ActivatedClientTypeEntry_get_ApplicationUrl_m2894992111
FTb:__Z23SetupStereoFlareElementP11FlareVertexRK8Vector2fS3_S3_RK11ColorRGBA32RK10Matrix4x4fRK8Vector3fb
iXm:_Event_set_modifiers_m1736248727
tfi:_PrimeHelper__cctor_m2130909459_gshared
phh:_InternalEnumerator_1_System_Collections_IEnumerator_Reset_m3344434512_AdjustorThunk
Cin:__ZL24UnresolvedVirtualCall_25P12Il2CppObjectS0_S0_PK10MethodInfo
Vvh:_DerivedType_GetCustomAttributes_m851300494
KCn:__ZN6il2cpp2vm5Class15GetInstanceSizeEPK11Il2CppClass
f$k:_ValueType__ctor_m2036258423
eb:invoke_iiiifiiii
NMh:_InputField_EnforceContentType_m2436948794
sJl:_List_1__ctor_m640577308_gshared
BAd:__ZNK5physx2Sc9ClothCore16getRestPositionsEPNS_6PxVec4E
bem:__ZN23InterfaceActionInvoker2Ii20UICharInfo_t75501106E6InvokeEjP11Il2CppClassP12Il2CppObjectiS0_
nZd:__ZN5physx20PxcSweepConvexConvexERKNS_11PxsCCDShapeES2_PKNS_12PxsRigidBodyES5_RKNS_11PxTransformES8_S8_S8_fRNS_6PxVec3ESA_RNS_10PxcNpCacheERNS_18PxcNpThreadContextEf
goo:_htons
zlj:_String_Join_m2050845953
IDd:__ZN5physx15PxsParticleDataD0Ev
GGa:__ZL19BlitFramebufferImplRN4gles23BlitFramebufferDrawQuadER9GfxDevice9TextureIDRK8Vector4f
Zxb:__Z18Transfer_BlittableI17RemapPPtrTransferLb0EhEvRK29SerializationCommandArgumentsR31RuntimeSerializationCommandInfo
die:__ZN5physx6shdfnd5ArrayIPvNS0_19ReflectionAllocatorIN17PxcPoolMallocData9PoolData8EEEE15growAndPushBackERKS2_
aPn:__ZN15dense_hashtableINSt3__24pairIK10KeyWrapperIPK10Il2CppTypeEjEES6_N6il2cpp8metadata14Il2CppTypeHashEN14dense_hash_mapIS6_jSB_NS6_14EqualsComparerINSA_26Il2CppTypeEqualityComparerEEENS0_9allocatorIS8_EEE9SelectKeyESF_SH_E4findERS7_
iso:dynCall_viiiiiiiiiiiiii
x9g:_InternalEnumerator_1_MoveNext_m676980479_AdjustorThunk
XGe:_UNITY_FT_List_Add
Nbc:__ZN14Texture2DArray11InitTextureEiii13TextureFormatb
Xai:_EqualityComparer_1_System_Collections_IEqualityComparer_Equals_m1135494268_gshared
UBm:_X509Extension__ctor_m1474351312
C7j:__ZL104Encoding_t1523322056_CustomAttributesCacheGenerator_Encoding_t1523322056____DecoderFallback_PropertyInfoP21CustomAttributesCache
RPm:_InvokableCall_1_Invoke_m1524307439_gshared
ime:__ZN5physx15PxGeometryQuery14getWorldBoundsERKNS_10PxGeometryERKNS_11PxTransformEf
D9l:_Collection_1_System_Collections_IList_get_Item_m2931334234_gshared
s6a:__ZN12CubemapArray21AwakeFromLoadThreadedEv
QBd:__ZN5physx2Sc9ClothCore18setSolverFrequencyEf
A3i:_Directory_CreateDirectoriesInternal_m3735342319
bIk:__ZL108U3CStartU3Ec__Iterator0_t1249263001_CustomAttributesCacheGenerator_U3CStartU3Ec__Iterator0__ctor_m1316384627P21CustomAttributesCache
pFl:_List_1_RemoveAll_m517055598_gshared
lue:__ZN8ColliderC2E10MemLabelId18ObjectCreationMode
YTn:__ZN15dense_hashtableINSt3__24pairIK10KeyWrapperINS1_IPK11Il2CppImageP11Il2CppClassEEEjEES9_17ReflectionMapHashIS8_EN14dense_hash_mapIS9_jSD_NS9_14EqualsComparerINS0_8equal_toIS8_EEEENS0_9allocatorISB_EEE9SelectKeyESI_SK_E14squash_deletedEv
XKi:_Enumerator_System_Collections_IEnumerator_get_Current_m3218070833_gshared
Lej:_SHAConstants__cctor_m1699027474
Iib:__ZN9InputAxis8TransferI18StreamedBinaryReadILb0EEEEvRT_
Bge:__ZN5physx2Gu11HeightField8requiresERNS_23PxProcessPxBaseCallbackE
k3m:_ListMatchRequest_get_filterOutPrivateMatches_m702074324
vFl:_List_1_TrimExcess_m4121641494_gshared
B9j:__ZL78Convert_t2465617642_CustomAttributesCacheGenerator_Convert_ToInt16_m1733792763P21CustomAttributesCache
wYm:_GUIStyle_GetCursorPixelPosition_m3960759208
mZc:__ZN5physx2Gu16buildPartialHullERKNS0_13PolygonalDataEPNS0_12SupportLocalERNS0_14SeparatingAxesERKNS_6shdfnd3aos5Vec3VESC_
dmb:__Z14resize_trimmedINSt3__26vectorIN4core12basic_stringIcNS2_20StringStorageDefaultIcEEEE13stl_allocatorIS6_L18MemLabelIdentifier13ELi16EEEEEvRT_j
cvb:__Z18Transfer_BlittableI14SafeBinaryReadLb0EaEvRK29SerializationCommandArgumentsR31RuntimeSerializationCommandInfo
T3l:_Collection_1_Clear_m1850706650_gshared
Qzl:_Array_InternalArray__ICollection_CopyTo_TisPeerInfoPlayer_t607460057_m2792024580_gshared
RJf:_CharEnumerator_System_Collections_IEnumerator_get_Current_m1328529384
vLj:_DBNull__ctor_m3431698857
nvo:_emscripten_glFrustum__wrapper
sfj:_TripleDES_IsWeakKey_m2147489852
Ukd:__ZNK5physx2Sc16ArticulationCore17releaseDriveCacheERNS_9PxcFsDataE
mTh:_GetRayIntersectionAllCallback_Invoke_m1316694896
ssi:_Array_InternalArray__ICollection_Remove_TisLink_t3080106562_m2228173729_gshared
f4f:__Z98RuntimeInvoker_Boolean_t97287965_RuntimeObject_Int32_t2950945753_RuntimeObject_Int64U26_t200113976PFvvEPK10MethodInfoPvPS4_
BHe:_UNITY_FT_List_Iterate
AYa:__ZN17GlobalGameManager8TransferI24GenerateTypeTreeTransferEEvRT_
d9c:__ZN5physx11NpAggregate7releaseEv
kJf:_Char_System_IConvertible_ToUInt64_m3536560782
J8h:_EqualityComparer_1__cctor_m3452395357_gshared
K1g:_X509ChainStatus_get_Status_m2572005749_AdjustorThunk
Vke:__ZN5physx6shdfnd7PAUtilsD2Ev
Eai:_EqualityComparer_1_get_Default_m2224887315_gshared
kSb:__Z20SyncFenceCullResultsR11CullResults
jJa:__ZN15TextureTFMethod20IsBoneCountSupportedEi
oH:__ZN26AnimatorControllerPlayable9GotoStateEiifff
Abl:_ValueCollection_System_Collections_ICollection_CopyTo_m1976782887_gshared
lyj:_PlayableOutputHandle_CompareVersion_m841260813
aQj:_Double_ToString_m3828879243_AdjustorThunk
Xde:__ZN5physx2Cm12DelegateTaskINS_2Sc5SceneEXadL_ZNS3_15postNarrowPhaseEPNS_10PxBaseTaskEEEED0Ev
xzb:__Z22TransferField_NonArrayI17RemapPPtrTransfer27Converter_SimpleNativeClassI8GUIStyleEEvRK23StaticTransferFieldInfoR31RuntimeSerializationCommandInfoRT0_
qwd:__ZN5physx7NpShape12setMaterialsEPKPNS_10PxMaterialEt
i7b:__ZNK17AnimationCurveTplIfE20EvaluateWithoutCacheEfRf
Ojg:__Z67RuntimeInvoker_Boolean_t97287965_Rect_t2360479859_SByte_t1669577662PFvvEPK10MethodInfoPvPS4_
d1a:__ZN19ShaderPropertySheet10SetTextureERK23FastTexturePropertyNameP7Texture
Mth:_CustomAttributeData__ctor_m2966233049
igf:_CanvasUpdateRegistry_PerformUpdate_m1793997159
QUf:_ChannelPacket_SendToTransport_m2626401131_AdjustorThunk
HZg:_WebHeaderCollection_GetKey_m809097130
wic:__ZN4Mesh10SetNormalsEPK8Vector3fj
cWc:__Z66Register_UnityEngine_Physics2D_INTERNAL_CALL_GetRayIntersectionAllv
qmi:_Enumerator__ctor_m1335741746_AdjustorThunk
lcn:_AesManaged_CreateDecryptor_m692040246
Eak:__ZL79Convert_t2465617642_CustomAttributesCacheGenerator_Convert_ToUInt64_m2343585091P21CustomAttributesCache
Etn:_TextGenerationSettings_t1351628751_marshal_pinvoke_back
lu:__ZN17AnimationCurveTplIfE8TransferI14SafeBinaryReadEEvRT_
vjl:_Dictionary_2_get_Count_m2449135560_gshared
qCl:_Array_InternalArray__set_Item_TisInt16_t2552820387_m2544074754_gshared
wDf:_ArithmeticException__ctor_m3551809662
xZm:_TextEditor_MoveTextEnd_m122202411
$3i:_MonoIO_ExistsDirectory_m2182482658
vwh:_EnumBuilder_GetCustomAttributes_m3678770762
Epl:_Dictionary_2_System_Collections_IDictionary_set_Item_m1676416567_gshared
GAg:__Z72RuntimeInvoker_CustomAttributeNamedArgument_t287865710_Int32_t2950945753PFvvEPK10MethodInfoPvPS4_
U6c:__ZN5physx2Gu9RadixSortD2Ev
R4b:__Z29StdTemplateConversionFunctionIybEbPvR14SafeBinaryRead
oab:__ZNSt3__26vectorIN15QualitySettings14QualitySettingENS_9allocatorIS2_EEE6assignIPS2_EENS_9enable_ifIXaasr21__is_forward_iteratorIT_EE5valuesr16is_constructibleIS2_NS_15iterator_traitsIS9_E9referenceEEE5valueEvE4typeES9_S9_
y5:__ZNK5Unity9Component10GetEnabledEv
R4c:__Z15raycast_capsuleRKN5physx10PxGeometryERKNS_11PxTransformERKNS_6PxVec3ES8_fNS_7PxFlagsINS_9PxHitFlag4EnumEtEEjPNS_12PxRaycastHitEbPFbRSD_PvESG_
jVh:_ScrollRect_get_scrollSensitivity_m2832710591
zCd:__ZNK5physx15NpActorTemplateINS_15PxParticleFluidEE14getOwnerClientEv
nFl:_List_1_CheckCollection_m1671972112_gshared
RWn:_il2cpp_class_get_image
B3h:_CipherSuiteFactory_GetSsl3SupportedCiphers_m3757358569
xRk:_UnicodeEncoding_GetPreamble_m3002287178
k4:__Z16AsyncReadRequestP16AsyncReadCommand
YBn:__ZNK15dense_hashtableINSt3__24pairIK10KeyWrapperIPK22Il2CppGenericParameterEP11Il2CppClassEES6_N6il2cpp5utils11PointerHashIS4_EEN14dense_hash_mapIS6_S9_SE_NS6_14EqualsComparerINS0_8equal_toIS5_EEEENS0_9allocatorISA_EEE9SelectKeyESJ_SL_E12test_deletedEj
rbe:__ZNK5physx34PxsSolverConstraintPostProcessTask7getNameEv
rjg:__Z52RuntimeInvoker_Color_t2555686324_Color32_t2600501292PFvvEPK10MethodInfoPvPS4_
kqa:__ZN20GpuProgramParameters14AddVectorParamEPKcii15ShaderParamTypeiiiP16PropertyNamesSet
e1m:_ChannelQOS_get_QOS_m209007790
jai:_EqualityComparer_1_System_Collections_IEqualityComparer_Equals_m3676624131_gshared
w_c:__ZN5physx2Gu23distancePointBoxSquaredERKNS_6PxVec3ES3_S3_RKNS_7PxMat33EPS1_
gte:__ZN5physx9NpPhysics20MeshDeletionListener28onGuMeshFactoryBufferReleaseEPKNS_6PxBaseEtb
zIl:_List_1_System_Collections_ICollection_CopyTo_m1247561842_gshared
u_e:__ZNK12HeaderHelper3GetERKN4core12basic_stringIcNS0_20StringStorageDefaultIcEEEE
kUe:__Z24GetUnityAnalyticsManagerv
U0k:_Array_Sort_TisRaycastResult_t3360306849_m3896233353_gshared
Gmh:_DefaultComparer__ctor_m704436039_gshared
Eib:__ZN9InputAxis8TransferI14SafeBinaryReadEEvRT_
r0:__ZNK21ExecutionOrderManager30GetCustomAwakeFromLoadQueueForEPKN5Unity4TypeE
LNd:__ZNK5physx7NpScene9getActorsENS_7PxFlagsINS_15PxActorTypeFlag4EnumEtEEPPNS_7PxActorEjj
NZe:__Z27RegisterModule_UnityConnectv
wjn:__ZL24UnresolvedVirtualCall_73P12Il2CppObjectS0_S0_iS0_S0_S0_PK10MethodInfo
w6i:_MemoryStream_Expand_m3554752073
UIj:_DateTimeFormatInfo_get_RoundtripPattern_m796050488
xFd:__ZN5physx15PxParticleFluidD0Ev
BVd:__ZN5physx11NodeManagerD0Ev
ean:_JsonObject_Contains_m2021235641
Xko:__ZN6il2cpp2os20ThreadLocalValueImpl8SetValueEPv
HCj:_ScriptableObject_CreateInstance_m2611081756
G2e:_ObjectRecord_get_IsInstanceReady_m2304516395
sjh:_InternalEnumerator_1_System_Collections_IEnumerator_get_Current_m1635397542_gshared
b7i:_Path__cctor_m3273994011
LRg:_DictionaryEnumerator__ctor_m713073424
ngn:_AnalyticsEventTracker__ctor_m3064238498
H9c:__ZNK5physx2Sc8BodyCore6getSimEv
C9m:_UnSpawnDelegate__ctor_m1746387355
iqo:__ZNSt11logic_errorD2Ev
EIj:_DateTimeUtils_CountRepeat_m3396693018
qTc:__ZNK17Physics2DSettings22GetTypeVirtualInternalEv
Q0i:_Int32_System_IConvertible_ToUInt64_m2502338186
Psg:__Z58RuntimeInvoker_ChannelPacket_t1579824718_Int32_t2950945753PFvvEPK10MethodInfoPvPS4_
BN:__ZN10ObjectPoolIN4FMOD12ChannelGroupENS0_13ChannelGroupIEE7SetSizeEi
kNk:__ZL103LayoutRebuilder_t541313304_CustomAttributesCacheGenerator_LayoutRebuilder_U3CRebuildU3Em__5_m1288787547P21CustomAttributesCache
Ybn:_SymmetricTransform_FinalDecrypt_m764004682
Lkm:_ReadOnlyCollection_1_System_Collections_Generic_ICollectionU3CTU3E_Remove_m2225120515_gshared
g9n:__ZN6il2cpp2os10ThreadImpl33UnregisterCurrentThreadForCleanupEv
kji:_KeyValuePair_2_set_Value_m1485411956_AdjustorThunk
Uwf:_ServerSimpleWrapper_OnDisconnected_m1666094999
zQi:_ShimEnumerator_MoveNext_m3733203141_gshared
YOi:_KeyCollection_System_Collections_ICollection_get_IsSynchronized_m3113055564_gshared
_Gk:__ZL114PointerEventData_t3807901092_CustomAttributesCacheGenerator_PointerEventData_get_pointerCurrentRaycast_m2627585223P21CustomAttributesCache
MIm:_Parser_ParseGroupingConstruct_m263270497
E9e:_UIBehaviour_OnDisable_m1784507360
tnk:__ZL112PlayerConnection_t3081694049_CustomAttributesCacheGenerator_PlayerConnection_MessageCallbackInternal_m1914517467P21CustomAttributesCache
HZ:__Z22ValidateTlsfAllocationPvjiS_
Wah:_InternalEnumerator_1_MoveNext_m3525157932_gshared
qai:_EqualityComparer_1__ctor_m2253995077_gshared
_oj:_Color__ctor_m2943235014_AdjustorThunk
cUn:__ZN14dense_hash_mapI10KeyWrapperINSt3__24pairIPK9EventInfoP11Il2CppClassEEEj17ReflectionMapHashIS8_ENS9_14EqualsComparerINS1_8equal_toIS8_EEEENS1_9allocatorINS2_IKS9_jEEEEE15set_deleted_keyERSH_
Xy:__ZN27AnimationLayerMixerPlayable22PrepareAnimationEventsEfR13dynamic_arrayI22AnimationClipEventInfoLj4EE
Lyd:__ZNK5physx7NpCloth25getMotionConstraintConfigEv
Owb:__Z14resize_trimmedINSt3__26vectorI17AnimationCurveTplIfE13stl_allocatorIS3_L18MemLabelIdentifier1ELi16EEEEEvRT_j
mtn:_PlayerFollower__ctor_m1697947542
f1b:__ZN25CameraStackRenderingState19SetupLastEyeCamerasERK11CameraStack
KSa:__Z12GUIDToStringRK9UnityGUID
xpl:_Dictionary_2__ctor_m1420032696_gshared
Q7h:_RSASslSignatureDeformatter_SetKey_m2204705853
E7n:__ZN6il2cpp6icalls8mscorlib6System4Enum12get_hashcodeEP12Il2CppObject
yJ:__ZN11SoundHandleC2ERKS_
pOj:_Delegate_CreateDelegate_m1051651521
gv:__ZN17AnimationPlayableC2E18DirectorPlayerType
JLh:_InputField_set_shouldHideMobileInput_m1650743574
KHn:__ZNK6il2cpp5utils11collections13ArrayValueMapIPK10Il2CppType17Il2CppInteropData26InteropDataToTypeConverterNS_8metadata14Il2CppTypeLessENS8_26Il2CppTypeEqualityComparerEE10find_firstERKS5_
XMd:__ZThn8_N5physx2Sc24ElementInteractionMarker7destroyEv
y_l:_List_1_Reverse_m1445355384_gshared
W4i:_FileStream_get_CanSeek_m331583577
j5b:__Z29StdTemplateConversionFunctionItxEbPvR14SafeBinaryRead
ZTg:_WellKnownServiceTypeEntry_get_ObjectType_m3211195371
_4l:_Collection_1_System_Collections_Generic_ICollectionU3CTU3E_get_IsReadOnly_m3159448375_gshared
Mtf:_NetworkReader__ctor_m3778789928
fqo:__ZNSt9bad_allocD0Ev
NEg:__Z74RuntimeInvoker_Boolean_t97287965_RuntimeObject_KeyValuePair_2U26_t80993585PFvvEPK10MethodInfoPvPS4_
CAh:_TypeBuilder_get_ContainsGenericParameters_m1769080325
f0f:_NetworkCRC_get_scripts_m2131711196
Z_h:_ASN1_get_Length_m3269728307
x6e:_DSAParameters_t1885824122_marshal_pinvoke_back
H6c:__ZN5physx3Cct26CharacterControllerManager24setOverlapRecoveryModuleEb
vB:__ZN8Animator22OnGraphTopologyChangedEP8Playablei
XGh:_Kernel_MultiplyByDword_m1266935086
Jbo:__ZN4utf89unchecked8utf8to16INSt3__220back_insert_iteratorINS2_12basic_stringIDsNS2_11char_traitsIDsEENS2_9allocatorIDsEEEEEEPKcEET_T0_SE_SD_
Hx:__ZN17AnimationPlayable18DeallocateBindingsEv
Q2b:__ZN6Camera25StandaloneRenderToCubemapEP7TextureiPFvPK9SceneNodePK4AABBR9IndexListPvESA_j
jli:_Enumerator__ctor_m387368542_gshared
R0a:__ZN14RenderSettings18TransferDeprecatedI14SafeBinaryReadEEvRT_
k0c:__ZN24ConvexVsHeightfieldSweepD0Ev
bXm:_Event__ctor_m526447123
Obk:__ZL56RankException_t3812021567_CustomAttributesCacheGeneratorP21CustomAttributesCache
pXg:__ZN28GenericInterfaceFuncInvoker1IP26IPAddressU5BU5D_t596328627P8String_tE6InvokeEPK10MethodInfoP12Il2CppObjectS3_
yug:__Z72RuntimeInvoker_Boolean_t97287965_CustomAttributeNamedArgument_t287865710PFvvEPK10MethodInfoPvPS4_
Xgg:__Z88RuntimeInvoker_RuntimeObject_RuntimeObject_RuntimeObject_RuntimeObject_Int32_t2950945753PFvvEPK10MethodInfoPvPS4_
Pcm:_Collection_1_set_Item_m4140106202_gshared
xXk:_Type_ToString_m3975981286
j0:__ZN12TLSAllocatorI14StackAllocatorE8AllocateEji
j2:__ZN16ScriptingManager18GetMonoScriptCacheEi
_Im:_ExpressionAssertion__ctor_m2554412824
s_m:_GUIUtility_Internal_GetHotControl_m2856765646
P9m:_SimpleJson_SerializeString_m499048567
wKm:_CapturingGroup_IsComplex_m4061114763
xEl:_Array_Resize_TisCustomAttributeTypedArgument_t2723150157_m3021884250_gshared
Wji:_Enumerator_System_Collections_IEnumerator_get_Current_m2237476582_gshared
jvb:__Z18Transfer_BlittableI14SafeBinaryReadLb1EyEvRK29SerializationCommandArgumentsR31RuntimeSerializationCommandInfo
OKn:_WeakReference_Finalize_m2841826116
Mph:_NullReferenceException__ctor_m3076065613
_Cc:__ZN8JSONRead8TransferIfEEvRT_PKc17TransferMetaFlagsb
R7k:_Enumerator__ctor_m1783478807_AdjustorThunk
VWj:__ZL73Enum_t4135868527_CustomAttributesCacheGenerator_Enum_ToObject_m3092348831P21CustomAttributesCache
cYm:_GUIStyle_Draw_m3190299676
iwm:_Comparison_1_EndInvoke_m3981968715_gshared
Jpa:__ZN9ShaderLab7Program22ComputeSupportsShadowsEv
o_g:_X509SubjectKeyIdentifierExtension_Decode_m1505409124
KTm:_SyncList_1_IndexOf_m2687336640_gshared
wzd:__ZN5physx7NpCloth25setSelfCollisionStiffnessEf
VYd:__ZZN5physx28PxcSweepEstimateAnyShapeMeshERKNS_11PxsCCDShapeES2_PKNS_12PxsRigidBodyES5_RKNS_11PxTransformES8_fEN2CBD0Ev
kgn:_AnalyticsEventParamListContainer__ctor_m1995104893
Zjj:_String_System_IConvertible_ToUInt16_m2888090399
kP:__ZN11AudioSource21ApplyCachedParametersE12SoundChannel
Esh:_Assembly_InternalGetType_m3065345470
bU:__ZN13Simd4iFactoryIN6detail9FourTupleEEC2Eiiii
J9g:_InternalEnumerator_1__ctor_m3390957028_gshared
kbk:__ZL58IFormatProvider_t2518567562_CustomAttributesCacheGeneratorP21CustomAttributesCache
XJg:_ResourceSet__ctor_m3356376607
Thf:_FloatTween_set_startValue_m53556027_AdjustorThunk
Pbf:_PhysicsRaycaster_get_maxRayIntersections_m3887348715
eSi:_ShimEnumerator_get_Value_m3263763507_gshared
W2j:__ZL56_ParameterInfo_t489405856_CustomAttributesCacheGeneratorP21CustomAttributesCache
t9a:__ZN15SerializeTraitsI33EnlightenTerrainChunksInformationE8TransferI14SafeBinaryReadEEvRS0_RT_
xnn:__ZL25UnresolvedVirtualCall_290P12Il2CppObject26NetworkHash128_t2391674535S0_PK10MethodInfo
qtd:__ZN5physx2Sc14ConstraintCoreD2Ev
yNc:__ZN6b2Body12SetTransformERK6b2Vec2f
zcc:__ZNK32RendererMaterialAnimationBinding9BindValueER6ObjectRKN11UnityEngine9Animation14GenericBindingERNS3_10BoundCurveE
BKk:__ZL109MaskableGraphic_t3839221559_CustomAttributesCacheGenerator_MaskableGraphic_ParentMaskStateChanged_m1092090553P21CustomAttributesCache
EXi:_Transform_1_Invoke_m1731820209_gshared
pqd:__ZN5physx15NpActorTemplateINS_18PxArticulationLinkEE13setActorFlagsENS_7PxFlagsINS_11PxActorFlag4EnumEtEE
M1a:__Z13GetIAnimationv
HBa:__ZL18stbir__support_onef
Nhe:__ZN5physx6shdfnd8internal8HashBaseIPNS_11PxAggregateES4_NS0_4HashIS4_EENS1_11HashSetBaseIS4_S6_NS0_9AllocatorELb0EE6GetKeyES8_Lb0EE15reserveInternalEj
qjj:_Single_CompareTo_m189772128
LEc:__Z26Transfer_UnityEngineObjectI9JSONWriteLb0EEvRK29SerializationCommandArgumentsR31RuntimeSerializationCommandInfo
nmh:_DefaultComparer_Compare_m4042058291_gshared
Rmf:_Image_set_overrideSprite_m3213596394
_4a:__ZNSt3__26vectorIN4core12basic_stringIcNS1_20StringStorageDefaultIcEEEE13stl_allocatorIS5_L18MemLabelIdentifier1ELi16EEE6assignINS_11__wrap_iterIPS5_EEEENS_9enable_ifIXaasr21__is_forward_iteratorIT_EE5valuesr16is_constructibleIS5_NS_15iterator_traitsISF_E9referenceEEE5valueEvE4typeESF_SF_
dPe:__ZNSt3__27__sort5IRNS_6__lessIN2UI14DepthSortEntryES3_EEPS3_EEjT0_S7_S7_S7_S7_T_
H4i:_FileLoadException_ToString_m2989457882
H4m:_MatchInfoDirectConnectSnapshot_set_publicAddress_m3627602076
dsn:_AudioListener_ClearExtensionProperties_m3849891634
uye:_UNITY_FT_DivFix
A6k:_Array_InternalArray__get_Item_TisDecimal_t2948259380_m3511003792_gshared
OQn:__ZNSt3__218uninitialized_copyIPNS_4pairIK10KeyWrapperINS1_IPK11Il2CppImageP11Il2CppClassEEEjEESC_EET0_T_SE_SD_
zgj:_SecurityElement_IsValidAttributeValue_m948345692
qji:_KeyValuePair_2_get_Key_m254469931_AdjustorThunk
S8c:__ZN19ControllerHitReport15onControllerHitERKN5physx16PxControllersHitE
La:invoke_vdd
Vo:FUNCTION_TABLE_fiii
p1j:__ZL102MethodInfo_t_CustomAttributesCacheGenerator_MethodInfo_MakeGenericMethod_m1996785325____typeArguments0P21CustomAttributesCache
Y8i:_TextWriter_Write_m2252948084
Cfc:__Z19RegisterModule_Corev
Zo:FUNCTION_TABLE_fiif
tQg:_AsyncResult_get_CallMessage_m1679778649
Jgi:_HashSet_1_Resize_m141221228_gshared
DSi:_Transform_1_Invoke_m1837691794_gshared
GMe:__ZZ29InitializeTextRenderingModulevEN27cleanupAfterLoadRegistrator7ForwardEv
pqb:__ZNSt3__26__sortIRPFbRK23TransformAccessReadOnlyS3_EPS1_EEvT0_S8_T_
TRj:_CCFixed_FromDateTime_m3894190577
Hjo:__ZN6il2cpp6icalls8mscorlib4Mono8Security12Cryptography18KeyPairPersistence19_IsMachineProtectedEP12Il2CppString
Eyo:_emscripten_glGenVertexArrays__wrapper
U0b:__Z29PluginsIssueRenderingExtEvent26UnityRenderingExtEventTypePv
n7f:__Z116RuntimeInvoker_RuntimeObject_RuntimeObject_Int32_t2950945753_RuntimeObject_RuntimeObject_RuntimeObject_RuntimeObjectPFvvEPK10MethodInfoPvPS4_
N7l:_Collection_1_SetItem_m2109164320_gshared
_Vg:_NameValueCollection__ctor_m1115358332
M3e:_RuntimeMethodHandle__ctor_m2229201676_AdjustorThunk
U0e:_MessageFormatter_ReadMethodCall_m2327590823
Abc:__Z14RandomRotationP9Texture2DPhiiii
Jnl:_Dictionary_2__ctor_m2817523597_gshared
Sre:__ZThn132_N5physx7profile8ZoneImplINS_28PxProfileNameProviderForwardEED1Ev
ogi:_HashSet_1_Contains_m3173358704_gshared
$pn:_ToggleEvent__ctor_m834619998
Vkh:_InternalEnumerator_1_Dispose_m436383441_AdjustorThunk
C0h:_PKCS1_Encode_v15_m2077073129
Rnd:__ZNK5physx18NpArticulationLink13getNbChildrenEv
Wil:_Dictionary_2_ContainsKeyValuePair_m407368616_gshared
Bml:_Dictionary_2_get_Values_m2682483593_gshared
Qyk:__ZL84MatchInfo_t221301733_CustomAttributesCacheGenerator_MatchInfo_set_nodeId_m1751290814P21CustomAttributesCache
MKh:_ContentInfo_get_Content_m1945593776
ogm:_Collection_1_set_Item_m4084225937_gshared
iRb:__ZZ23InitPlayerLoopCallbacksvEN39PostLateUpdateGUIClearEventsRegistrator7ForwardEv
qbi:_EqualityComparer_1_get_Default_m1437147559_gshared
iOd:__ZN5physx7NpScene27setCCDContactModifyCallbackEPNS_26PxCCDContactModifyCallbackE
NFg:__Z51RuntimeInvoker_OrderBlock_t1585977831_RuntimeObjectPFvvEPK10MethodInfoPvPS4_
Qie:__ZNK5physx17ConvexHullBuilder17ComputeGeomCenterERNS_6PxVec3E
LAj:_RectOffset_get_left_m1232181034
h1d:__ZN3MBPD0Ev
IEa:__ZN4gles14UseGLSLProgramER15DeviceStateGLESjbij
_lg:__Z59RuntimeInvoker_Boolean_t97287965_Int32_t2950945753_IntPtr_tPFvvEPK10MethodInfoPvPS4_
DBo:_glDeleteProgram__wrapper
uoc:__Z50Register_UnityEngine_Camera_INTERNAL_get_pixelRectv
Fil:_Dictionary_2_make_pair_m3578927307_gshared
a1m:_TextEditor_OnDetectFocusChange_m1722867805
UZm:_TextEditor_Copy_m1714932363
QCa:__ZN6prcoreL18BlitFloatToIntegerERK14ImageReferenceRS0_
Csn:_Bullet_OnCollisionEnter_m25071454
KLj:_DBNull_System_IConvertible_ToUInt32_m3784627971
t4h:_ClientSessionCache_Add_m964342678
oRd:__ZNK5physx10PxsContext18getBounceThresholdEv
V9m:_SimpleJson_get_PocoJsonSerializerStrategy_m257589513
jfi:_Enumerator_Dispose_m220405433_AdjustorThunk
h0m:_SkinChangedDelegate__ctor_m1270439727
TIa:__ZN13dynamic_arrayI15ComputeShaderCBLj4EE6assignEPKS0_S3_
xRc:__ZN7b2Timer5ResetEv
yX:__ZN11UnityEngine15CloudWebService14RestDownloader17OnCompleteContentEv
TNn:__ZN15dense_hashtableINSt3__24pairIK10KeyWrapperINS1_IPK14Il2CppAssemblyP11Il2CppClassEEEjEES9_17ReflectionMapHashIS8_EN14dense_hash_mapIS9_jSD_NS9_14EqualsComparerINS0_8equal_toIS8_EEEENS0_9allocatorISB_EEE9SelectKeyESI_SK_E15insert_noresizeERKSB_
acm:_Collection_1_get_Count_m1040045920_gshared
kkn:__ZL25UnresolvedVirtualCall_115P12Il2CppObjectiaaPK10MethodInfo
REj:_Transform_get_localScale_m129152068
hNj:_DivideByZeroException__ctor_m3496959969
NKi:_Enumerator_System_Collections_IEnumerator_Reset_m2424678825_gshared
WFa:__ZN26SinglePassStereoSupportExt19AfterDrawCallStereoEv
rMd:__ZN5physx6shdfnd5ArrayIPvNS0_15InlineAllocatorILj256ENS0_19ReflectionAllocatorINS_2Gu31SpherePersistentContactManifoldEEEEEE15growAndPushBackERKS2_
zde:__ZN5physx2Cm18DelegateFanoutTaskINS_2Sc5SceneEXadL_ZNS3_17finalizationPhaseEPNS_10PxBaseTaskEEEE11runInternalEv
Szk:__ZL85ConnectionConfig_t4173981269_CustomAttributesCacheGenerator_m_MaxSentMessageQueueSizeP21CustomAttributesCache
nb:invoke_iifiii
bB:__ZN17AnimationPlayable28UpdateInternalStateRecursiveILi1ELb0EEEvPK35AnimationPlayableEvaluationConstant
o6n:__ZN6il2cpp2gcL10CleanupCCWEPvS1_
Lxm:__ZN28GenericInterfaceFuncInvoker2Ii19Vector4_t3319028937S0_E6InvokeEPK10MethodInfoP12Il2CppObjectS0_S0_
gb:invoke_vifff
tpc:__Z41Register_UnityEngine_GameObject_set_layerv
wDd:__ZN5physx15NpParticleFluid15exportExtraDataERNS_22PxSerializationContextE
eAo:_glGetVertexAttribiv__wrapper
jpd:__ZN5physx6shdfnd15atomicDecrementEPVi
Hf:_emscripten_request_fullscreen
cNm:_Predicate_1_Invoke_m851618236_gshared
tde:__ZN5physx2Cm12DelegateTaskINS_2Sc5SceneEXadL_ZNS3_11postCCDPassEPNS_10PxBaseTaskEEEED0Ev
N9m:_SimpleJson_SerializeObject_m2283059057
Rgl:_Dictionary_2_pick_value_m3331733414_gshared
$Lb:__ZN20LocalFileSystemWebGL6DeleteER13FileEntryDatab
MGi:_Enumerator_System_Collections_IEnumerator_Reset_m3482873763_AdjustorThunk
Jf:_emscripten_glDisableVertexAttribArray
hti:_Array_InternalArray__ICollection_Remove_TisSingle_t1397266774_m3361324455_gshared
Po:FUNCTION_TABLE_iiiifiiii
Eja:__ZN4core8hash_mapINS_12basic_stringIcNS_20StringStorageDefaultIcEEEE13dynamic_arrayI4PPtrI6SpriteELj4EENS_4hashIS4_EENSt3__28equal_toIS4_EEE12delete_nodesEv
t1l:_Collection_1_set_Item_m839097518_gshared
Gqf:_NetworkServerSimple_DisconnectAllConnections_m3683671359
lah:_InternalEnumerator_1__ctor_m3456047704_gshared
Jc:invoke_fifffi
cfm:_Collection_1_System_Collections_IList_Add_m2969482770_gshared
MHh:_BitConverterLE_GetBytes_m4130646282
uZm:_TextEditor_MoveToEndOfPreviousWord_m1495106220
cza:__ZN4gles23ClearCurrentFramebufferEP7ApiGLESbbbRK10ColorRGBAffi
Az:__ZN7mecanim12statemachine20CreateStateWorkspaceEjjjRNS_6memory9AllocatorE
dRn:__ZNK10KeyWrapperINSt3__24pairIPK12PropertyInfoP11Il2CppClassEEE14EqualsComparerINS0_8equal_toIS7_EEEclERKS8_SE_
jCk:__ZL109NetworkBehaviour_t204670959_CustomAttributesCacheGenerator_NetworkBehaviour_RegisterEventDelegate_m1060285814P21CustomAttributesCache
URm:_UnityEvent_1_Invoke_m3604335408_gshared
Fak:__ZL79Convert_t2465617642_CustomAttributesCacheGenerator_Convert_ToUInt64_m2652538228P21CustomAttributesCache
wie:__ZN5physx2Gu11HeightField13releaseMemoryEb
Vf:_emscripten_glDeleteObjectARB
raf:_EventSystem_RaycastComparer_m3685368675
Pg:_IMG_Load
Yqm:_ReadOnlyCollection_1_System_Collections_IList_Add_m1063648974_gshared
hbg:__Z131RuntimeInvoker_Void_t1185182177_RuntimeObject_RuntimeObject_Int64_t3736567304_ObjectU26_t2146539884_SerializationInfoU26_t419328957PFvvEPK10MethodInfoPvPS4_
eEa:__ZN6prcoreL27StretchGenericFloatBilinearI18TexFormatARGBFloatEEvPKNS_9InnerInfoE
etc:__Z53Register_UnityEngine_RenderTexture_Internal_GetHeightv
SIk:__ZL87U3CDelayedDestroyDropdownListU3Ec__Iterator0_t3853912249_CustomAttributesCacheGeneratorP21CustomAttributesCache
tLh:_PKCS12_RemoveCertificate_m1421555398
cYh:_Slider_FindSelectableOnLeft_m1667068522
RDa:__ZN6prcoreL17RemapGenericFloatI17TexFormatRGBAHalf18TexFormatARGBFloatEEvPKNS_9InnerInfoE
Wyc:__ZNK8GUIStyle21DrawWithTextSelectionER8GUIStateRK5RectTIfER10GUIContentbbbbbiiRK10ColorRGBAfSA_
EQc:__ZNSt3__27__sort4IRN18Overlap2DQueryBase29ColliderHitsByDepthComparitorEPP10Collider2DEEjT0_S7_S7_S7_T_
fzc:__Z14GetBuiltinSkini
VT:___cxx_global_var_init_12
xT:___cxx_global_var_init_13
TT:___cxx_global_var_init_10
UT:___cxx_global_var_init_11
x4f:__Z60RuntimeInvoker_SByte_t1669577662_RuntimeObject_RuntimeObjectPFvvEPK10MethodInfoPvPS4_
ajj:_Single_System_IConvertible_ToSingle_m1939829239_AdjustorThunk
Daa:___cxx_global_var_init_18
_8n:__ZN6il2cpp2os10ThreadImpl13SetWaitObjectEPNS0_5posix15PosixWaitObjectE
mm:_JS_SystemInfo_GetBrowserVersionString
_5m:_NetworkTransport_DoesEndPointUsePlatformProtocols_m748072121
Qpb:__ZN2UI13RectTransform23VirtualRedirectTransferER14SafeBinaryRead
jmb:__ZN24GenerateTypeTreeTransfer8TransferINSt3__26vectorIN4core12basic_stringIcNS3_20StringStorageDefaultIcEEEE13stl_allocatorIS7_L18MemLabelIdentifier13ELi16EEEEEEvRT_PKc17TransferMetaFlags
TOd:__ZN5physx7NpScene17flushQueryUpdatesEv
inj:_AssetBundleRequest_t699759206_marshal_pinvoke_cleanup
thg:__Z31RuntimeInvoker_Rect_t2360479859PFvvEPK10MethodInfoPvPS4_
cna:__ZNSt3__26vectorIN9ShaderLab20SerializedSubProgramENS_9allocatorIS2_EEE6assignIPS2_EENS_9enable_ifIXaasr21__is_forward_iteratorIT_EE5valuesr16is_constructibleIS2_NS_15iterator_traitsIS9_E9referenceEEE5valueEvE4typeES9_S9_
XGc:__Z18Transfer_BlittableI8JSONReadLb0E8BitFieldEvRK29SerializationCommandArgumentsR31RuntimeSerializationCommandInfo
MJf:_Char_ToString_m3588025615_AdjustorThunk
igi:_HashSet_1_CopyTo_m2849056227_gshared
hFb:__ZL17Transfer_GUIStyleI18StreamedBinaryReadILb1EELb0EEvRK29SerializationCommandArgumentsR31RuntimeSerializationCommandInfo
Qil:_Dictionary_2_Remove_m1813846159_gshared
FGh:_ModulusRing_Multiply_m343333088
fve:__ZN12PhysXRaycast15InitializeClassEv
jPd:__ZN5physx7NpScene10unlockReadEv
ktn:_PlayerController_OnSerialize_m4185627328
Tka:__ZN9ShaderLab14SerializedPass8TransferI14SafeBinaryReadEEvRT_
nAc:__Z71Register_UnityEngine_GUILayoutUtility_INTERNAL_CALL_Internal_MoveWindowv
YR:__ZN12AudioManager16SetListenerPauseEb
hSc:__ZNSt3__26__sortIRN10ClipperLib12LocMinSorterEPNS1_12LocalMinimumEEEvT0_S6_T_
kui:_SetPropertyUtility_SetStruct_TisSingle_t1397266774_m2805350785_gshared
Ggh:_InternalEnumerator_1_System_Collections_IEnumerator_get_Current_m4024781121_AdjustorThunk
vmh:_DefaultComparer_Compare_m1284039696_gshared
sXg:__ZN28GenericInterfaceFuncInvoker0IP26IPAddressU5BU5D_t596328627E6InvokeEPK10MethodInfoP12Il2CppObject
Mhi:_KeyValuePair_2_set_Value_m2953914627_AdjustorThunk
FUf:_NetBuffer_WriteCheckForSpace_m3531552874
ga:invoke_viiiiiiiiiii
Zlo:___syscall_ret
mri:_Array_InternalArray__ICollection_Contains_TisRuntimeObject_m4067783231_gshared
Y1k:_Array_swap_TisUInt32_t2560061978_TisUInt32_t2560061978_m328524587_gshared
zcf:_PointerEventData_set_worldNormal_m1888481930
DOd:__ZNK5physx7NpScene26getBounceThresholdVelocityEv
Fff:_CanvasScaler_set_referencePixelsPerUnit_m1768965301
IJm:_AnchorInfo__ctor_m46784903
$2h:_CipherSuiteCollection_get_Item_m4188309062
UFg:__Z53RuntimeInvoker_PendingOwner_t3340073490_RuntimeObjectPFvvEPK10MethodInfoPvPS4_
ozm:_SslHandshakeHash_HashFinal_m2573455475
HPg:_SynchronizationAttribute_ReleaseLock_m1030353464
WUn:__ZNSt3__212basic_stringIcNS_11char_traitsIcEENS_9allocatorIcEEE6assignINS_11__wrap_iterIPKcEEEENS_9enable_ifIXaasr21__is_forward_iteratorIT_EE5valuesr38__libcpp_string_gets_noexcept_iteratorISC_EE5valueERS5_E4typeESC_SC_
WUe:__Z56Register_UnityEngine_Analytics_CustomEventData_AddDoublev
rcb:__ZN11ChannelInfo8TransferI19StreamedBinaryWriteILb0EEEEvRT_
Pbo:__ZN4utf88internal13validate_nextIPKcEENS0_9utf_errorERT_S5_Rj
ZQm:_UnityAction_1_EndInvoke_m542551745_gshared
_Lk:__ZL53ToggleGroup_t123837990_CustomAttributesCacheGeneratorP21CustomAttributesCache
NAd:__ZN5physx2Sc9ClothCore22setFrictionCoefficientEf
Ndj:_SHA1Internal_AddLength_m2737455899
tUb:__ZN14qsort_internal13Partition3WayIP17RODataReplacementi19ROSorterReplacementEENSt3__24pairIT_S6_EES6_S6_T0_T1_
Qud:__ZNK5physx9NpPhysics17getNbConvexMeshesEv
oan:_PocoJsonSerializerStrategy_ContructorDelegateFactory_m678547350
DTi:_Transform_1__ctor_m68749149_gshared
GOd:__ZNK5physx7NpScene29getContactCorrelationDistanceEv
mii:_KeyValuePair_2_get_Value_m755756747_gshared
Cpc:__Z34Register_UnityEngine_Gradient_Initv
iQh:_LayoutGroup_OnDidApplyAnimationProperties_m1333813659
Gxh:_GenericTypeParameterBuilder_IsArrayImpl_m67259334
smg:__Z84RuntimeInvoker_RuntimeObject_RayU26_t3515555043_Single_t1397266774_Int32_t2950945753PFvvEPK10MethodInfoPvPS4_
IAc:__Z49GUIStyle_CUSTOM_INTERNAL_CALL_Internal_DrawCursorPvRK5RectTIfEP12Il2CppObjectiRK10ColorRGBAf
quh:_DefaultMemberAttribute_get_MemberName_m3384235354
gOm:_Predicate_1__ctor_m3011113915_gshared
ogl:_Dictionary_2__ctor_m329711281_gshared
pbb:__ZN13ScreenManager23SetIsOrientationEnabledE18EnabledOrientationb
c9h:_EqualityComparer_1_System_Collections_IEqualityComparer_GetHashCode_m3690690972_gshared
DLh:_InputField_EnforceTextHOverflow_m3400115777
Rso:dynCall_viffffii
GXf:_LogFilter__cctor_m1691679780
HNj:_Decimal_op_Increment_m2045993911
Sig:__Z41RuntimeInvoker_TextureWrapMode_t584250749PFvvEPK10MethodInfoPvPS4_
Jib:__ZN9InputAxis8TransferI19StreamedBinaryWriteILb0EEEEvRT_
f0i:__Z33il2cpp_codegen_check_sub_overflowxx
hso:dynCall_viififiii
cBc:__Z45Register_UnityEngine_GUIStyle_GetFontInternalv
tVf:_LocalClient_InternalConnectLocalServer_m470121409
HWm:_ListPool_1_Release_m591299672_gshared
l8c:__ZN5physx6shdfnd8SyncImpl4waitEj
bak:__ZL79Convert_t2465617642_CustomAttributesCacheGenerator_Convert_ToUInt16_m3116648921P21CustomAttributesCache
JYm:_GUIUtility_set_keyboardControl_m119089252
njh:_InternalEnumerator_1_MoveNext_m1096095130_AdjustorThunk
GJi:_Enumerator__ctor_m1320896511_gshared
iSm:_UnityEvent_1_AddListener_m1590149461_gshared
ssk:__ZL63GUISkin_t1244372282_CustomAttributesCacheGenerator_m_ScrollViewP21CustomAttributesCache
Lfj:_X509Certificate_GetCertHash_m274210048
een:_Resources_ConvertObjects_TisRuntimeObject_m1486780300_gshared
rPj:_Double_System_IConvertible_ToInt16_m3591921965_AdjustorThunk
kwm:_Comparison_1_Invoke_m2925518770_gshared
ITa:__ZN10GameObject23VirtualRedirectTransferER18StreamedBinaryReadILb0EE
Hbn:_SymmetricTransform__ctor_m2693628991
pUf:_ChannelBuffer_SetOption_m1946040390
